 ThiefMP

 Timestamp is 4d1022d6 (Mon Dec 20 22:45:26 2010)

 Preferred load address is 10000000

 Start         Length     Name                   Class
 0001:00000000 0001e410H .text                   CODE
 0001:0001e410 00000c81H .text$x                 CODE
 0001:0001f0a0 00000133H .text$yc                CODE
 0001:0001f1e0 0000007cH .text$yd                CODE
 0002:00000000 00000238H .idata$5                DATA
 0002:00000240 00005174H .rdata                  DATA
 0002:000053b4 0000003dH .rdata$debug            DATA
 0002:000053f4 00000044H .rdata$r                DATA
 0002:00005438 00000004H .rtc$IAA                DATA
 0002:0000543c 00000004H .rtc$IZZ                DATA
 0002:00005440 00000004H .rtc$TAA                DATA
 0002:00005444 00000004H .rtc$TZZ                DATA
 0002:00005448 00001334H .xdata$x                DATA
 0002:0000677c 00000078H .idata$2                DATA
 0002:000067f4 00000014H .idata$3                DATA
 0002:00006808 00000238H .idata$4                DATA
 0002:00006a40 00000c7aH .idata$6                DATA
 0002:000076ba 00000000H .edata                  DATA
 0003:00000000 00000004H .CRT$XCA                DATA
 0003:00000004 00000004H .CRT$XCAA               DATA
 0003:00000008 00000024H .CRT$XCU                DATA
 0003:0000002c 00000004H .CRT$XCZ                DATA
 0003:00000030 00000004H .CRT$XIA                DATA
 0003:00000034 00000004H .CRT$XIZ                DATA
 0003:00000040 00002694H .data                   DATA
 0003:000026d8 00002328H .bss                    DATA
 0004:00000000 00000250H .rsrc$01                DATA
 0004:00000250 00001628H .rsrc$02                DATA

  Address         Publics by Value              Rva+Base     Lib:Object

 0000:00000000       ___safe_se_handler_table   00000000     <absolute>
 0000:00000000       __except_list              00000000     <absolute>
 0000:00000000       ___safe_se_handler_count   00000000     <absolute>
 0000:00009876       __ldused                   00009876     <absolute>
 0000:00009876       __fltused                  00009876     <absolute>
 0001:00000000       _cDynArray_ctor            10001000 f   sshock2.obj
 0001:00000010       _cTag_ctor                 10001010 f   sshock2.obj
 0001:00000023       _cDABase_dtor1             10001023 f   sshock2.obj
 0001:00000037       _DarkPlayerActionToSchemaIdx 10001037 f   sshock2.obj
 0001:0000020f       _ShockPlayerActionToSchemaIdx 1000120f f   sshock2.obj
 0001:000003fe       _ShockSetMode              100013fe f   sshock2.obj
 0001:0000062f       _cPhysModels_Get           1000162f f   sshock2.obj
 0001:000006e0       _PlayerAction_GetTagName   100016e0 f   sshock2.obj
 0001:00000700       _PlayerAction_GetAnimName  10001700 f   sshock2.obj
 0001:00000750       ?CreateAI@HookAIManager@@YGHPAUIAIManager@@HPBD@Z 10001750 f   AIManager.obj
 0001:00000760       ?TransferAI@HookAIManager@@YGHPAUIAIManager@@HH@Z 10001760 f   AIManager.obj
 0001:000007a0       ?StartConversation@HookAIManager@@YGHPAUIAIManager@@H@Z 100017a0 f   AIManager.obj
 0001:00000830       ?MakeProxyAI@HookAINetManager@@YGJPAUIAINetManager@@HH@Z 10001830 f   AIManager.obj
 0001:000009f0       ?OnUseWeapon@@YAXH@Z       100019f0 f   Commands.obj
 0001:00000a90       ?OnSimMenu@@YAXXZ          10001a90 f   Commands.obj
 0001:00000ac0       ?OnObjectives@@YAXXZ       10001ac0 f   Commands.obj
 0001:00000b00       ?OnAutomap@@YAXXZ          10001b00 f   Commands.obj
 0001:00000b40       ?OverlayFilter@@YA_NXZ     10001b40 f   Commands.obj
 0001:00000b50       ?PatchCommands@@YAX_N@Z    10001b50 f   Commands.obj
 0001:00000c20       ?OnDropItem@@YAXXZ         10001c20 f   Commands.obj
 0001:00000ce0       ?OnWinMission@@YAXXZ       10001ce0 f   Commands.obj
 0001:00000d60       ?HookDarkCombatDamageListener@@YGKPBUsDamageMsg@@PAX@Z 10001d60 f   Damage.obj
 0001:00000d70       ?DamageObject@HookSimpleDamageModel@@YGJKHHPAUsDamage@@PAUsChainedEvent@@H@Z 10001d70 f   Damage.obj
 0001:00000e10       ?DarkDamageListener@@YGKPBUsDamageMsg@@PAX@Z 10001e10 f   Damage.obj
 0001:00000f00       ?EndMission@HookDarkGameSrv@@YGJK@Z 10001f00 f   DarkGameSrv.obj
 0001:00000f40       ?FadeToBlack@HookDarkGameSrv@@YGJKM@Z 10001f40 f   DarkGameSrv.obj
 0001:00000f70       ?SlotFileName@HookDarkFilePanel@@YGPBDH@Z 10001f70 f   FilePanel.obj
 0001:00000fe0       ?DoFileOp@HookSaveFilePanel@@YIXPAKHH@Z 10001fe0 f   FilePanel.obj
 0001:00001030       ?ReceiveFullHeartbeat@HookGhostReceive@@YAXHHHPAUsGhostHeartbeat@@PAUsGhostMoCap@@@Z 10002030 f   GhostReceive.obj
 0001:00001050       ?CreatePlan@HookGroundActionManeuverFactory@@YGPAVcMotionPlan@@PBVcMotionSchema@@AAUsMcMotorState@@AAUsMcMoveState@@AAUsMcMoveParams@@PAVIMotor@@PAVcMotionCoordinator@@@Z 10002050 f   Motions.obj
 0001:00001100       ?CreatePlan@HookPlayerManeuverFactory@@YGPAVcMotionPlan@@PBVcMotionSchema@@AAUsMcMotorState@@AAUsMcMoveState@@AAUsMcMoveParams@@PAVIMotor@@PAVcMotionCoordinator@@@Z 10002100 f   Motions.obj
 0001:00001140       ?CreatePlan@HookGroundLocoManeuverFactory@@YGPAVcMotionPlan@@PBVcMotionSchema@@AAUsMcMotorState@@AAUsMcMoveState@@AAUsMcMoveParams@@PAVIMotor@@PAVcMotionCoordinator@@@Z 10002140 f   Motions.obj
 0001:00001180       ?Join@HookNet@@YGHPAUINet@@PBD11@Z 10002180 f   Net.obj
 0001:00001270       ?SimpleCreatePlayer@HookNet@@YGJPAUINet@@PAD@Z 10002270 f   Net.obj
 0001:000012a0       ?Host@HookNet@@YGHPAUINet@@PAD1@Z 100022a0 f   Net.obj
 0001:00001330       ?Leave@HookNetManager@@YGXPAUINetManager@@@Z 10002330 f   NetManager.obj
 0001:00001360       ?EnumPlayersCallback@HookNetManager@@YGHKKPBUDPNAME@@KPAX@Z 10002360 f   NetManager.obj
 0001:000013c0       ?InitExistingPlayer@HookNetManager@@YGHKKPBUDPNAME@@KPAX@Z 100023c0 f   NetManager.obj
 0001:00001410       ?_DestroyNetPlayerCallback@HookNetManager@@YGHKKPBUDPNAME@@KPAX@Z 10002410 f   NetManager.obj
 0001:00001460       ?GetPlayerAddress@HookNetManager@@YGPBDKH@Z 10002460 f   NetManager.obj
 0001:00001470       ?SuspendMessaging@HookNetManager@@YGXPAUINetManager@@@Z 10002470 f   NetManager.obj
 0001:00001480       ?ResumeMessaging@HookNetManager@@YGXPAUINetManager@@@Z 10002480 f   NetManager.obj
 0001:00001490       ?MyAvatarArchetype@HookDarkNetServices@@YGHK@Z 10002490 f   NetManager.obj
 0001:00001520       ?NetDisconnectListener@@YAXKKPAX@Z 10002520 f   NetManager.obj
 0001:000015b0       ?NetDisconnectListenerInit@@YAXXZ 100025b0 f   NetManager.obj
 0001:000015e0       ?HandleMsg@HookNetMsg@@YIXPAVcNetMsg@@HPBUsNetMsg_Generic@@KH@Z 100025e0 f   NetMsg.obj
 0001:00001620       ?MarshalArguments@HookNetMsg@@YIHPAVcNetMsg@@HPADPAHPAI@Z 10002620 f   NetMsg.obj
 0001:00001660       ?ClearTables@HookObjectNetworking@@YGXPAUIObjectNetworking@@@Z 10002660 f   Objects.obj
 0001:00001670       ?ObjRegisterProxy@HookObjectNetworking@@YGXPAUIObjectNetworking@@HFH@Z 10002670 f   Objects.obj
 0001:00001680       ?ObjGetProxy@HookObjectNetworking@@YGHPAUIObjectNetworking@@HF@Z 10002680 f   Objects.obj
 0001:00001690       ?ObjDeleteProxy@HookObjectNetworking@@YGXPAUIObjectNetworking@@H@Z 10002690 f   Objects.obj
 0001:000016a0       ?ObjIsProxy@HookObjectNetworking@@YGHPAUIObjectNetworking@@H@Z 100026a0 f   Objects.obj
 0001:000016b0       ?ObjHostInfo@HookObjectNetworking@@YGXPAUIObjectNetworking@@HPAHPAF@Z 100026b0 f   Objects.obj
 0001:000016c0       ?ObjTakeOver@HookObjectNetworking@@YGXPAUIObjectNetworking@@H@Z 100026c0 f   Objects.obj
 0001:00001700       ?ObjGiveTo@HookObjectNetworking@@YGXPAUIObjectNetworking@@HHH@Z 10002700 f   Objects.obj
 0001:00001740       ?ObjGiveWithoutObjID@HookObjectNetworking@@YGXPAUIObjectNetworking@@HH@Z 10002740 f   Objects.obj
 0001:00001790       ?StartBeginCreate@HookObjectNetworking@@YGXPAUIObjectNetworking@@HH@Z 10002790 f   Objects.obj
 0001:000017a0       ?FinishBeginCreate@HookObjectNetworking@@YGXPAUIObjectNetworking@@H@Z 100027a0 f   Objects.obj
 0001:000017e0       ?StartEndCreate@HookObjectNetworking@@YGXPAUIObjectNetworking@@H@Z 100027e0 f   Objects.obj
 0001:000017f0       ?FinishEndCreate@HookObjectNetworking@@YGXPAUIObjectNetworking@@H@Z 100027f0 f   Objects.obj
 0001:00001800       ?StartDestroy@HookObjectNetworking@@YGXPAUIObjectNetworking@@H@Z 10002800 f   Objects.obj
 0001:00001840       ?NotifyObjRemapped@HookObjectNetworking@@YGXPAUIObjectNetworking@@HH@Z 10002840 f   Objects.obj
 0001:00001850       ?ObjectIsVisible@@YAHH@Z   10002850 f   Objects.obj
 0001:00001880       ?Add@HookContainSys@@YGJPAUIContainSys@@HHII@Z 10002880 f   Objects.obj
 0001:00001980       ?Select@HookInventory@@YGJPAUIInventory@@H@Z 10002980 f   Objects.obj
 0001:00001a20       ?ClearSelection@HookInventory@@YGJPAUIInventory@@W4eWhichInvObj@@@Z 10002a20 f   Objects.obj
 0001:00001aa0       ?HookFrobPickup@@YAXHH@Z   10002aa0 f   Packets.obj
 0001:00001ae0       ?HookRegSphere@@YAXHHKMPAUmxs_vector@@K@Z 10002ae0 f   Packets.obj
 0001:00001af0       ?HookHandleCreateQuestData@@YAXPADHHK@Z 10002af0 f   Packets.obj
 0001:00001b30       ?HookHandleSetQuestData@@YAXPADHK@Z 10002b30 f   Packets.obj
 0001:00001b70       ?PatcherTerm@@YAXXZ        10002b70 f   Patcher.obj
 0001:00001b70       ?GhostInstallFireListener@@YAXH@Z 10002b70 f   Ghost.obj
 0001:00001b70       ?SendCreatePlayerNetMsg@HookNetManager@@YGXXZ 10002b70 f   NetManager.obj
 0001:00001b70       ?HookHandleHaltSound@@YAXHH@Z 10002b70 f   Packets.obj
 0001:00001b80       ?HookHandleFinishSynch@@YAXPAUINetManager@@@Z 10002b80 f   Packets.obj
 0001:00001b90       ?HookHandlePlayerInfo@@YAXHPAD0HPAUINetManager@@@Z 10002b90 f   Packets.obj
 0001:00001bf0       ?HookFrobRequest@@YAXHHHHHHH@Z 10002bf0 f   Packets.obj
 0001:00001c00       ?HookHandleRequestDestroy@@YAXH@Z 10002c00 f   Packets.obj
 0001:00001c60       ?HookHandleFireProjectile@@YAXHHKMPAUmxs_vector@@PAUmxs_angvec@@0@Z 10002c60 f   Packets.obj
 0001:00001cc0       ?HookHandleFrobPickup@@YAXHH@Z 10002cc0 f   Packets.obj
 0001:00001eb0       ?OnReact@HookReactions@@QAGXKPAUsReactionEvent@@PAUsReactionParam@@@Z 10002eb0 f   Reactions.obj
 0001:00001f10       ?OnStartAttack@HookBowSrv@@QAGJXZ 10002f10 f   ScriptService.obj
 0001:00001f40       ?OnFinishAttack@HookBowSrv@@QAGJXZ 10002f40 f   ScriptService.obj
 0001:00001f60       ?FinishPicking@HookPickLockSrv@@YGHKH@Z 10002f60 f   ScriptService.obj
 0001:00001f70       ?MPrint@HookDebugScrSrv@@YGJPAKAAVcScrStr@@1111111@Z 10002f70 f   ScriptService.obj
 0001:00001fd0       ?StartPicking@HookPickLockSrv@@YGHKHHH@Z 10002fd0 f   ScriptService.obj
 0001:00002010       ?SendPropertyMsg@HookStoredProperty@@YGHPAUsNetMsg_Generic@@HHK@Z 10003010 f   StoredProperty.obj
 0001:00002060       ?ReceivePropertyMsg@HookStoredProperty@@YGXPBUsNetMsg_Generic@@KKH@Z 10003060 f   StoredProperty.obj
 0001:000020a0       ??1CCriticalSection@@QAE@XZ 100030a0 f i DarkPeer.obj
 0001:000020b0       ??1IDarkNet@@UAE@XZ        100030b0 f i DarkPeer.obj
 0001:000020c0       ??_GIDarkNet@@UAEPAXI@Z    100030c0 f i DarkPeer.obj
 0001:000020c0       ??_EIDarkNet@@UAEPAXI@Z    100030c0 f i DarkPeer.obj
 0001:000020e0       ??1logic_error@std@@UAE@XZ 100030e0 f i DarkPeer.obj
 0001:00002140       ?what@logic_error@std@@UBEPBDXZ 10003140 f i DarkPeer.obj
 0001:00002150       ??_Elogic_error@std@@UAEPAXI@Z 10003150 f i DarkPeer.obj
 0001:00002150       ??_Glogic_error@std@@UAEPAXI@Z 10003150 f i DarkPeer.obj
 0001:00002170       ??_Glength_error@std@@UAEPAXI@Z 10003170 f i DarkPeer.obj
 0001:00002170       ??_Elength_error@std@@UAEPAXI@Z 10003170 f i DarkPeer.obj
 0001:00002190       ??1length_error@std@@UAE@XZ 10003190 f i DarkPeer.obj
 0001:000021a0       ??_Gout_of_range@std@@UAEPAXI@Z 100031a0 f i DarkPeer.obj
 0001:000021a0       ??_Eout_of_range@std@@UAEPAXI@Z 100031a0 f i DarkPeer.obj
 0001:000021c0       ??1out_of_range@std@@UAE@XZ 100031c0 f i DarkPeer.obj
 0001:000021d0       ??0ConnectAttempt@@QAE@XZ  100031d0 f i DarkPeer.obj
 0001:00002220       ??1ConnectAttempt@@QAE@XZ  10003220 f i DarkPeer.obj
 0001:00002270       ?CancelEnumeration@CDarkPeer@@UAEXXZ 10003270 f   DarkPeer.obj
 0001:00002290       ?CancelAllEnumerations@CDarkPeer@@UAEXXZ 10003290 f   DarkPeer.obj
 0001:000022b0       ?Close@CDarkPeer@@UAEXXZ   100032b0 f   DarkPeer.obj
 0001:000022e0       ?CrashCleanup@CDarkPeer@@UAEXXZ 100032e0 f   DarkPeer.obj
 0001:00002310       ?ConnectToServer@CDarkPeer@@UAE_NPBD0@Z 10003310 f   DarkPeer.obj
 0001:00002360       ?DestroyPeer@CDarkPeer@@UAE_NKPBXK@Z 10003360 f   DarkPeer.obj
 0001:00002390       ?GetSendQueues@CDarkPeer@@UAEXXZ 10003390 f   DarkPeer.obj
 0001:00002460       ?GetHostConnectionInfo@CDarkPeer@@UAEJPAU_DPN_CONNECTION_INFO@@@Z 10003460 f   DarkPeer.obj
 0001:00002480       ?GetConnectionInfo@CDarkPeer@@UAEJKPAU_DPN_CONNECTION_INFO@@@Z 10003480 f   DarkPeer.obj
 0001:000024b0       ?GetPeer@CDarkPeer@@UAEPAUIDirectPlay8Peer@@XZ 100034b0 f   DarkPeer.obj
 0001:000024c0       ?GetLocalID@CDarkPeer@@UAEKXZ 100034c0 f   DarkPeer.obj
 0001:000024d0       ?InitGlobalLink@CDarkPeer@@IAE_NXZ 100034d0 f   DarkPeer.obj
 0001:00002620       ?GetConnectEventHandle@CDarkPeer@@UAEPAXXZ 10003620 f   DarkPeer.obj
 0001:00002630       ?GetPeerInfo@CDarkPeer@@UAEPAU_DPN_PLAYER_INFO@@K@Z 10003630 f   DarkPeer.obj
 0001:000026c0       ?SendToAll@CDarkPeer@@UAEXPAXKKK@Z 100036c0 f   DarkPeer.obj
 0001:000026e0       ?SendOP@CDarkPeer@@UAEXKPAXKKK@Z 100036e0 f   DarkPeer.obj
 0001:000027c0       ?Update@CDarkPeer@@UAEXXZ  100037c0 f   DarkPeer.obj
 0001:000027e0       ?SetPlayerInfo@CDarkPeer@@UAEJXZ 100037e0 f   DarkPeer.obj
 0001:00002870       ?Shutdown@CDarkPeer@@UAEXXZ 10003870 f   DarkPeer.obj
 0001:00002920       ?GetSessionManager@CDarkPeer@@UAEPAVCDarkSessionManager@@XZ 10003920 f   DarkPeer.obj
 0001:00002930       ?GetSessionInfo@CDarkPeer@@UBEABUSessionInfo@@XZ 10003930 f   DarkPeer.obj
 0001:00002940       ?GetOldPlayerData@CDarkPeer@@UAEAAV?$map@KPAUDP4Data@@U?$less@K@std@@V?$allocator@U?$pair@$$CBKPAUDP4Data@@@std@@@3@@std@@XZ 10003940 f   DarkPeer.obj
 0001:00002950       ?ReceivedPlayers@CDarkPeer@@UBE_NXZ 10003950 f   DarkPeer.obj
 0001:00002960       ?SetReceivedPlayers@CDarkPeer@@UAEX_N@Z 10003960 f   DarkPeer.obj
 0001:00002970       ?SendHeartbeat@CDarkPeer@@UAEXXZ 10003970 f   DarkPeer.obj
 0001:00002980       ?EnumHosts@CDarkPeer@@UAEXPBD0@Z 10003980 f   DarkPeer.obj
 0001:00002a80       ?OnEnumerationResponse@CDarkPeer@@IAEXPAU_DPNMSG_ENUM_HOSTS_RESPONSE@@@Z 10003a80 f   DarkPeer.obj
 0001:00002c70       ?GetSendQueueStats@CDarkPeer@@UAE_NAAUQueueStats@@@Z 10003c70 f   DarkPeer.obj
 0001:00002c90       ?SendToHost@CDarkPeer@@UAEXPAXKK@Z 10003c90 f   DarkPeer.obj
 0001:00002ce0       ?Send@CDarkPeer@@UAEXKPAXKKK@Z 10003ce0 f   DarkPeer.obj
 0001:00002dd0       ?SendChat@CDarkPeer@@UAEX_NPBD@Z 10003dd0 f   DarkPeer.obj
 0001:00002e90       ?HandleGameModeEntry@CDarkPeer@@IAEXXZ 10003e90 f   DarkPeer.obj
 0001:00002f40       ?EventHandler@CDarkPeer@@UAEXHPAX@Z 10003f40 f   DarkPeer.obj
 0001:00002f70       ?PopQueuedMessage@CDarkPeer@@UAEPAUNetMessage@@XZ 10003f70 f   DarkPeer.obj
 0001:00002fb0       ?Start@ConnectAttempt@@QAEXIPBDPBG@Z 10003fb0 f   DarkPeer.obj
 0001:00003010       ?GetPlayers@@YAXQAH@Z      10004010 f   DarkPeer.obj
 0001:00003070       ??1?$SimpleQueue@H@@QAE@XZ 10004070 f i Gamesys.obj
 0001:00003070       ??1?$SimpleQueue@D@@QAE@XZ 10004070 f i ConsoleGUI.obj
 0001:00003070       ??1?$SimpleQueue@UNetMessage@@@@QAE@XZ 10004070 f i DarkPeer.obj
 0001:00003080       ?Push@?$SimpleQueue@UNetMessage@@@@QAEXPAUNetMessage@@@Z 10004080 f i DarkPeer.obj
 0001:00003080       ?Push@?$SimpleQueue@D@@QAEXPAD@Z 10004080 f i ConsoleGUI.obj
 0001:00003080       ?Push@?$SimpleQueue@H@@QAEXPAH@Z 10004080 f i Gamesys.obj
 0001:000030f0       ?HandleCreatePlayerMsg@CDarkPeer@@IAEXPAU_DPNMSG_CREATE_PLAYER@@@Z 100040f0 f   DarkPeer.obj
 0001:00003330       ?HandleNewPacket@CDarkPeer@@IAEXPAEKK@Z 10004330 f   DarkPeer.obj
 0001:000033a0       ?_Buynode@?$_Tree@V?$_Tmap_traits@HHU?$less@H@std@@V?$allocator@U?$pair@$$CBHH@std@@@2@$0A@@std@@@std@@IAEPAU_Node@?$_Tree_nod@V?$_Tmap_traits@HHU?$less@H@std@@V?$allocator@U?$pair@$$CBHH@std@@@2@$0A@@std@@@2@XZ 100043a0 f i Gamesys.obj
 0001:000033a0       ?_Buynode@?$_Tree@V?$_Tmap_traits@KPAUDP4Data@@U?$less@K@std@@V?$allocator@U?$pair@$$CBKPAUDP4Data@@@std@@@3@$0A@@std@@@std@@IAEPAU_Node@?$_Tree_nod@V?$_Tmap_traits@KPAUDP4Data@@U?$less@K@std@@V?$allocator@U?$pair@$$CBKPAUDP4Data@@@std@@@3@$0A@@std@@@2@XZ 100043a0 f i DarkPeer.obj
 0001:000033e0       ?_Buynode@?$_Tree@V?$_Tmap_traits@HHU?$less@H@std@@V?$allocator@U?$pair@$$CBHH@std@@@2@$0A@@std@@@std@@IAEPAU_Node@?$_Tree_nod@V?$_Tmap_traits@HHU?$less@H@std@@V?$allocator@U?$pair@$$CBHH@std@@@2@$0A@@std@@@2@PAU342@00ABU?$pair@$$CBHH@2@D@Z 100043e0 f i Gamesys.obj
 0001:000033e0       ?_Buynode@?$_Tree@V?$_Tmap_traits@KPAUDP4Data@@U?$less@K@std@@V?$allocator@U?$pair@$$CBKPAUDP4Data@@@std@@@3@$0A@@std@@@std@@IAEPAU_Node@?$_Tree_nod@V?$_Tmap_traits@KPAUDP4Data@@U?$less@K@std@@V?$allocator@U?$pair@$$CBKPAUDP4Data@@@std@@@3@$0A@@std@@@2@PAU342@00ABU?$pair@$$CBKPAUDP4Data@@@2@D@Z 100043e0 f i DarkPeer.obj
 0001:00003420       ?_Erase@?$_Tree@V?$_Tmap_traits@KPAUDP4Data@@U?$less@K@std@@V?$allocator@U?$pair@$$CBKPAUDP4Data@@@std@@@3@$0A@@std@@@std@@IAEXPAU_Node@?$_Tree_nod@V?$_Tmap_traits@KPAUDP4Data@@U?$less@K@std@@V?$allocator@U?$pair@$$CBKPAUDP4Data@@@std@@@3@$0A@@std@@@2@@Z 10004420 f i DarkPeer.obj
 0001:00003460       ?_Insert@?$_Tree@V?$_Tmap_traits@KPAUDP4Data@@U?$less@K@std@@V?$allocator@U?$pair@$$CBKPAUDP4Data@@@std@@@3@$0A@@std@@@std@@IAE?AViterator@12@_NPAU_Node@?$_Tree_nod@V?$_Tmap_traits@KPAUDP4Data@@U?$less@K@std@@V?$allocator@U?$pair@$$CBKPAUDP4Data@@@std@@@3@$0A@@std@@@2@ABU?$pair@$$CBKPAUDP4Data@@@2@@Z 10004460 f i DarkPeer.obj
 0001:00003620       ??0logic_error@std@@QAE@ABV01@@Z 10004620 f i DarkPeer.obj
 0001:00003680       ??0length_error@std@@QAE@ABV01@@Z 10004680 f i DarkPeer.obj
 0001:000036a0       ?erase@?$_Tree@V?$_Tmap_traits@KPAUDP4Data@@U?$less@K@std@@V?$allocator@U?$pair@$$CBKPAUDP4Data@@@std@@@3@$0A@@std@@@std@@QAE?AViterator@12@V312@@Z 100046a0 f i DarkPeer.obj
 0001:00003970       ??0out_of_range@std@@QAE@ABV01@@Z 10004970 f i DarkPeer.obj
 0001:00003990       ?insert@?$_Tree@V?$_Tmap_traits@KPAUDP4Data@@U?$less@K@std@@V?$allocator@U?$pair@$$CBKPAUDP4Data@@@std@@@3@$0A@@std@@@std@@QAE?AU?$pair@Viterator@?$_Tree@V?$_Tmap_traits@KPAUDP4Data@@U?$less@K@std@@V?$allocator@U?$pair@$$CBKPAUDP4Data@@@std@@@3@$0A@@std@@@std@@_N@2@ABU?$pair@$$CBKPAUDP4Data@@@2@@Z 10004990 f i DarkPeer.obj
 0001:00003a50       ?erase@?$_Tree@V?$_Tmap_traits@KPAUDP4Data@@U?$less@K@std@@V?$allocator@U?$pair@$$CBKPAUDP4Data@@@std@@@3@$0A@@std@@@std@@QAE?AViterator@12@V312@0@Z 10004a50 f i DarkPeer.obj
 0001:00003b10       ?insert@?$_Tree@V?$_Tmap_traits@KPAUDP4Data@@U?$less@K@std@@V?$allocator@U?$pair@$$CBKPAUDP4Data@@@std@@@3@$0A@@std@@@std@@QAE?AViterator@12@V312@ABU?$pair@$$CBKPAUDP4Data@@@2@@Z 10004b10 f i DarkPeer.obj
 0001:00003c80       ??A?$map@KPAUDP4Data@@U?$less@K@std@@V?$allocator@U?$pair@$$CBKPAUDP4Data@@@std@@@3@@std@@QAEAAPAUDP4Data@@ABK@Z 10004c80 f i DarkPeer.obj
 0001:00003d00       ??1?$map@KPAUDP4Data@@U?$less@K@std@@V?$allocator@U?$pair@$$CBKPAUDP4Data@@@std@@@3@@std@@QAE@XZ 10004d00 f i DarkPeer.obj
 0001:00003d30       ??1CDarkPeer@@UAE@XZ       10004d30 f   DarkPeer.obj
 0001:00003ed0       ?EventHandler@CDarkPeer@@W3AEXHPAX@Z 10004ed0 f i DarkPeer.obj
 0001:00003ee0       ?MessageHandler@CDarkPeer@@IAEJPAXK0@Z 10004ee0 f   DarkPeer.obj
 0001:00004220       ??_GCDarkPeer@@UAEPAXI@Z   10005220 f i DarkPeer.obj
 0001:00004220       ??_ECDarkPeer@@UAEPAXI@Z   10005220 f i DarkPeer.obj
 0001:00004240       ?StaticMessageHandler@CDarkPeer@@KGJPAXK0@Z 10005240 f   DarkPeer.obj
 0001:00004250       ?InitClient@CDarkPeer@@IAEXXZ 10005250 f   DarkPeer.obj
 0001:00004470       ?InitServer@CDarkPeer@@IAEXXZ 10005470 f   DarkPeer.obj
 0001:00004810       ??0CDarkPeer@@QAE@W4NetState@@@Z 10005810 f   DarkPeer.obj
 0001:000049c0       ?SetApplicationDesc@CDarkSessionManager@@QAEXPBU_DPN_APPLICATION_DESC@@@Z 100059c0 f   DarkSessionManager.obj
 0001:00004a40       ?DPGetApplicationDesc@CDarkSessionManager@@IAEXXZ 10005a40 f   DarkSessionManager.obj
 0001:00004ac0       ?SetSessionInfo@CDarkSessionManager@@QAEXPBU_DPN_APPLICATION_DESC@@@Z 10005ac0 f   DarkSessionManager.obj
 0001:00004b60       ?GetSessionInfo@CDarkSessionManager@@QBEABUSessionInfo@@XZ 10005b60 f   DarkSessionManager.obj
 0001:00004b70       ??0CDarkSessionManager@@QAE@PAUIDirectPlay8Peer@@@Z 10005b70 f   DarkSessionManager.obj
 0001:00004be0       ??1CDarkSessionManager@@UAE@XZ 10005be0 f   DarkSessionManager.obj
 0001:00004c50       ?GetServerName@CDarkSessionManager@@QBEPBDXZ 10005c50 f   DarkSessionManager.obj
 0001:00004c60       ?UpdateSessionInfo@CDarkSessionManager@@QAEXXZ 10005c60 f   DarkSessionManager.obj
 0001:00004d80       ??_GCDarkSessionManager@@UAEPAXI@Z 10005d80 f i DarkSessionManager.obj
 0001:00004d80       ??_ECDarkSessionManager@@UAEPAXI@Z 10005d80 f i DarkSessionManager.obj
 0001:00004da0       ?Rebuild@CMarshalled@@UAEXPAE@Z 10005da0 f   Marshal.obj
 0001:00004de0       ?CopyMultiParm@CDarkMarshalBuffer@@QAEXABUsMultiParm@@@Z 10005de0 f   Marshal.obj
 0001:00004e10       ?CopyChainedEvent@CDarkMarshalBuffer@@QAEXABUsChainedEvent@@@Z 10005e10 f   Marshal.obj
 0001:00004e50       ?GetChainedEvent@CDarkMarshalBuffer@@QAEXAAUsChainedEvent@@@Z 10005e50 f   Marshal.obj
 0001:00004e90       ?GetMultiParm@CDarkMarshalBuffer@@QAEXAAUsMultiParm@@@Z 10005e90 f   Marshal.obj
 0001:00004ec0       ?Send@CMarshalled@@UAEHKK@Z 10005ec0 f   Marshal.obj
 0001:00004f30       ?CopyGlobalFromObj@CDarkMarshalBuffer@@QAEXH@Z 10005f30 f   Marshal.obj
 0001:00004f60       ?CopyReactionEvent@CDarkMarshalBuffer@@QAEXABUsReactionEvent@@@Z 10005f60 f   Marshal.obj
 0001:00004fa0       ?CopyReactionParam@CDarkMarshalBuffer@@QAEXABUsReactionParam@@@Z 10005fa0 f   Marshal.obj
 0001:00005000       ?GetObjFromGlobal@CDarkMarshalBuffer@@QAEHXZ 10006000 f   Marshal.obj
 0001:00005030       ?GetReactionEvent@CDarkMarshalBuffer@@QAEXAAUsReactionEvent@@@Z 10006030 f   Marshal.obj
 0001:00005070       ?GetReactionParam@CDarkMarshalBuffer@@QAEXAAUsReactionParam@@@Z 10006070 f   Marshal.obj
 0001:000050d0       ?SendTimeLimit@@YAXXZ      100060d0 f   Network.obj
 0001:00005110       ?NetSimCallback@@YAXHH@Z   10006110 f   Network.obj
 0001:00005190       ?ObjectSendData@@YAXHHPAXKK@Z 10006190 f   Network.obj
 0001:00005230       ?SendAddLoot@@YAXHK@Z      10006230 f   Network.obj
 0001:000052c0       ?SendEndMission@@YAXXZ     100062c0 f   Network.obj
 0001:00005320       ?SendPlayerStopAnimation@@YAXXZ 10006320 f   Network.obj
 0001:00005390       ??1PlayerData@@QAE@XZ      10006390 f i PlayerDB.obj
 0001:000053a0       ??0PlayerData@@QAE@XZ      100063a0 f i PlayerDB.obj
 0001:000053b0       ?ClearPlayerInfo@PlayerDB@@QAEXXZ 100063b0 f   PlayerDB.obj
 0001:00005470       ??1PlayerDB@@QAE@XZ        10006470 f i PlayerDB.obj
 0001:00005480       ??0PlayerDB@@QAE@XZ        10006480 f   PlayerDB.obj
 0001:000054e0       ?NameFromIndex@PlayerDB@@QAEPBDH@Z 100064e0 f   PlayerDB.obj
 0001:00005550       ?NameFromDPNID@PlayerDB@@QAEPBDK@Z 10006550 f   PlayerDB.obj
 0001:000055d0       ?SetPlayerInfo@PlayerDB@@QAEXHPBDH@Z 100065d0 f   PlayerDB.obj
 0001:000056a0       ??0CNetMsg_GenericReaction@@QAE@FPAUsReactionEvent@@PAUsReactionParam@@@Z 100066a0 f   T2GenericReaction.obj
 0001:00005780       ?Marshal@CNetMsg_GenericReaction@@UAEXAAVCDarkMarshalBuffer@@@Z 10006780 f   T2GenericReaction.obj
 0001:00005850       ?Unmarshal@CNetMsg_GenericReaction@@UAEXAAVCDarkMarshalBuffer@@@Z 10006850 f   T2GenericReaction.obj
 0001:00005920       ??0CNetMsg_PlayerDeath@@QAE@HH@Z 10006920 f   T2PlayerDeath.obj
 0001:00005940       ?Marshal@CNetMsg_PlayerDeath@@UAEXAAVCDarkMarshalBuffer@@@Z 10006940 f   T2PlayerDeath.obj
 0001:00005980       ?Unmarshal@CNetMsg_PlayerDeath@@UAEXAAVCDarkMarshalBuffer@@@Z 10006980 f   T2PlayerDeath.obj
 0001:000059b0       ?Marshal@CNetMsg_ScriptMsg@@UAEXAAVCDarkMarshalBuffer@@@Z 100069b0 f   T2ScriptMsg.obj
 0001:00005a10       ?Unmarshal@CNetMsg_ScriptMsg@@UAEXAAVCDarkMarshalBuffer@@@Z 10006a10 f   T2ScriptMsg.obj
 0001:00005a70       ??0CNetMsg_ScriptMsg@@QAE@HHPBDPAUsMultiParm@@@Z 10006a70 f   T2ScriptMsg.obj
 0001:00005ad0       ??0sScrMsg@@QAE@XZ         10006ad0 f i T2ScriptMsg.obj
 0001:00005af0       ?CreateFrobMsg@CNetMsg_ScriptMsg@@IAEPAUsScrMsg@@XZ 10006af0 f   T2ScriptMsg.obj
 0001:00005b50       ?CreateScrMsg@CNetMsg_ScriptMsg@@IAEPAUsScrMsg@@XZ 10006b50 f   T2ScriptMsg.obj
 0001:00005ba0       ?ScriptMessageCreate@CNetMsg_ScriptMsg@@QAEPAUsScrMsg@@XZ 10006ba0 f   T2ScriptMsg.obj
 0001:00005bd0       ?GetInt@CEControl@EngCtrls@@UAEHXZ 10006bd0 f i ConnectDialog.obj
 0001:00005bf0       ?OnInitDialog@CConnectDialog@@QAEXPAUHWND__@@@Z 10006bf0 f   ConnectDialog.obj
 0001:00005c70       ?SaveSettings@CConnectDialog@@QAEXXZ 10006c70 f   ConnectDialog.obj
 0001:00005d00       ??0CConnectDialog@@QAE@XZ  10006d00 f   ConnectDialog.obj
 0001:00005d50       ?DialogProc@CConnectDialog@@QAGHPAUHWND__@@IIJ@Z 10006d50 f   ConnectDialog.obj
 0001:00005e80       ?OnConnect@CConnectDialog@@QAEXXZ 10006e80 f   ConnectDialog.obj
 0001:00005ee0       ?StaticDialogProc@CConnectDialog@@SGHPAUHWND__@@IIJ@Z 10006ee0 f   ConnectDialog.obj
 0001:00005f10       ?DisplayPage@CConnectDialog@@QAEXXZ 10006f10 f   ConnectDialog.obj
 0001:00006010       ??0HistoryItem@@QAE@PBD@Z  10007010 f i ConsoleGUI.obj
 0001:00006060       ??_EHistoryItem@@UAEPAXI@Z 10007060 f i ConsoleGUI.obj
 0001:00006060       ??_GHistoryItem@@UAEPAXI@Z 10007060 f i ConsoleGUI.obj
 0001:00006090       ?FindCommand@CConsoleBase@@QAEHPBD@Z 10007090 f   ConsoleGUI.obj
 0001:00006110       ?OnInit@CConsoleBase@@UAEXXZ 10007110 f   ConsoleGUI.obj
 0001:00006130       ?SetWindowTitle@CConsoleBase@@QAEXPBD@Z 10007130 f   ConsoleGUI.obj
 0001:00006150       ?SetCommands@CConsoleBase@@QAEXPAUConsoleCommand@@H@Z 10007150 f   ConsoleGUI.obj
 0001:00006170       ?SetAcceleratorTable@CConsoleBase@@QAEXH@Z 10007170 f   ConsoleGUI.obj
 0001:000061b0       ?ExecuteCommand@CConsoleBase@@QAEXHPBD@Z 100071b0 f   ConsoleGUI.obj
 0001:000062c0       ?ExecuteRaw@CConsoleBase@@QAE_NPAD@Z 100072c0 f   ConsoleGUI.obj
 0001:00006310       ?Update@CConsoleBase@@QAEXXZ 10007310 f   ConsoleGUI.obj
 0001:00006400       ?PostMessageA@CConsoleBase@@QAEXPBD@Z 10007400 f   ConsoleGUI.obj
 0001:00006450       ?_Buynode@?$list@PAVCServerListEntry@@V?$allocator@PAVCServerListEntry@@@std@@@std@@IAEPAU_Node@?$_List_nod@PAVCServerListEntry@@V?$allocator@PAVCServerListEntry@@@std@@@2@PAU342@0ABQAVCServerListEntry@@@Z 10007450 f i ServerList.obj
 0001:00006450       ?_Buynode@?$list@PAVConfigVar@@V?$allocator@PAVConfigVar@@@std@@@std@@IAEPAU_Node@?$_List_nod@PAVConfigVar@@V?$allocator@PAVConfigVar@@@std@@@2@PAU342@0ABQAVConfigVar@@@Z 10007450 f i Engine:ConfigManager.obj
 0001:00006450       ?_Buynode@?$list@PAVHistoryItem@@V?$allocator@PAVHistoryItem@@@std@@@std@@IAEPAU_Node@?$_List_nod@PAVHistoryItem@@V?$allocator@PAVHistoryItem@@@std@@@2@PAU342@0ABQAVHistoryItem@@@Z 10007450 f i ConsoleGUI.obj
 0001:00006450       ?_Buynode@?$list@PAVMessage@@V?$allocator@PAVMessage@@@std@@@std@@IAEPAU_Node@?$_List_nod@PAVMessage@@V?$allocator@PAVMessage@@@std@@@2@PAU342@0ABQAVMessage@@@Z 10007450 f i MessageManager.obj
 0001:00006480       ?_Incsize@?$list@PAVHistoryItem@@V?$allocator@PAVHistoryItem@@@std@@@std@@IAEXI@Z 10007480 f i ConsoleGUI.obj
 0001:00006520       ?Advance@HistoryManager@@QAEX_N@Z 10007520 f   ConsoleGUI.obj
 0001:00006580       ??1?$list@PAVMessage@@V?$allocator@PAVMessage@@@std@@@std@@QAE@XZ 10007580 f i MessageManager.obj
 0001:00006580       ??1?$list@PAVHistoryItem@@V?$allocator@PAVHistoryItem@@@std@@@std@@QAE@XZ 10007580 f i ConsoleGUI.obj
 0001:000065a0       ?OnDownKey@CConsoleBase@@UAEXXZ 100075a0 f   ConsoleGUI.obj
 0001:000065e0       ??1HistoryManager@@QAE@XZ  100075e0 f   ConsoleGUI.obj
 0001:00006680       ??0CConsoleBase@@QAE@PAUHINSTANCE__@@HHHP6GHPAUHWND__@@IIJ@Z@Z 10007680 f   ConsoleGUI.obj
 0001:000067b0       ??1CConsoleBase@@UAE@XZ    100077b0 f   ConsoleGUI.obj
 0001:00006810       ?OnUpKey@CConsoleBase@@UAEXXZ 10007810 f   ConsoleGUI.obj
 0001:00006870       ?AddLine@HistoryManager@@QAEXPBD@Z 10007870 f   ConsoleGUI.obj
 0001:00006930       ??_ECConsoleBase@@UAEPAXI@Z 10007930 f i ConsoleGUI.obj
 0001:00006930       ??_GCConsoleBase@@UAEPAXI@Z 10007930 f i ConsoleGUI.obj
 0001:00006950       ?OnEnterKey@CConsoleBase@@UAEXXZ 10007950 f   ConsoleGUI.obj
 0001:000069f0       ??0CThiefConsole@@QAE@PAUHINSTANCE__@@HHHP6GHPAUHWND__@@IIJ@Z@Z 100079f0 f i DarkWinGui.obj
 0001:00006a30       ?Startup@InterfaceManager@@UAEXXZ 10007a30 f   DarkWinGui.obj
 0001:00006a40       ?Shutdown@InterfaceManager@@UAEXXZ 10007a40 f   DarkWinGui.obj
 0001:00006a80       ?Update@InterfaceManager@@UAEXXZ 10007a80 f   DarkWinGui.obj
 0001:00006a90       ?PromptDisconnect@@YAHXZ   10007a90 f   DarkWinGui.obj
 0001:00006ab0       ?WinGuiTerm@@YAXXZ         10007ab0 f   DarkWinGui.obj
 0001:00006ae0       ??_ECThiefConsole@@UAEPAXI@Z 10007ae0 f i DarkWinGui.obj
 0001:00006ae0       ??_GCThiefConsole@@UAEPAXI@Z 10007ae0 f i DarkWinGui.obj
 0001:00006b00       ??1CThiefConsole@@UAE@XZ   10007b00 f i DarkWinGui.obj
 0001:00006b10       ?DialogProc@CThiefConsole@@QAGHPAUHWND__@@IIJ@Z 10007b10 f   DarkWinGui.obj
 0001:00007010       ?WinGuiInit@@YAXXZ         10008010 f   DarkWinGui.obj
 0001:00007070       ??_GInterfaceManager@@UAEPAXI@Z 10008070 f i DarkWinGui.obj
 0001:00007070       ??_EInterfaceManager@@UAEPAXI@Z 10008070 f i DarkWinGui.obj
 0001:000070d0       ?StaticDialogProc@CThiefConsole@@SGHPAUHWND__@@IIJ@Z 100080d0 f   DarkWinGui.obj
 0001:00007110       ?CreateChildWindow@InterfaceManager@@UAEXH@Z 10008110 f   DarkWinGui.obj
 0001:00007420       ?DbgMenuToggleEcho@@YAXXZ  10008420 f   DbgMenu.obj
 0001:00007430       ?EnableDebugMenuItems@@YAXPAUHMENU__@@@Z 10008430 f   DbgMenu.obj
 0001:00007590       ?Enable@CEEditBox@EngCtrls@@QAE_N_N@Z 10008590 f i HostDialog.obj
 0001:000075b0       ?InitControlStates@CHostDialog@@QAEXXZ 100085b0 f   HostDialog.obj
 0001:00007840       ?SaveSettings@CHostDialog@@QAEXXZ 10008840 f   HostDialog.obj
 0001:00007bc0       ??1?$IPtr@UIStructDescTools@@@@QAE@XZ 10008bc0 f i HostDialog.obj
 0001:00007bc0       ??1?$IPtr@UIResMan@@@@QAE@XZ 10008bc0 f i DarkUIUtils.obj
 0001:00007bc0       ??1?$IPtr@UIQuestData@@@@QAE@XZ 10008bc0 f i Commands.obj
 0001:00007bc0       ??1?$IPtr@UIAINetManager@@@@QAE@XZ 10008bc0 f i ClientPacketHandler.obj
 0001:00007bc0       ??1?$IPtr@UIGameStrings@@@@QAE@XZ 10008bc0 f i HostDialog.obj
 0001:00007bd0       ??0CHostDialog@@QAE@XZ     10008bd0 f   HostDialog.obj
 0001:00007c90       ?OnHost@CHostDialog@@QAEXXZ 10008c90 f   HostDialog.obj
 0001:00007d00       ?GetMissionFlags@CHostDialog@@QAEKH@Z 10008d00 f   HostDialog.obj
 0001:00007e00       ?InitButtons@CHostDialog@@QAEXXZ 10008e00 f   HostDialog.obj
 0001:00008150       ?DialogProc@CHostDialog@@QAGHPAUHWND__@@IIJ@Z 10009150 f   HostDialog.obj
 0001:00008310       ?StaticDialogProc@CHostDialog@@SGHPAUHWND__@@IIJ@Z 10009310 f   HostDialog.obj
 0001:00008340       ?DisplayPage@CHostDialog@@QAEXXZ 10009340 f   HostDialog.obj
 0001:00008400       ?OnInitDialog@CMissionSelectDialog@@QAEXPAUHWND__@@@Z 10009400 f   MissSelect.obj
 0001:00008510       ?DialogProc@CMissionSelectDialog@@QAGHPAUHWND__@@IIJ@Z 10009510 f   MissSelect.obj
 0001:000085b0       ?StaticDialogProc@CMissionSelectDialog@@SGHPAUHWND__@@IIJ@Z 100095b0 f   MissSelect.obj
 0001:000085e0       ?DisplayPage@CMissionSelectDialog@@QAEXXZ 100095e0 f   MissSelect.obj
 0001:00008670       ??0CPasswordDialog@@QAE@XZ 10009670 f   PasswordDialog.obj
 0001:00008690       ?DialogProc@CPasswordDialog@@QAGHPAUHWND__@@IIJ@Z 10009690 f   PasswordDialog.obj
 0001:00008730       ?StaticDialogProc@CPasswordDialog@@SGHPAUHWND__@@IIJ@Z 10009730 f   PasswordDialog.obj
 0001:00008760       ?DisplayPage@CPasswordDialog@@QAEXXZ 10009760 f   PasswordDialog.obj
 0001:000087f0       ?InitButtons@CPlayerSettingsDialog@@QAEXXZ 100097f0 f   PlayerSettings.obj
 0001:00008880       ?InitControlStates@CPlayerSettingsDialog@@QAEXXZ 10009880 f   PlayerSettings.obj
 0001:000088f0       ?SaveSettings@CPlayerSettingsDialog@@QAEXXZ 100098f0 f   PlayerSettings.obj
 0001:00008990       ?DialogProc@CPlayerSettingsDialog@@QAGHPAUHWND__@@IIJ@Z 10009990 f   PlayerSettings.obj
 0001:00008a30       ?StaticDialogProc@CPlayerSettingsDialog@@SGHPAUHWND__@@IIJ@Z 10009a30 f   PlayerSettings.obj
 0001:00008a60       ?DisplayPage@CPlayerSettingsDialog@@QAEXXZ 10009a60 f   PlayerSettings.obj
 0001:00008ac0       ?EquipAIWeaponHook@@YGHHKK@Z 10009ac0 f   AI.obj
 0001:00008b00       ?OnIsValidTarget@@YGHH@Z   10009b00 f   AI.obj
 0001:00008b60       ?DarkChatTerm@@YAXXZ       10009b60 f   Chat.obj
 0001:00008b90       ?ChatboxIsOpen@@YA_NXZ     10009b90 f   Chat.obj
 0001:00008ba0       ?ChatboxOpen@@YAXXZ        10009ba0 f   Chat.obj
 0001:00008c20       ?ChatboxClose@@YAXPAU_LGadTextBox@@@Z 10009c20 f   Chat.obj
 0001:00008cb0       ?ChatboxCallback@@YAXPAU_LGadTextBox@@W4_LGadTextBoxEvent@@HPAX@Z 10009cb0 f   Chat.obj
 0001:00008d40       ?DarkChatInit@@YAXXZ       10009d40 f   Chat.obj
 0001:00008dd0       ?LoadMission@CClient@@QAEXH@Z 10009dd0 f   Client.obj
 0001:00008e00       ?MissionStarted@CClient@@QAE_NXZ 10009e00 f   Client.obj
 0001:00008e10       ?IsSimRunning@CClient@@QAE_NXZ 10009e10 f   Client.obj
 0001:00008e20       ?SetSimRunning@CClient@@QAEX_N@Z 10009e20 f   Client.obj
 0001:00008e30       ?GetTimeRemaining@CClient@@QAEMXZ 10009e30 f   Client.obj
 0001:00008e40       ?SetTimeRemaining@CClient@@QAEXM@Z 10009e40 f   Client.obj
 0001:00008e60       ?IsTimeLimitSet@CClient@@QAE_NXZ 10009e60 f   Client.obj
 0001:00008e80       ?GameIsEnding@CClient@@QAE_NXZ 10009e80 f   Client.obj
 0001:00008ea0       ?StartEndGameTimer@CClient@@QAEXMW4EndReason@@@Z 10009ea0 f   Client.obj
 0001:00008f00       ?EventHandler@CClient@@UAEXHPAX@Z 10009f00 f   Client.obj
 0001:00008f10       ?DrawPlayerNames@CClient@@QAEXXZ 10009f10 f   Client.obj
 0001:00008fb0       ?DebugDrawVisibility@CClient@@QAEXXZ 10009fb0 f   Client.obj
 0001:000090c0       ?DebugDrawNetStats@CClient@@QAEXXZ 1000a0c0 f   Client.obj
 0001:000091f0       ?DebugDrawMiscStats@CClient@@QAEXXZ 1000a1f0 f   Client.obj
 0001:00009350       ?RenderOverlays@CClient@@QAEXXZ 1000a350 f   Client.obj
 0001:00009390       ?OnPlayerCreate@CClient@@SAXXZ 1000a390 f   Client.obj
 0001:000093c0       ?OnJump@CClient@@SAHXZ     1000a3c0 f   Client.obj
 0001:000093f0       ?OnLoadWorld@CClient@@QAEXXZ 1000a3f0 f   Client.obj
 0001:00009470       ?IsClient@CClient@@QAE_NXZ 1000a470 f   Client.obj
 0001:000094a0       ?UpdateTransparency@CClient@@QAEXXZ 1000a4a0 f   Client.obj
 0001:00009610       ?OnDeath@CClient@@QAEXXZ   1000a610 f   Client.obj
 0001:000096f0       ?RespawnPlayer@CClient@@QAEXXZ 1000a6f0 f   Client.obj
 0001:000097e0       ?Update@CClient@@QAEXXZ    1000a7e0 f   Client.obj
 0001:00009960       ?StaticOnDeath@CClient@@SAXXZ 1000a960 f   Client.obj
 0001:00009970       ?StartGameModeCallback@CClient@@SGXK@Z 1000a970 f   Client.obj
 0001:00009a30       ?HandleMissionEnd@PacketHandler@@IAEXXZ 1000aa30 f   ClientPacketHandler.obj
 0001:00009a60       ?HandleLoadGame@PacketHandler@@IAEXXZ 1000aa60 f   ClientPacketHandler.obj
 0001:00009aa0       ?HandleSaveGame@PacketHandler@@IAEXXZ 1000aaa0 f   ClientPacketHandler.obj
 0001:00009ae0       ?HandleObjectData@PacketHandler@@IAEXXZ 1000aae0 f   ClientPacketHandler.obj
 0001:00009c40       ?HandleFrobObject@PacketHandler@@IAEXXZ 1000ac40 f   ClientPacketHandler.obj
 0001:00009ce0       ?HandleGiveObj@PacketHandler@@IAEXXZ 1000ace0 f   ClientPacketHandler.obj
 0001:00009de0       ?HandleAddLoot@PacketHandler@@IAEXXZ 1000ade0 f   ClientPacketHandler.obj
 0001:0000a030       ?HandleSetWeapon@PacketHandler@@IAEXXZ 1000b030 f   ClientPacketHandler.obj
 0001:0000a090       ?HandleMissionStart@PacketHandler@@IAEXXZ 1000b090 f   ClientPacketHandler.obj
 0001:0000a190       ?HandleChat@PacketHandler@@IAEXXZ 1000b190 f   ClientPacketHandler.obj
 0001:0000a310       ?HandleCrcRequest@PacketHandler@@IAEXXZ 1000b310 f   ClientPacketHandler.obj
 0001:0000a420       ?HandleCrcResponse@PacketHandler@@IAEXXZ 1000b420 f   ClientPacketHandler.obj
 0001:0000a5e0       ?HandlePlayerDeath@PacketHandler@@IAEXXZ 1000b5e0 f   ClientPacketHandler.obj
 0001:0000a6b0       ?HandleSpeechHalt@PacketHandler@@IAEXXZ 1000b6b0 f   ClientPacketHandler.obj
 0001:0000a730       ?HandleSpeech@PacketHandler@@IAEXXZ 1000b730 f   ClientPacketHandler.obj
 0001:0000a950       ?HandleGenericReaction@PacketHandler@@IAEXXZ 1000b950 f   ClientPacketHandler.obj
 0001:0000ab30       ?HandleTransferAI@PacketHandler@@IAEXXZ 1000bb30 f   ClientPacketHandler.obj
 0001:0000ac50       ?HandleObjectDamaged@PacketHandler@@IAEXXZ 1000bc50 f   ClientPacketHandler.obj
 0001:0000ad00       ?HandleSnapshotRequest@PacketHandler@@IAEXXZ 1000bd00 f   ClientPacketHandler.obj
 0001:0000ad50       ?HandleCreatePlayer@PacketHandler@@IAEXXZ 1000bd50 f   ClientPacketHandler.obj
 0001:0000b020       ?HandleScriptMsg@PacketHandler@@IAEXXZ 1000c020 f   ClientPacketHandler.obj
 0001:0000b0b0       ?OnPollNetwork@PacketHandler@@QAEXXZ 1000c0b0 f   ClientPacketHandler.obj
 0001:0000b2c0       ?OnLoopMsg@HookLoading@@YIXPAVcLoading@@HHPAUtLoopMessageData__@@@Z 1000c2c0 f   ClientSynch.obj
 0001:0000b4f0       ?DoFileLoad@HookLoading@@YIXPAVcLoading@@HPAUITagFile@@@Z 1000c4f0 f   ClientSynch.obj
 0001:0000b520       ?OnLoopMsg@HookLoadingSaveGame@@YIXPAVcLoadingSaveGame@@HHPAUtLoopMessageData__@@@Z 1000c520 f   ClientSynch.obj
 0001:0000b5c0       ?ApplySettings@Config@@YAXXZ 1000c5c0 f   Config.obj
 0001:0000b610       ?GetSettings@Config@@YAXXZ 1000c610 f   Config.obj
 0001:0000bc10       ?Reload@Config@@YAXXZ      1000cc10 f   Config.obj
 0001:0000bc30       ?ConfigInit@@YAXXZ         1000cc30 f   Config.obj
 0001:0000bc50       ?ConPrintF@@YAXPBDZZ       1000cc50 f   Console.obj
 0001:0000bd10       ?ConPrintEchoF@@YAXPBDZZ   1000cd10 f   Console.obj
 0001:0000bdb0       ?CmdAIPrediction@@YAXXZ    1000cdb0 f   Console.obj
 0001:0000bdc0       ?CmdClear@@YAXXZ           1000cdc0 f   Console.obj
 0001:0000bdd0       ?CmdNetStats@@YAXXZ        1000cdd0 f   Console.obj
 0001:0000bde0       ?CmdVisStats@@YAXXZ        1000cde0 f   Console.obj
 0001:0000bdf0       ?CmdObjPlayers@@YAXXZ      1000cdf0 f   Console.obj
 0001:0000be30       ?CmdSuicide@@YAXXZ         1000ce30 f   Console.obj
 0001:0000be40       ?CmdSimTime@@YAXXZ         1000ce40 f   Console.obj
 0001:0000be60       ?CmdSfxReset@@YAXXZ        1000ce60 f   Console.obj
 0001:0000be80       ?CmdReload@@YAXXZ          1000ce80 f   Console.obj
 0001:0000bea0       ?CmdTeleport@@YAXPAD@Z     1000cea0 f   Console.obj
 0001:0000c1b0       ?CmdTransMax@@YAXN@Z       1000d1b0 f   Console.obj
 0001:0000c1d0       ?CmdTransDistance@@YAXN@Z  1000d1d0 f   Console.obj
 0001:0000c1f0       ?CmdHelp@@YAXXZ            1000d1f0 f   Console.obj
 0001:0000c230       ?CmdObjHighlit@@YAXXZ      1000d230 f   Console.obj
 0001:0000c250       ?CmdTest@@YAXPAUsGhostRemote@@@Z 1000d250 f   Console.obj
 0001:0000c260       ?CmdObjectives@@YAXXZ      1000d260 f   Console.obj
 0001:0000c280       ?CmdNetState@@YAXXZ        1000d280 f   Console.obj
 0001:0000c2f0       ?CmdContainList@@YAXH@Z    1000d2f0 f   Console.obj
 0001:0000c370       ?CmdInvAdd@@YAXPBD@Z       1000d370 f   Console.obj
 0001:0000c3e0       ?CmdInvRem@@YAXH@Z         1000d3e0 f   Console.obj
 0001:0000c430       ?CmdSummonObj@@YAXPBD@Z    1000d430 f   Console.obj
 0001:0000c490       ?CmdObjDetails@@YAXH@Z     1000d490 f   Console.obj
 0001:0000c830       ?CmdObjID@@YAXPBD@Z        1000d830 f   Console.obj
 0001:0000c860       ?CmdQuestGet@@YAXPBD@Z     1000d860 f   Console.obj
 0001:0000c8d0       ?CmdGhostList@@YAXXZ       1000d8d0 f   Console.obj
 0001:0000c980       ?CmdFindAll@@YAXPBD@Z      1000d980 f   Console.obj
 0001:0000ca10       ?CmdOpen@@YAXXZ            1000da10 f   Console.obj
 0001:0000ca70       ?CmdShowPlayers@@YAXXZ     1000da70 f   Console.obj
 0001:0000caa0       ?InitNetCommands@@YAXXZ    1000daa0 f   Console.obj
 0001:0000cac0       ?MainMenuBlistHook@@YIXPAVcDarkPanel@@HGH@Z 1000dac0 f   DarkPanels.obj
 0001:0000cb60       ?DebriefBlistHook@@YIXPAVcDarkPanel@@HGH@Z 1000db60 f   DarkPanels.obj
 0001:0000cba0       ?SimMenuBlistHook@@YIXPAVcDarkPanel@@HGH@Z 1000dba0 f   DarkPanels.obj
 0001:0000cce0       ?DarkStatIntSet@@YAXPADH@Z 1000dce0 f   DarkStat.obj
 0001:0000cd60       ?DarkUIUtilsTerm@@YAXXZ    1000dd60 f   DarkUIUtils.obj
 0001:0000cd90       ?DarkUIUtilsInit@@YAXXZ    1000dd90 f   DarkUIUtils.obj
 0001:0000ce30       ?GetTextWidth@@YAMPAUgrs_font@@PBD@Z 1000de30 f   DarkUIUtils.obj
 0001:0000ce70       ?TextDraw@@YAXPAUgrs_font@@HPBDHH@Z 1000de70 f   DarkUIUtils.obj
 0001:0000ced0       ?TextDrawCentered@@YAXPAUgrs_font@@HPBDMM@Z 1000ded0 f   DarkUIUtils.obj
 0001:0000cf70       ?TextDraw@@YAXPAUgrs_font@@HPBDMM@Z 1000df70 f   DarkUIUtils.obj
 0001:0000cfc0       ?RestoreExceptionFilter@CDebugManager@@QAEXXZ 1000dfc0 f   Debug.obj
 0001:0000cfe0       ?SaveFlags@CDebugManager@@QAEXXZ 1000dfe0 f   Debug.obj
 0001:0000d020       ?ToggleFlag@CDebugManager@@QAEXI@Z 1000e020 f   Debug.obj
 0001:0000d030       ?ClearAllFlags@CDebugManager@@QAEXXZ 1000e030 f   Debug.obj
 0001:0000d040       ?ExceptFilter@CDebugManager@@KGJPAU_EXCEPTION_POINTERS@@@Z 1000e040 f   Debug.obj
 0001:0000d060       ?DebugInit@@YAXXZ          1000e060 f   Debug.obj
 0001:0000d0a0       ?SetExceptionFilter@CDebugManager@@QAEXXZ 1000e0a0 f   Debug.obj
 0001:0000d0c0       ?Difficulty_OnMeleeAttack@@YAXXZ 1000e0c0 f   Difficulty.obj
 0001:0000d0f0       ?Difficulty_GetAIAwarenessDelay@@YGHPAUIProperty@@HPAPAUsAIAwareDelay@@@Z 1000e0f0 f   Difficulty.obj
 0001:0000d1a0       ?Difficulty_SetAIAwarenessDelay@@YGHPAUIProperty@@HPAUsAIAwareDelay@@@Z 1000e1a0 f   Difficulty.obj
 0001:0000d1f0       ?AddRef@CDPWrapper@@UAGKXZ 1000e1f0 f   DP4Wrapper.obj
 0001:0000d220       ?Release@CDPWrapper@@UAGKXZ 1000e220 f   DP4Wrapper.obj
 0001:0000d250       ?QueryInterface@CDPWrapper@@UAGJABU_GUID@@PAPAX@Z 1000e250 f   DP4Wrapper.obj
 0001:0000d270       ?AddGroupToGroup@CDPWrapper@@UAGJKK@Z 1000e270 f   DP4Wrapper.obj
 0001:0000d290       ?AddPlayerToGroup@CDPWrapper@@UAGJKK@Z 1000e290 f   DP4Wrapper.obj
 0001:0000d2b0       ?CancelMessage@CDPWrapper@@UAGJKK@Z 1000e2b0 f   DP4Wrapper.obj
 0001:0000d2d0       ?CancelPriority@CDPWrapper@@UAGJKKK@Z 1000e2d0 f   DP4Wrapper.obj
 0001:0000d2f0       ?Close@CDPWrapper@@UAGJXZ  1000e2f0 f   DP4Wrapper.obj
 0001:0000d320       ?CreateGroup@CDPWrapper@@UAGJPAKPAUDPNAME@@PAXKK@Z 1000e320 f   DP4Wrapper.obj
 0001:0000d340       ?CreateGroupInGroup@CDPWrapper@@UAGJKPAKPAUDPNAME@@PAXKK@Z 1000e340 f   DP4Wrapper.obj
 0001:0000d360       ?CreatePlayer@CDPWrapper@@UAGJPAKPAUDPNAME@@PAX2KK@Z 1000e360 f   DP4Wrapper.obj
 0001:0000d400       ?DeleteGroupFromGroup@CDPWrapper@@UAGJKK@Z 1000e400 f   DP4Wrapper.obj
 0001:0000d420       ?DeletePlayerFromGroup@CDPWrapper@@UAGJKK@Z 1000e420 f   DP4Wrapper.obj
 0001:0000d440       ?DestroyGroup@CDPWrapper@@UAGJK@Z 1000e440 f   DP4Wrapper.obj
 0001:0000d460       ?DestroyPlayer@CDPWrapper@@UAGJK@Z 1000e460 f   DP4Wrapper.obj
 0001:0000d470       ?EnumConnections@CDPWrapper@@UAGJPBU_GUID@@P6GH0PAXKPBUDPNAME@@K1@Z1K@Z 1000e470 f   DP4Wrapper.obj
 0001:0000d490       ?EnumGroupPlayers@CDPWrapper@@UAGJKPAU_GUID@@P6GHKKPBUDPNAME@@KPAX@Z2K@Z 1000e490 f   DP4Wrapper.obj
 0001:0000d4b0       ?EnumGroups@CDPWrapper@@UAGJPAU_GUID@@P6GHKKPBUDPNAME@@KPAX@Z2K@Z 1000e4b0 f   DP4Wrapper.obj
 0001:0000d4d0       ?EnumGroupsInGroup@CDPWrapper@@UAGJKPAU_GUID@@P6GHKKPBUDPNAME@@KPAX@Z2K@Z 1000e4d0 f   DP4Wrapper.obj
 0001:0000d4f0       ?EnumPlayers@CDPWrapper@@UAGJPAU_GUID@@P6GHKKPBUDPNAME@@KPAX@Z2K@Z 1000e4f0 f   DP4Wrapper.obj
 0001:0000d690       ?EnumSessions@CDPWrapper@@UAGJPAUDPSESSIONDESC2@@KP6GHPBU2@PAKKPAX@Z3K@Z 1000e690 f   DP4Wrapper.obj
 0001:0000d6a0       ?GetCaps@CDPWrapper@@UAGJPAUDPCAPS@@K@Z 1000e6a0 f   DP4Wrapper.obj
 0001:0000d6c0       ?GetGroupConnectionSettings@CDPWrapper@@UAGJKKPAXPAK@Z 1000e6c0 f   DP4Wrapper.obj
 0001:0000d6e0       ?GetGroupData@CDPWrapper@@UAGJKPAXPAKK@Z 1000e6e0 f   DP4Wrapper.obj
 0001:0000d700       ?GetGroupFlags@CDPWrapper@@UAGJKPAK@Z 1000e700 f   DP4Wrapper.obj
 0001:0000d720       ?GetGroupName@CDPWrapper@@UAGJKPAXPAK@Z 1000e720 f   DP4Wrapper.obj
 0001:0000d740       ?GetGroupOwner@CDPWrapper@@UAGJKPAK@Z 1000e740 f   DP4Wrapper.obj
 0001:0000d760       ?GetGroupParent@CDPWrapper@@UAGJKPAK@Z 1000e760 f   DP4Wrapper.obj
 0001:0000d780       ?GetMessageCount@CDPWrapper@@UAGJKPAK@Z 1000e780 f   DP4Wrapper.obj
 0001:0000d7a0       ?GetMessageQueue@CDPWrapper@@UAGJKKKPAK0@Z 1000e7a0 f   DP4Wrapper.obj
 0001:0000d7c0       ?GetPlayerAccount@CDPWrapper@@UAGJKKPAXPAK@Z 1000e7c0 f   DP4Wrapper.obj
 0001:0000d7e0       ?GetPlayerAddress@CDPWrapper@@UAGJKPAXPAK@Z 1000e7e0 f   DP4Wrapper.obj
 0001:0000d7f0       ?GetPlayerCaps@CDPWrapper@@UAGJKPAUDPCAPS@@K@Z 1000e7f0 f   DP4Wrapper.obj
 0001:0000d810       ?GetPlayerFlags@CDPWrapper@@UAGJKPAK@Z 1000e810 f   DP4Wrapper.obj
 0001:0000d830       ?GetPlayerName@CDPWrapper@@UAGJKPAXPAK@Z 1000e830 f   DP4Wrapper.obj
 0001:0000d850       ?GetSessionDesc@CDPWrapper@@UAGJPAXPAK@Z 1000e850 f   DP4Wrapper.obj
 0001:0000d870       ?Initialize@CDPWrapper@@UAGJPAU_GUID@@@Z 1000e870 f   DP4Wrapper.obj
 0001:0000d890       ?InitializeConnection@CDPWrapper@@UAGJPAXK@Z 1000e890 f   DP4Wrapper.obj
 0001:0000d8a0       ?Open@CDPWrapper@@UAGJPAUDPSESSIONDESC2@@K@Z 1000e8a0 f   DP4Wrapper.obj
 0001:0000d950       ?SecureOpen@CDPWrapper@@UAGJPBUDPSESSIONDESC2@@KPBUDPSECURITYDESC@@PBUDPCREDENTIALS@@@Z 1000e950 f   DP4Wrapper.obj
 0001:0000d970       ?Send@CDPWrapper@@UAGJKKKPAXK@Z 1000e970 f   DP4Wrapper.obj
 0001:0000d990       ?SendChatMessage@CDPWrapper@@UAGJKKKPAUDPCHAT@@@Z 1000e990 f   DP4Wrapper.obj
 0001:0000d9b0       ?SendEx@CDPWrapper@@UAGJKKKPAXKKK0PAK@Z 1000e9b0 f   DP4Wrapper.obj
 0001:0000d9e0       ?SetGroupConnectionSettings@CDPWrapper@@UAGJKKPAUDPLCONNECTION@@@Z 1000e9e0 f   DP4Wrapper.obj
 0001:0000da00       ?SetGroupData@CDPWrapper@@UAGJKPAXKK@Z 1000ea00 f   DP4Wrapper.obj
 0001:0000da20       ?SetGroupName@CDPWrapper@@UAGJKPAUDPNAME@@K@Z 1000ea20 f   DP4Wrapper.obj
 0001:0000da40       ?SetGroupOwner@CDPWrapper@@UAGJKK@Z 1000ea40 f   DP4Wrapper.obj
 0001:0000da60       ?SetPlayerName@CDPWrapper@@UAGJKPAUDPNAME@@K@Z 1000ea60 f   DP4Wrapper.obj
 0001:0000da80       ?SetSessionDesc@CDPWrapper@@UAGJPAUDPSESSIONDESC2@@K@Z 1000ea80 f   DP4Wrapper.obj
 0001:0000daa0       ?StartSession@CDPWrapper@@UAGJKK@Z 1000eaa0 f   DP4Wrapper.obj
 0001:0000dac0       ?WrapperTerm@@YAXXZ        1000eac0 f   DP4Wrapper.obj
 0001:0000dad0       ?Receive@CDPWrapper@@UAGJPAK0KPAX0@Z 1000ead0 f   DP4Wrapper.obj
 0001:0000dc10       ?FakeCoCreateInstance@@YGJABU_GUID@@PAUIUnknown@@K0PAPAX@Z 1000ec10 f   DP4Wrapper.obj
 0001:0000dca0       ?GetPlayerData@CDPWrapper@@UAGJKPAXPAKK@Z 1000eca0 f   DP4Wrapper.obj
 0001:0000dd30       ?SetPlayerData@CDPWrapper@@UAGJKPAXKK@Z 1000ed30 f   DP4Wrapper.obj
 0001:0000ddc0       ?DoResize@cDABaseSrvFns@@SAHPAPAXII@Z 1000edc0 f   DynArray.obj
 0001:0000de40       ?CollisionResolverHook@@YGXPBUtSpringInfo@@K@Z 1000ee40 f   ErrorHanding.obj
 0001:0000dec0       ?ObjectAnglesFuncHook@@YAXH@Z 1000eec0 f   ErrorHanding.obj
 0001:0000def0       ?LoopSampleCallbackHook@@YAXKH@Z 1000eef0 f   ErrorHanding.obj
 0001:0000df80       ?PropSndEnterCBHook@@YIHPAVcPropSndInstHigh@@HPBVcRoom@@PBVcRoomPortal@@ABUmxs_vector@@M@Z 1000ef80 f   ErrorHanding.obj
 0001:0000e040       ?SpeechEndCallbackHook@@YAXHHH@Z 1000f040 f   ErrorHanding.obj
 0001:0000e0e0       ?mx_sub_vec_safe@@YAXPAUmxs_vector@@PBU1@1@Z 1000f0e0 f   ErrorHanding.obj
 0001:0000e150       ?mx_dist_vec_safe@@YAMPAUmxs_vector@@0@Z 1000f150 f   ErrorHanding.obj
 0001:0000e1c0       ?CellBinComputeFuncHook@@YAHHKK@Z 1000f1c0 f   ErrorHanding.obj
 0001:0000e200       ?OnCollideEvent@@YGHHHHMPAVcPhysClsn@@@Z 1000f200 f   ErrorHanding.obj
 0001:0000e270       ?ValidateScriptModules@@YAXXZ 1000f270 f   FileHash.obj
 0001:0000e300       ?GetGamesysCrc@CGamesysManager@@QAEKXZ 1000f300 f   Gamesys.obj
 0001:0000e310       ?EventHandler@CGamesysManager@@UAEXHPAX@Z 1000f310 f   Gamesys.obj
 0001:0000e330       ?GamesysInit@@YAXXZ        1000f330 f   Gamesys.obj
 0001:0000e340       ?GamesysTerm@@YAXXZ        1000f340 f   Gamesys.obj
 0001:0000e350       ?Clear@?$SimpleQueue@D@@QAEXXZ 1000f350 f i ConsoleGUI.obj
 0001:0000e350       ?Clear@?$SimpleQueue@UNetMessage@@@@QAEXXZ 1000f350 f i DarkPeer.obj
 0001:0000e350       ?Clear@?$SimpleQueue@H@@QAEXXZ 1000f350 f i Gamesys.obj
 0001:0000e390       ?_Max@?$_Tree@V?$_Tmap_traits@KPAUDP4Data@@U?$less@K@std@@V?$allocator@U?$pair@$$CBKPAUDP4Data@@@std@@@3@$0A@@std@@@std@@KAPAU_Node@?$_Tree_nod@V?$_Tmap_traits@KPAUDP4Data@@U?$less@K@std@@V?$allocator@U?$pair@$$CBKPAUDP4Data@@@std@@@3@$0A@@std@@@2@PAU342@@Z 1000f390 f i DarkPeer.obj
 0001:0000e390       ?_Max@?$_Tree@V?$_Tmap_traits@HHU?$less@H@std@@V?$allocator@U?$pair@$$CBHH@std@@@2@$0A@@std@@@std@@KAPAU_Node@?$_Tree_nod@V?$_Tmap_traits@HHU?$less@H@std@@V?$allocator@U?$pair@$$CBHH@std@@@2@$0A@@std@@@2@PAU342@@Z 1000f390 f i Gamesys.obj
 0001:0000e3b0       ?_Min@?$_Tree@V?$_Tmap_traits@KPAUDP4Data@@U?$less@K@std@@V?$allocator@U?$pair@$$CBKPAUDP4Data@@@std@@@3@$0A@@std@@@std@@KAPAU_Node@?$_Tree_nod@V?$_Tmap_traits@KPAUDP4Data@@U?$less@K@std@@V?$allocator@U?$pair@$$CBKPAUDP4Data@@@std@@@3@$0A@@std@@@2@PAU342@@Z 1000f3b0 f i DarkPeer.obj
 0001:0000e3b0       ?_Min@?$_Tree@V?$_Tmap_traits@HHU?$less@H@std@@V?$allocator@U?$pair@$$CBHH@std@@@2@$0A@@std@@@std@@KAPAU_Node@?$_Tree_nod@V?$_Tmap_traits@HHU?$less@H@std@@V?$allocator@U?$pair@$$CBHH@std@@@2@$0A@@std@@@2@PAU342@@Z 1000f3b0 f i Gamesys.obj
 0001:0000e3d0       ?_Dec@const_iterator@?$_Tree@V?$_Tmap_traits@KPAUDP4Data@@U?$less@K@std@@V?$allocator@U?$pair@$$CBKPAUDP4Data@@@std@@@3@$0A@@std@@@std@@QAEXXZ 1000f3d0 f i DarkPeer.obj
 0001:0000e3d0       ?_Dec@const_iterator@?$_Tree@V?$_Tmap_traits@HHU?$less@H@std@@V?$allocator@U?$pair@$$CBHH@std@@@2@$0A@@std@@@std@@QAEXXZ 1000f3d0 f i Gamesys.obj
 0001:0000e430       ?CacheArchetype@CGamesysManager@@QAEXAAHPBD@Z 1000f430 f   Gamesys.obj
 0001:0000e4a0       ?CreateNewArchetype@CGamesysManager@@QAEHHPBD@Z 1000f4a0 f   Gamesys.obj
 0001:0000e530       ?AvatarWeaponsTerm@CGamesysManager@@QAEXXZ 1000f530 f   Gamesys.obj
 0001:0000e5b0       ?FakeLootInit@CGamesysManager@@QAEXXZ 1000f5b0 f   Gamesys.obj
 0001:0000e620       ?CreateBaseAvatar@CGamesysManager@@QAEXXZ 1000f620 f   Gamesys.obj
 0001:0000e7c0       ?CreateDerivedAvatars@CGamesysManager@@QAEXXZ 1000f7c0 f   Gamesys.obj
 0001:0000e840       ?_Lrotate@?$_Tree@V?$_Tmap_traits@KPAUDP4Data@@U?$less@K@std@@V?$allocator@U?$pair@$$CBKPAUDP4Data@@@std@@@3@$0A@@std@@@std@@IAEXPAU_Node@?$_Tree_nod@V?$_Tmap_traits@KPAUDP4Data@@U?$less@K@std@@V?$allocator@U?$pair@$$CBKPAUDP4Data@@@std@@@3@$0A@@std@@@2@@Z 1000f840 f i DarkPeer.obj
 0001:0000e840       ?_Lrotate@?$_Tree@V?$_Tmap_traits@HHU?$less@H@std@@V?$allocator@U?$pair@$$CBHH@std@@@2@$0A@@std@@@std@@IAEXPAU_Node@?$_Tree_nod@V?$_Tmap_traits@HHU?$less@H@std@@V?$allocator@U?$pair@$$CBHH@std@@@2@$0A@@std@@@2@@Z 1000f840 f i Gamesys.obj
 0001:0000e8a0       ?_Rrotate@?$_Tree@V?$_Tmap_traits@KPAUDP4Data@@U?$less@K@std@@V?$allocator@U?$pair@$$CBKPAUDP4Data@@@std@@@3@$0A@@std@@@std@@IAEXPAU_Node@?$_Tree_nod@V?$_Tmap_traits@KPAUDP4Data@@U?$less@K@std@@V?$allocator@U?$pair@$$CBKPAUDP4Data@@@std@@@3@$0A@@std@@@2@@Z 1000f8a0 f i DarkPeer.obj
 0001:0000e8a0       ?_Rrotate@?$_Tree@V?$_Tmap_traits@HHU?$less@H@std@@V?$allocator@U?$pair@$$CBHH@std@@@2@$0A@@std@@@std@@IAEXPAU_Node@?$_Tree_nod@V?$_Tmap_traits@HHU?$less@H@std@@V?$allocator@U?$pair@$$CBHH@std@@@2@$0A@@std@@@2@@Z 1000f8a0 f i Gamesys.obj
 0001:0000e900       ?_Inc@const_iterator@?$_Tree@V?$_Tmap_traits@HHU?$less@H@std@@V?$allocator@U?$pair@$$CBHH@std@@@2@$0A@@std@@@std@@QAEXXZ 1000f900 f i Gamesys.obj
 0001:0000e900       ?_Inc@const_iterator@?$_Tree@V?$_Tmap_traits@KPAUDP4Data@@U?$less@K@std@@V?$allocator@U?$pair@$$CBKPAUDP4Data@@@std@@@3@$0A@@std@@@std@@QAEXXZ 1000f900 f i DarkPeer.obj
 0001:0000e960       ?AvatarWeaponsInit@CGamesysManager@@QAEXXZ 1000f960 f   Gamesys.obj
 0001:0000eb10       ?_Erase@?$_Tree@V?$_Tmap_traits@HHU?$less@H@std@@V?$allocator@U?$pair@$$CBHH@std@@@2@$0A@@std@@@std@@IAEXPAU_Node@?$_Tree_nod@V?$_Tmap_traits@HHU?$less@H@std@@V?$allocator@U?$pair@$$CBHH@std@@@2@$0A@@std@@@2@@Z 1000fb10 f i Gamesys.obj
 0001:0000eb50       ?find@?$_Tree@V?$_Tmap_traits@HHU?$less@H@std@@V?$allocator@U?$pair@$$CBHH@std@@@2@$0A@@std@@@std@@QAE?AViterator@12@ABH@Z 1000fb50 f i Gamesys.obj
 0001:0000ebc0       ?_Insert@?$_Tree@V?$_Tmap_traits@HHU?$less@H@std@@V?$allocator@U?$pair@$$CBHH@std@@@2@$0A@@std@@@std@@IAE?AViterator@12@_NPAU_Node@?$_Tree_nod@V?$_Tmap_traits@HHU?$less@H@std@@V?$allocator@U?$pair@$$CBHH@std@@@2@$0A@@std@@@2@ABU?$pair@$$CBHH@2@@Z 1000fbc0 f i Gamesys.obj
 0001:0000ed80       ?erase@?$_Tree@V?$_Tmap_traits@HHU?$less@H@std@@V?$allocator@U?$pair@$$CBHH@std@@@2@$0A@@std@@@std@@QAE?AViterator@12@V312@@Z 1000fd80 f i Gamesys.obj
 0001:0000f050       ?PickupToLocalProjectile@CGamesysManager@@QAEHH@Z 10010050 f   Gamesys.obj
 0001:0000f080       ?insert@?$_Tree@V?$_Tmap_traits@HHU?$less@H@std@@V?$allocator@U?$pair@$$CBHH@std@@@2@$0A@@std@@@std@@QAE?AU?$pair@Viterator@?$_Tree@V?$_Tmap_traits@HHU?$less@H@std@@V?$allocator@U?$pair@$$CBHH@std@@@2@$0A@@std@@@std@@_N@2@ABU?$pair@$$CBHH@2@@Z 10010080 f i Gamesys.obj
 0001:0000f140       ?erase@?$_Tree@V?$_Tmap_traits@HHU?$less@H@std@@V?$allocator@U?$pair@$$CBHH@std@@@2@$0A@@std@@@std@@QAE?AViterator@12@V312@0@Z 10010140 f i Gamesys.obj
 0001:0000f200       ?LocalToPickupProjectile@CGamesysManager@@QAEHH@Z 10010200 f   Gamesys.obj
 0001:0000f240       ?insert@?$_Tree@V?$_Tmap_traits@HHU?$less@H@std@@V?$allocator@U?$pair@$$CBHH@std@@@2@$0A@@std@@@std@@QAE?AViterator@12@V312@ABU?$pair@$$CBHH@2@@Z 10010240 f i Gamesys.obj
 0001:0000f3b0       ??A?$map@HHU?$less@H@std@@V?$allocator@U?$pair@$$CBHH@std@@@2@@std@@QAEAAHABH@Z 100103b0 f i Gamesys.obj
 0001:0000f430       ?CreateProjectilePickups@CGamesysManager@@QAEXXZ 10010430 f   Gamesys.obj
 0001:0000f630       ??0CGamesysManager@@QAE@XZ 10010630 f i Gamesys.obj
 0001:0000f680       ??1CGamesysManager@@QAE@XZ 10010680 f i Gamesys.obj
 0001:0000f6b0       ?InitializeArchCache@CGamesysManager@@QAEXK@Z 100106b0 f   Gamesys.obj
 0001:0000fde0       ?GhostHeartbeatFrequencyMax@@YAHPAUsGhostLocal@@PAUsGhostPos@@@Z 10010de0 f   Ghost.obj
 0001:0000fdf0       ?IsNewPacketNeededHook@@YGHPAUsGhostLocal@@PAUsGhostPos@@@Z 10010df0 f   Ghost.obj
 0001:0000fe60       ?OnGhostJumpOff@@YGXH@Z    10010e60 f   Ghost.obj
 0001:0000ff00       ?GhostAllowedToBuildModels@@YAHPAUsGhostRemote@@@Z 10010f00 f   Ghost.obj
 0001:0000ff40       ?UpdateGhostPrediction@@YAXPAUsGhostRemote@@M@Z 10010f40 f   Ghost.obj
 0001:0000ffb0       ?GhostPerFrameModeUpdate@@YA_NPAUsGhostRemote@@@Z 10010fb0 f   Ghost.obj
 0001:00010010       ?MocapRunMe@@YAXPAUsGhostRemote@@PAD@Z 10011010 f   Ghost.obj
 0001:00010070       ?_GhostConfigureRemoteModels@@YAXPAUsGhostRemote@@@Z 10011070 f   Ghost.obj
 0001:000100c0       ?GhostFrameProcessRemote@@YAXPAUsGhostRemote@@M@Z 100110c0 f   Ghost.obj
 0001:00010150       ?GhostAttachWeapon@@YAXHD@Z 10011150 f   Ghost.obj
 0001:00010300       ?IsUpdateNeeded@@YA_NH@Z   10011300 f   Ghost.obj
 0001:000103c0       ?GhostFrameProcessLocal@@YAXPAUsGhostLocal@@M@Z 100113c0 f   Ghost.obj
 0001:00010530       ?InitHook@@YAXXZ           10011530 f   Init.obj
 0001:00010560       ?InitGame@@YAXXZ           10011560 f   Init.obj
 0001:00010580       ?TermGame@@YAXXZ           10011580 f   Init.obj
 0001:000105a0       ?ShutdownHook@@YAXXZ       100115a0 f   Init.obj
 0001:000105c0       ?IsSimTimePassing@@YA_NXZ  100115c0 f   LG.obj
 0001:000105e0       ?ForceFinishBowAttack@@YAX_N@Z 100115e0 f   LG.obj
 0001:00010640       ?Append@cAnsiStr@@QAEXHPBD@Z 10011640 f   LG.obj
 0001:00010650       ?QueryInterface@IUnknownImpl@@EAGJABU_GUID@@PAPAX@Z 10011650 f   LG.obj
 0001:00010670       ?AddRef@IUnknownImpl@@EAGKXZ 10011670 f   LG.obj
 0001:00010680       ?Release@IUnknownImpl@@EAGKXZ 10011680 f   LG.obj
 0001:000106a0       ?PlayerNum@cAvatar@@UAGKXZ 100116a0 f   LG.obj
 0001:000106b0       ?PlayerObjID@cAvatar@@UAGHXZ 100116b0 f   LG.obj
 0001:000106c0       ?WriteTagInfo@cAvatar@@UAGXPAUITagFile@@@Z 100116c0 f   LG.obj
 0001:000106f0       ?DestroyArrowObject@@YAXXZ 100116f0 f   LG.obj
 0001:00010710       ?NewUpdateBowAttack@@YGXXZ 10011710 f   LG.obj
 0001:00010950       ?FreeStr@cAnsiStr@@QAEXPAD@Z 10011950 f   LG.obj
 0001:00010970       ??0cAvatar@@QAE@HK@Z       10011970 f   LG.obj
 0001:00010990       ?SimulationLoopHook@@YGHKW4eLoopMsgType@@PAUtLoopMessageData__@@@Z 10011990 f   LoopClients.obj
 0001:000109d0       ?RenderLoopHook@@YGHKW4eLoopMsgType@@PAUtLoopMessageData__@@@Z 100119d0 f   LoopClients.obj
 0001:00010ac0       ?SimLoopClientHook@@YGHKW4eLoopMsgType@@PAUtLoopMessageData__@@@Z 10011ac0 f   LoopClients.obj
 0001:00010b50       ?GameModeLoopClientHook@@YGHKW4eLoopMsgType@@PAUtLoopMessageData__@@@Z 10011b50 f   LoopClients.obj
 0001:00010bb0       ?ObjSysLoopClientHook@@YGHKW4eLoopMsgType@@PAUtLoopMessageData__@@@Z 10011bb0 f   LoopClients.obj
 0001:00010c30       _DllMain@12                10011c30 f   Main.obj
 0001:00010ca0       ?PumpEventsHook@@YGXPAKHW4eWinPumpDuration@@@Z 10011ca0 f   Main.obj
 0001:00010ce0       ??0Message@@QAE@PBDM@Z     10011ce0 f   MessageManager.obj
 0001:00010d40       ?Shutdown@MessageMgr@@SAXXZ 10011d40 f   MessageManager.obj
 0001:00010d60       ??_GMessage@@UAEPAXI@Z     10011d60 f i MessageManager.obj
 0001:00010d60       ??_EMessage@@UAEPAXI@Z     10011d60 f i MessageManager.obj
 0001:00010d90       ?DrawInput@MessageMgr@@QAEXXZ 10011d90 f   MessageManager.obj
 0001:00010f50       ?_Buynode@?$list@PAVCServerListEntry@@V?$allocator@PAVCServerListEntry@@@std@@@std@@IAEPAU_Node@?$_List_nod@PAVCServerListEntry@@V?$allocator@PAVCServerListEntry@@@std@@@2@XZ 10011f50 f i ServerBrowser.obj
 0001:00010f50       ?_Buynode@?$list@PAVConfigVar@@V?$allocator@PAVConfigVar@@@std@@@std@@IAEPAU_Node@?$_List_nod@PAVConfigVar@@V?$allocator@PAVConfigVar@@@std@@@2@XZ 10011f50 f i Engine:ConfigManager.obj
 0001:00010f50       ?_Buynode@?$list@PAVHistoryItem@@V?$allocator@PAVHistoryItem@@@std@@@std@@IAEPAU_Node@?$_List_nod@PAVHistoryItem@@V?$allocator@PAVHistoryItem@@@std@@@2@XZ 10011f50 f i ConsoleGUI.obj
 0001:00010f50       ?_Buynode@?$list@PAVMessage@@V?$allocator@PAVMessage@@@std@@@std@@IAEPAU_Node@?$_List_nod@PAVMessage@@V?$allocator@PAVMessage@@@std@@@2@XZ 10011f50 f i MessageManager.obj
 0001:00010f70       ?_Incsize@?$list@PAVMessage@@V?$allocator@PAVMessage@@@std@@@std@@IAEXI@Z 10011f70 f i MessageManager.obj
 0001:00011010       ?ClearMessages@MessageMgr@@QAEXXZ 10012010 f   MessageManager.obj
 0001:00011070       ??1MessageMgr@@UAE@XZ      10012070 f   MessageManager.obj
 0001:000110f0       ?DeleteTopmost@MessageMgr@@IAEXXZ 100120f0 f   MessageManager.obj
 0001:00011140       ?Update@MessageMgr@@QAEXXZ 10012140 f   MessageManager.obj
 0001:00011370       ??0MessageMgr@@QAE@XZ      10012370 f   MessageManager.obj
 0001:000113e0       ??_GMessageMgr@@UAEPAXI@Z  100123e0 f i MessageManager.obj
 0001:000113e0       ??_EMessageMgr@@UAEPAXI@Z  100123e0 f i MessageManager.obj
 0001:00011400       ?Get@MessageMgr@@SAPAV1@XZ 10012400 f   MessageManager.obj
 0001:00011470       ?AddLine@MessageMgr@@QAEX_NPBD@Z 10012470 f   MessageManager.obj
 0001:00011550       ?AddLineFormat@MessageMgr@@QAAX_NPBDZZ 10012550 f   MessageManager.obj
 0001:000115a0       ?PatchPropDescs@@YAXXZ     100125a0 f   NetProperties.obj
 0001:00011600       ?NetPropertiesInit@@YAXXZ  10012600 f   NetProperties.obj
 0001:00011620       ?NetPropertiesTerm@@YAXXZ  10012620 f   NetProperties.obj
 0001:00011630       ?GetNetworkedReaction@@YAPAUNetworkableReactionInfo@@K@Z 10012630 f   NetReactions.obj
 0001:00011680       ?PostReactionMessage@@YAXKPAUsReactionEvent@@PAUsReactionParam@@@Z 10012680 f   NetReactions.obj
 0001:00011780       ?FilterFrobObjectReactionHandler@@YGKPAUsReactionEvent@@PBUsReactionParam@@PAX@Z 10012780 f   NetReactions.obj
 0001:00011800       ?FilterKnockoutReaction@@YG_NKPAUsReactionEvent@@PBUsReactionParam@@PAX@Z 10012800 f   NetReactions.obj
 0001:000118c0       ?PatchVtable@@YAXHZZ       100128c0 f   Patcher.obj
 0001:000118e0       ?InstallCallbacks@@YAXXZ   100128e0 f   Patcher.obj
 0001:00011a80       ?PatcherInit@@YAXXZ        10012a80 f   Patcher.obj
 0001:00011ad0       ?PlayerCreateHook@@YAXHH@Z 10012ad0 f   Player.obj
 0001:00011ae0       ?ThrowCreatureHook@@YAXHHMKKKK@Z 10012ae0 f   Player.obj
 0001:00011b30       ?SendSetWeapon@@YAXH@Z     10012b30 f   Player.obj
 0001:00011bb0       ?EquipBowHook@@YGXHHH@Z    10012bb0 f   Player.obj
 0001:00011be0       ?UnEquipBowHook@@YGXH@Z    10012be0 f   Player.obj
 0001:00011c20       ?LaunchProjectileHook@@YAHHHMKKKK@Z 10012c20 f   Player.obj
 0001:00011d00       ??0sSimMsg@@QAE@XZ         10012d00 f i Player.obj
 0001:00011d20       ?ForceActivateLoadoutCache@@YAXH@Z 10012d20 f   Player.obj
 0001:00011d80       ?MPPlayerCreate@@YAXXZ     10012d80 f   Player.obj
 0001:00012010       ?SendLoadMsg@SaveManager@@QAEXXZ 10013010 f   SaveManager.obj
 0001:00012040       ?SendSaveMsg@SaveManager@@QAEXH@Z 10013040 f   SaveManager.obj
 0001:00012070       ?SetLastSlot@SaveManager@@QAEXH@Z 10013070 f   SaveManager.obj
 0001:00012080       ?DoNetworkLoad@SaveManager@@QAEXH@Z 10013080 f   SaveManager.obj
 0001:00012130       ?EventHandler@SaveManager@@UAEXHPAX@Z 10013130 f   SaveManager.obj
 0001:00012160       ?SaveManagerTerm@@YAXXZ    10013160 f   SaveManager.obj
 0001:00012180       ??_GSaveManager@@UAEPAXI@Z 10013180 f i SaveManager.obj
 0001:00012180       ??_ESaveManager@@UAEPAXI@Z 10013180 f i SaveManager.obj
 0001:000121b0       ?DoNetworkSave@SaveManager@@QAEXH@Z 100131b0 f   SaveManager.obj
 0001:000123a0       ?OnLoadRemoteGhosts@SaveManager@@IAEXPAVTagFileRead@@K@Z 100133a0 f   SaveManager.obj
 0001:00012410       ?OnSaveRemoteGhosts@SaveManager@@IAEXPAVTagFileWrite@@K@Z 10013410 f   SaveManager.obj
 0001:00012630       ?HookQuickSave@SaveManager@@SGXXZ 10013630 f   SaveManager.obj
 0001:00012690       ?HookQuickLoad@SaveManager@@SGXXZ 10013690 f   SaveManager.obj
 0001:000126d0       ?HookLoadRemoteGhosts@SaveManager@@SGXPAVTagFileRead@@K@Z 100136d0 f   SaveManager.obj
 0001:000126e0       ?HookSaveRemoteGhosts@SaveManager@@SAXPAVTagFileWrite@@K@Z 100136e0 f   SaveManager.obj
 0001:00012700       ?SaveManagerInit@@YAXXZ    10013700 f   SaveManager.obj
 0001:00012780       ?SchemaPlayAtObj@@YAXHH@Z  10013780 f   Sound.obj
 0001:000127d0       ?SchemaIDPlay@@YAPAUsSchemaPlay@@HPAUsSchemaCallParams@@PAX@Z 100137d0 f   Sound.obj
 0001:000128f0       ?NetSchemaPlaySample@@YAPAUsSchemaPlay@@HHPAUsSchemaCallParams@@PAX@Z 100138f0 f   Sound.obj
 0001:000129e0       ?DoEquipSound@@YAXPAUsGhostRemote@@@Z 100139e0 f   Sound.obj
 0001:00012a70       ?DoUnequipSound@@YAXPAUsGhostRemote@@@Z 10013a70 f   Sound.obj
 0001:00012b00       ?OnGenerateSoundVec@@YGHPAUmxs_vector@@HHPADMPAUsfx_parm@@HH@Z 10013b00 f   Sound.obj
 0001:00012bb0       ?OnGenerateSoundObj@@YGHHHPADMPAUsfx_parm@@HH@Z 10013bb0 f   Sound.obj
 0001:00012c70       ?OnGenerateSound@@YGHHPADPAUsfx_parm@@@Z 10013c70 f   Sound.obj
 0001:00012d10       ?OnSpeechHalt@@YAXH@Z      10013d10 f   Sound.obj
 0001:00012e20       ?SpeechBroadcast@@YAXAAVCNetMsg_AiSpeech@@@Z 10013e20 f   SpeechNet.obj
 0001:00012e40       ?GetAIVoice@@YAHH@Z        10013e40 f   SpeechNet.obj
 0001:00012eb0       ?PrintSpeechDebug@@YAXHHHHPBULabel@@_N@Z 10013eb0 f   SpeechNet.obj
 0001:00012f00       ?SpeechNetHandler@@YAXH_NPBUsSchemaCallParams@@@Z 10013f00 f   SpeechNet.obj
 0001:00013020       ?LogPrintCallback@@YAXPAX@Z 10014020 f   Tools.obj
 0001:00013030       ?DebugStringHook@@YGXPBD@Z 10014030 f   Tools.obj
 0001:00013040       ?DPlayErrorToString@@YAPBDJ@Z 10014040 f   Tools.obj
 0001:00013230       ?MissionNumToMap@@YAHH@Z   10014230 f   Tools.obj
 0001:00013250       ?GetNumChainedEvents@@YAHPAUsChainedEvent@@@Z 10014250 f   Tools.obj
 0001:00013270       ?PrintEventChain@@YAXPAUsChainedEvent@@@Z 10014270 f   Tools.obj
 0001:000132c0       ?GetScreenMode@@YA?AUsScreenMode@@XZ 100142c0 f   Tools.obj
 0001:00013300       ?GetScreenRect@@YA?AURect@@XZ 10014300 f   Tools.obj
 0001:00013350       ?TimeString@@YA?AVNString@@H@Z 10014350 f   Tools.obj
 0001:00013410       ?SetFrobHandler@@YAXHW4eFrobHandler@@@Z 10014410 f   Tools.obj
 0001:00013430       ?SummonObject@@YAHH@Z      10014430 f   Tools.obj
 0001:000134a0       ?GetMissionName@@YA_NHPADH@Z 100144a0 f   Tools.obj
 0001:00013550       ?PhysModelFromObj@@YAPAVcPhysModel@@H@Z 10014550 f   Tools.obj
 0001:00013590       ?ObjHasScript@@YA_NHPBD@Z  10014590 f   Tools.obj
 0001:000135f0       ?ProxyFrobGetInverse@@YAHH@Z 100145f0 f   Tools.obj
 0001:00013680       ?GetMissionName@@YA?AVcAnsiStr@@H@Z 10014680 f   Tools.obj
 0001:00013720       ?GS_OnReceive@@YAXPAUIGSClient@@PAEK@Z 10014720 f   GlobalServer.obj
 0001:000137d0       ?GS_OnConnectionLost@@YAXPAUIGSClient@@@Z 100147d0 f   GlobalServer.obj
 0001:000137f0       ?GS_OnConnectComplete@@YAXPAUIGSClient@@W4ConnectResult@1@@Z 100147f0 f   GlobalServer.obj
 0001:00013810       ?GetServers@CServerList@@QAEAAV?$list@PAVCServerListEntry@@V?$allocator@PAVCServerListEntry@@@std@@@std@@XZ 10014810 f   GlobalServer.obj
 0001:00013820       ?GS_SendHeartbeat@@YAXPAUIGSClient@@@Z 10014820 f   GlobalServer.obj
 0001:00013950       ?Marshal@Msg_DarkHeartbeat@@QAEXPAVCMarshalBuffer@@@Z 10014950 f   Msg_Dark.obj
 0001:000139c0       ?Unmarshal@Msg_DarkServerInfo@@QAEXPAVCMarshalBuffer@@@Z 100149c0 f   Msg_Dark.obj
 0001:00013a30       ?ConnectToGlobal@CServerBrowser@@QAEXXZ 10014a30 f   ServerBrowser.obj
 0001:00013ab0       ?BrowserTerm@@YAXXZ        10014ab0 f   ServerBrowser.obj
 0001:00013ad0       ?HandlePingResponse@CServerBrowser@@UAEXPAX@Z 10014ad0 f   ServerBrowser.obj
 0001:00013c00       ?UpdateServerCount@CServerBrowser@@QAEXXZ 10014c00 f   ServerBrowser.obj
 0001:00013c80       ?HandleRemoveServer@CServerBrowser@@UAEXPAXK@Z 10014c80 f   ServerBrowser.obj
 0001:00013d30       ?OnSelectItem@CServerBrowser@@IAEXXZ 10014d30 f   ServerBrowser.obj
 0001:00013dc0       ?ConnectToSelectedServer@CServerBrowser@@QAEXXZ 10014dc0 f   ServerBrowser.obj
 0001:00013e70       ?OnRefreshList@CServerBrowser@@IAEXXZ 10014e70 f   ServerBrowser.obj
 0001:00013f10       ?OnStateChange@CServerBrowser@@UAEXW4ConnState@IGSClient@@@Z 10014f10 f   ServerBrowser.obj
 0001:00014020       ?HandleServerInfo@CServerBrowser@@UAEXPAXK@Z 10015020 f   ServerBrowser.obj
 0001:00014190       ?OnDoubleClickItem@CServerBrowser@@IAEXXZ 10015190 f   ServerBrowser.obj
 0001:000141f0       ?clear@?$list@PAVCServerListEntry@@V?$allocator@PAVCServerListEntry@@@std@@@std@@QAEXXZ 100151f0 f i ServerBrowser.obj
 0001:000141f0       ?clear@?$list@PAVConfigVar@@V?$allocator@PAVConfigVar@@@std@@@std@@QAEXXZ 100151f0 f i Engine:ConfigManager.obj
 0001:000141f0       ?clear@?$list@PAVMessage@@V?$allocator@PAVMessage@@@std@@@std@@QAEXXZ 100151f0 f i MessageManager.obj
 0001:000141f0       ?clear@?$list@PAVHistoryItem@@V?$allocator@PAVHistoryItem@@@std@@@std@@QAEXXZ 100151f0 f i ConsoleGUI.obj
 0001:00014230       ?UpdatePings@CServerBrowser@@IAEXXZ 10015230 f   ServerBrowser.obj
 0001:000142c0       ?DialogProc@CServerBrowser@@QAGHPAUHWND__@@IIJ@Z 100152c0 f   ServerBrowser.obj
 0001:00014380       ?Update@CServerBrowser@@QAEXXZ 10015380 f   ServerBrowser.obj
 0001:000143b0       ?StaticDialogProc@CServerBrowser@@SGHPAUHWND__@@IIJ@Z 100153b0 f   ServerBrowser.obj
 0001:000143e0       ??1CServerList@@UAE@XZ     100153e0 f i ServerBrowser.obj
 0001:00014410       ??_GCServerList@@UAEPAXI@Z 10015410 f i ServerBrowser.obj
 0001:00014410       ??_ECServerList@@UAEPAXI@Z 10015410 f i ServerBrowser.obj
 0001:00014430       ??0CServerBrowser@@QAE@XZ  10015430 f   ServerBrowser.obj
 0001:00014580       ??1CServerBrowser@@UAE@XZ  10015580 f   ServerBrowser.obj
 0001:00014620       ?CreateBrowserWindow@CServerBrowser@@QAE_NH@Z 10015620 f   ServerBrowser.obj
 0001:00014680       ??_GCServerBrowser@@UAEPAXI@Z 10015680 f i ServerBrowser.obj
 0001:00014680       ??_ECServerBrowser@@UAEPAXI@Z 10015680 f i ServerBrowser.obj
 0001:000146a0       ??0CServerListEntry@@QAE@PBD00GGEE@Z 100156a0 f   ServerList.obj
 0001:00014720       ??_GCServerListEntry@@UAEPAXI@Z 10015720 f i ServerList.obj
 0001:00014720       ??_ECServerListEntry@@UAEPAXI@Z 10015720 f i ServerList.obj
 0001:00014740       ?GetName@DarkOverlay@@UAEPBDXZ 10015740 f   DarkOverlay.obj
 0001:00014740       ?GetListView@CServerList@@QAEPAVCEListView@EngCtrls@@XZ 10015740 f   ServerList.obj
 0001:00014750       ?UpdateListedServerData@CServerList@@QAEXPAVCServerListEntry@@@Z 10015750 f   ServerList.obj
 0001:00014880       ?InitializeControls@CServerList@@QAEXPAUHWND__@@@Z 10015880 f   ServerList.obj
 0001:000149d0       ?GetCount@CServerList@@QAEIXZ 100159d0 f   ServerList.obj
 0001:000149d0       ?GetParent@DialogElement@@UAEPAUIDarkOverlay@@XZ 100159d0 f   DialogElement.obj
 0001:000149e0       ?_Incsize@?$list@PAVCServerListEntry@@V?$allocator@PAVCServerListEntry@@@std@@@std@@IAEXI@Z 100159e0 f i ServerList.obj
 0001:00014a80       ?FindServerFromIP@CServerList@@QAEPAVCServerListEntry@@PBD@Z 10015a80 f   ServerList.obj
 0001:00014ad0       ?DeleteAll@CServerList@@QAEXXZ 10015ad0 f   ServerList.obj
 0001:00014b30       ?RemoveServer@CServerList@@QAEXPAVCServerListEntry@@@Z 10015b30 f   ServerList.obj
 0001:00014ba0       ?AddServer@CServerList@@QAEPAVCServerListEntry@@PBD00GGEE@Z 10015ba0 f   ServerList.obj
 0001:00014c80       ?FixupImports@@YAXXZ       10015c80 f   Imports.obj
 0001:00014cb0       ?HookVictoryCheckOnSlain@@YGXPAUsScrMsg@@PAVcMultiParm@@@Z 10015cb0 f   ScriptHooks.obj
 0001:00014cc0       ?ApplyGenPatches@@YAXXZ    10015cc0 f   ScriptHooks.obj
 0001:00014d00       ?IsScriptModule@@YA_NPBD0@Z 10015d00 f   ScriptHooks.obj
 0001:00014d60       ?SendMessageA@HookScriptMan@@YGJKPAUsScrMsg@@PAUsMultiParm@@@Z 10015d60 f   ScriptHooks.obj
 0001:00014db0       ?HookStdElevatorReceiveMessage@@YGXPAVStdElevatorScript@@PAUsScrMsg@@PAVcMultiParm@@W4eScrTraceAction@@@Z 10015db0 f   ScriptHooks.obj
 0001:00014e90       ?HookContainerReceiveMessage@@YGXPAUIRootScript@@PAUsScrMsg@@PAVcMultiParm@@W4eScrTraceAction@@@Z 10015e90 f   ScriptHooks.obj
 0001:00014f40       ?HookLockSoundsReceiveMessage@@YGXPAUIRootScript@@PAUsScrMsg@@PAVcMultiParm@@W4eScrTraceAction@@@Z 10015f40 f   ScriptHooks.obj
 0001:000150b0       ?HookStdBookReceiveMessage@@YGXPAUIRootScript@@PAUsScrMsg@@PAVcMultiParm@@W4eScrTraceAction@@@Z 100160b0 f   ScriptHooks.obj
 0001:000151a0       ?HookStdKeyReceiveMessage@@YGXPAUIRootScript@@PAUsScrMsg@@PAVcMultiParm@@W4eScrTraceAction@@@Z 100161a0 f   ScriptHooks.obj
 0001:000152f0       ?HookArrowReceiveMessage@@YGXPAUIRootScript@@PAUsScrMsg@@PAVcMultiParm@@W4eScrTraceAction@@@Z 100162f0 f   ScriptHooks.obj
 0001:00015440       ?HookCollisionStickReceiveMessage@@YGXPAVCollisionStickScript@@PAUsScrMsg@@PAVcMultiParm@@W4eScrTraceAction@@@Z 10016440 f   ScriptHooks.obj
 0001:00015620       ?AddModule@HookScriptMan@@YGJKPBD@Z 10016620 f   ScriptHooks.obj
 0001:000156a0       ?WorldFrobbableReceiveMessage@@YGXPAUIRootScript@@PAUsScrMsg@@PAVcMultiParm@@W4eScrTraceAction@@@Z 100166a0 f   ScriptHooks.obj
 0001:000157e0       ?FindString@StringHashTable@@QAE?AW4StringHashID@@PBD@Z 100167e0 f   StringHashTable.obj
 0001:00015820       ?StringHashInit@@YAXXZ     10016820 f   StringHashTable.obj
 0001:000158b0       ?StringHashTerm@@YAXXZ     100168b0 f   StringHashTable.obj
 0001:000158d0       ?FreePCX@@YAXAAPAUIRes@@@Z 100168d0 f   DarkOverlay.obj
 0001:00015900       ?DrawByHandle@@YAXPAUIRes@@AAUPoint@@@Z 10016900 f   DarkOverlay.obj
 0001:00015930       ??1DarkOverlayManager@@UAE@XZ 10016930 f   DarkOverlay.obj
 0001:00015980       ?FindByName@DarkOverlayManager@@QAEPAUIDarkOverlay@@PBD@Z 10016980 f   DarkOverlay.obj
 0001:000159d0       ?OverlayEnabled@DarkOverlayManager@@QAE_NPBD@Z 100169d0 f   DarkOverlay.obj
 0001:000159f0       ?InitAll@DarkOverlayManager@@QAEXXZ 100169f0 f   DarkOverlay.obj
 0001:00015a20       ?DrawAll@DarkOverlayManager@@QAEXXZ 10016a20 f   DarkOverlay.obj
 0001:00015a60       ?DisableAll@DarkOverlayManager@@QAEXXZ 10016a60 f   DarkOverlay.obj
 0001:00015a90       ?AnyEnabled@DarkOverlayManager@@QAE_NXZ 10016a90 f   DarkOverlay.obj
 0001:00015ac0       ?TermAll@DarkOverlayManager@@QAEXXZ 10016ac0 f   DarkOverlay.obj
 0001:00015af0       ?SetEnable@DarkOverlay@@UAEX_N@Z 10016af0 f   DarkOverlay.obj
 0001:00015b20       ?IsEnabled@DarkOverlay@@UAE_NXZ 10016b20 f   DarkOverlay.obj
 0001:00015b30       ?GetID@DarkOverlay@@UAEKXZ 10016b30 f   DarkOverlay.obj
 0001:00015b30       ?GetNumFrames@Delta@Timing@@QAEHXZ 10016b30 f   Engine:Timing.obj
 0001:00015b40       ?CenterRect@DarkOverlay@@IAEXAAURect@@0@Z 10016b40 f   DarkOverlay.obj
 0001:00015bb0       ?Init@DarkOverlay@@UAE_NXZ 10016bb0 f   DarkOverlay.obj
 0001:00015be0       ?OnAddTimeClicked@PlayersOverlay@@SAXPAVDialogElement@@UPoint@@@Z 10016be0 f   DarkOverlay.obj
 0001:00015c10       ?Init@BookOverlay@@UAE_NXZ 10016c10 f   DarkOverlay.obj
 0001:00015c60       ?OnLeftClick@BookOverlay@@UAEXUPoint@@@Z 10016c60 f   DarkOverlay.obj
 0001:00015cc0       ?SetupPages@BookOverlay@@QAEXXZ 10016cc0 f   DarkOverlay.obj
 0001:00015d70       ?IsStagingMode@@YA_NXZ     10016d70 f   DarkOverlay.obj
 0001:00015d90       ?OverlayTerm@@YAXXZ        10016d90 f   DarkOverlay.obj
 0001:00015db0       ?_Xlen@?$vector@PAVDialogElement@@V?$allocator@PAVDialogElement@@@std@@@std@@IBEXXZ 10016db0 f i DarkOverlay.obj
 0001:00015e30       ??$fill@PAPAVDialogElement@@PAV1@@std@@YAXPAPAVDialogElement@@0ABQAV1@@Z 10016e30 f i DarkOverlay.obj
 0001:00015e50       ?LoadPCX@@YAPAUIRes@@PBD0_N@Z 10016e50 f   DarkOverlay.obj
 0001:00015f10       ??_EDarkOverlayManager@@UAEPAXI@Z 10016f10 f i DarkOverlay.obj
 0001:00015f10       ??_GDarkOverlayManager@@UAEPAXI@Z 10016f10 f i DarkOverlay.obj
 0001:00015f30       ?EnableOverlay@DarkOverlayManager@@QAEXPBD_N@Z 10016f30 f   DarkOverlay.obj
 0001:00015f80       ?ToggleOverlay@DarkOverlayManager@@QAEXPBD@Z 10016f80 f   DarkOverlay.obj
 0001:00015fd0       ?EnableMouseMode@DarkOverlayManager@@QAEX_N@Z 10016fd0 f   DarkOverlay.obj
 0001:00016090       ?DrawCursor@DarkOverlayManager@@QAEXXZ 10017090 f   DarkOverlay.obj
 0001:000160f0       ?HandleClick@DarkOverlayManager@@QAE_NXZ 100170f0 f   DarkOverlay.obj
 0001:00016170       ?UpdatePlayers@PlayersOverlay@@QAEXXZ 10017170 f   DarkOverlay.obj
 0001:00016340       ?SetEnable@PlayersOverlay@@UAEX_N@Z 10017340 f   DarkOverlay.obj
 0001:00016400       ?OnKickPlayerClicked@PlayersOverlay@@SAXPAVDialogElement@@UPoint@@@Z 10017400 f   DarkOverlay.obj
 0001:00016460       ?LoadMapImage@MapOverlay@@QAEXXZ 10017460 f   DarkOverlay.obj
 0001:000164c0       ?Draw@BookOverlay@@UAEXXZ  100174c0 f   DarkOverlay.obj
 0001:00016780       ?DestroyBook@BookOverlay@@QAEXXZ 10017780 f   DarkOverlay.obj
 0001:00016850       ?LoadBook@BookOverlay@@QAEXPBD0@Z 10017850 f   DarkOverlay.obj
 0001:00016b70       ?Init@SimOverlay@@UAE_NXZ  10017b70 f   DarkOverlay.obj
 0001:00016c30       ?Draw@SimOverlay@@UAEXXZ   10017c30 f   DarkOverlay.obj
 0001:00016de0       ?SetEnable@BookOverlay@@UAEX_N@Z 10017de0 f   DarkOverlay.obj
 0001:00016de0       ?SetEnable@SimOverlay@@UAEX_N@Z 10017de0 f   DarkOverlay.obj
 0001:00016e30       ?Init@ObjectivesOverlay@@UAE_NXZ 10017e30 f   DarkOverlay.obj
 0001:000170a0       ?DrawGoalStatus@ObjectivesOverlay@@IAEXHPAUgrs_font@@H@Z 100180a0 f   DarkOverlay.obj
 0001:00017180       ?DisplayFits@ObjectivesOverlay@@IAE_NABURect@@PAUgrs_font@@@Z 10018180 f   DarkOverlay.obj
 0001:000172b0       ?Draw@ObjectivesOverlay@@UAEXXZ 100182b0 f   DarkOverlay.obj
 0001:000175b0       ?SetEnable@ObjectivesOverlay@@UAEX_N@Z 100185b0 f   DarkOverlay.obj
 0001:00017620       ?UpdateSettings@StagingOverlay@@IAEXXZ 10018620 f   DarkOverlay.obj
 0001:00017870       ?SetEnable@StagingOverlay@@UAEX_N@Z 10018870 f   DarkOverlay.obj
 0001:000178c0       ?StagingClose@@YAXXZ       100188c0 f   DarkOverlay.obj
 0001:00017900       ??$copy_backward@PAPAVDialogElement@@PAPAV1@@std@@YAPAPAVDialogElement@@PAPAV1@00@Z 10018900 f i DarkOverlay.obj
 0001:00017930       ?OnFrame@DarkOverlayManager@@QAEXXZ 10018930 f   DarkOverlay.obj
 0001:00017940       ?Init@MapOverlay@@UAE_NXZ  10018940 f   DarkOverlay.obj
 0001:000179e0       ?OnLeftClick@MapOverlay@@UAEXUPoint@@@Z 100189e0 f   DarkOverlay.obj
 0001:00017a30       ?OnReadBook@@YGJKPBD0@Z    10018a30 f   DarkOverlay.obj
 0001:00017b10       ?OnLoadMission@StagingOverlay@@SAXPAVDialogElement@@UPoint@@@Z 10018b10 f   DarkOverlay.obj
 0001:00017b70       ?OnQuit@StagingOverlay@@SAXPAVDialogElement@@UPoint@@@Z 10018b70 f   DarkOverlay.obj
 0001:00017bd0       ??$_Ucopy@PAPAVDialogElement@@@?$vector@PAVDialogElement@@V?$allocator@PAVDialogElement@@@std@@@std@@IAEPAPAVDialogElement@@PAPAV2@00@Z 10018bd0 f i DarkOverlay.obj
 0001:00017c00       ?SetEnable@MapOverlay@@UAEX_N@Z 10018c00 f   DarkOverlay.obj
 0001:00017c90       ?_Ufill@?$vector@PAVDialogElement@@V?$allocator@PAVDialogElement@@@std@@@std@@IAEPAPAVDialogElement@@PAPAV3@IABQAV3@@Z 10018c90 f i DarkOverlay.obj
 0001:00017cc0       ?_Insert_n@?$vector@PAVDialogElement@@V?$allocator@PAVDialogElement@@@std@@@std@@IAEXViterator@12@IABQAVDialogElement@@@Z 10018cc0 f i DarkOverlay.obj
 0001:00017eb0       ?Draw@DarkOverlay@@UAEXXZ  10018eb0 f   DarkOverlay.obj
 0001:00017f10       ?Draw@PlayersOverlay@@UAEXXZ 10018f10 f   DarkOverlay.obj
 0001:00017f50       ?OnLeftClick@PlayersOverlay@@UAEXUPoint@@@Z 10018f50 f   DarkOverlay.obj
 0001:00017f90       ?Draw@MapOverlay@@UAEXXZ   10018f90 f   DarkOverlay.obj
 0001:000181f0       ?Draw@StagingOverlay@@UAEXXZ 100191f0 f   DarkOverlay.obj
 0001:00018260       ?OnLeftClick@StagingOverlay@@UAEXUPoint@@@Z 10019260 f   DarkOverlay.obj
 0001:00018270       ??1EventManager@@QAE@XZ    10019270 f i Engine:EventManager.obj
 0001:00018270       ??1?$vector@PAVDialogElement@@V?$allocator@PAVDialogElement@@@std@@@std@@QAE@XZ 10019270 f i DarkOverlay.obj
 0001:000182a0       ?OnCharacter@CConsoleBase@@UAEXI@Z 100192a0 f i ConsoleGUI.obj
 0001:000182a0       ?OnLeftClick@DarkOverlay@@UAEXUPoint@@@Z 100192a0 f i DarkOverlay.obj
 0001:000182b0       ?GetDrawingArea@DarkOverlay@@UAEABURect@@XZ 100192b0 f i DarkOverlay.obj
 0001:000182c0       ??0DarkOverlay@@QAE@PBD@Z  100192c0 f   DarkOverlay.obj
 0001:00018340       ?Term@DarkOverlay@@UAE_NXZ 10019340 f   DarkOverlay.obj
 0001:000183a0       ??1PlayersOverlay@@UAE@XZ  100193a0 f   DarkOverlay.obj
 0001:000183a0       ??1StagingOverlay@@UAE@XZ  100193a0 f   DarkOverlay.obj
 0001:000183a0       ??1DarkOverlay@@UAE@XZ     100193a0 f   DarkOverlay.obj
 0001:000183d0       ??0MapOverlay@@QAE@PBD@Z   100193d0 f   DarkOverlay.obj
 0001:00018440       ??1MapOverlay@@UAE@XZ      10019440 f   DarkOverlay.obj
 0001:000184b0       ?Term@MapOverlay@@UAE_NXZ  100194b0 f   DarkOverlay.obj
 0001:000184f0       ??0BookOverlay@@QAE@PBD@Z  100194f0 f   DarkOverlay.obj
 0001:00018540       ??1BookOverlay@@UAE@XZ     10019540 f   DarkOverlay.obj
 0001:000185b0       ?Term@BookOverlay@@UAE_NXZ 100195b0 f   DarkOverlay.obj
 0001:000185e0       ??0SimOverlay@@QAE@PBD@Z   100195e0 f   DarkOverlay.obj
 0001:00018650       ?Term@SimOverlay@@UAE_NXZ  10019650 f   DarkOverlay.obj
 0001:000186a0       ??0ObjectivesOverlay@@QAE@PBD@Z 100196a0 f   DarkOverlay.obj
 0001:00018720       ??1ObjectivesOverlay@@UAE@XZ 10019720 f   DarkOverlay.obj
 0001:00018790       ?Term@ObjectivesOverlay@@UAE_NXZ 10019790 f   DarkOverlay.obj
 0001:00018800       ?AddText@DarkOverlay@@QAEPAVElement_Text@@PBDMMKKPAUgrs_font@@@Z 10019800 f   DarkOverlay.obj
 0001:000188e0       ?AddImage@DarkOverlay@@QAEPAVElement_Image@@PBD0MMKP6AXPAVDialogElement@@UPoint@@@Z@Z 100198e0 f   DarkOverlay.obj
 0001:000189c0       ?AddButton@DarkOverlay@@QAEPAVElement_Button@@PBDMMKKPAUgrs_font@@P6AXPAVDialogElement@@UPoint@@@Z@Z 100199c0 f   DarkOverlay.obj
 0001:00018aa0       ??0DarkOverlayManager@@QAE@XZ 10019aa0 f   DarkOverlay.obj
 0001:00018d70       ?Init@PlayersOverlay@@UAE_NXZ 10019d70 f   DarkOverlay.obj
 0001:000190b0       ??_EMapOverlay@@UAEPAXI@Z  1001a0b0 f i DarkOverlay.obj
 0001:000190b0       ??_GMapOverlay@@UAEPAXI@Z  1001a0b0 f i DarkOverlay.obj
 0001:000190d0       ??_EBookOverlay@@UAEPAXI@Z 1001a0d0 f i DarkOverlay.obj
 0001:000190d0       ??_GBookOverlay@@UAEPAXI@Z 1001a0d0 f i DarkOverlay.obj
 0001:000190f0       ??1SimOverlay@@UAE@XZ      1001a0f0 f   DarkOverlay.obj
 0001:00019170       ??_EObjectivesOverlay@@UAEPAXI@Z 1001a170 f i DarkOverlay.obj
 0001:00019170       ??_GObjectivesOverlay@@UAEPAXI@Z 1001a170 f i DarkOverlay.obj
 0001:00019190       ??_EStagingOverlay@@UAEPAXI@Z 1001a190 f i DarkOverlay.obj
 0001:00019190       ??_GPlayersOverlay@@UAEPAXI@Z 1001a190 f i DarkOverlay.obj
 0001:00019190       ??_EDarkOverlay@@UAEPAXI@Z 1001a190 f i DarkOverlay.obj
 0001:00019190       ??_GStagingOverlay@@UAEPAXI@Z 1001a190 f i DarkOverlay.obj
 0001:00019190       ??_EPlayersOverlay@@UAEPAXI@Z 1001a190 f i DarkOverlay.obj
 0001:00019190       ??_GDarkOverlay@@UAEPAXI@Z 1001a190 f i DarkOverlay.obj
 0001:000191b0       ?Init@StagingOverlay@@UAE_NXZ 1001a1b0 f   DarkOverlay.obj
 0001:00019650       ?OverlayInit@@YAXXZ        1001a650 f   DarkOverlay.obj
 0001:000196b0       ??_GSimOverlay@@UAEPAXI@Z  1001a6b0 f i DarkOverlay.obj
 0001:000196b0       ??_ESimOverlay@@UAEPAXI@Z  1001a6b0 f i DarkOverlay.obj
 0001:000196d0       ??1DialogElement@@UAE@XZ   1001a6d0 f   DialogElement.obj
 0001:000196f0       ??_GDialogElement@@UAEPAXI@Z 1001a6f0 f i DialogElement.obj
 0001:000196f0       ??_EDialogElement@@UAEPAXI@Z 1001a6f0 f i DialogElement.obj
 0001:00019720       ?EnableTimestamps@Logger@@QAEX_N@Z 1001a720 f   Engine:Logger.obj
 0001:00019720       ?SetEnabled@DialogElement@@QAEX_N@Z 1001a720 f   DialogElement.obj
 0001:00019720       ?EnableRendering@MessageMgr@@QAEX_N@Z 1001a720 f   MessageManager.obj
 0001:00019730       ?GetData@DialogElement@@UAEPAXXZ 1001a730 f   DialogElement.obj
 0001:00019740       ?SetLogCallback@Logger@@QAEXP6AXPAX@Z@Z 1001a740 f   Engine:Logger.obj
 0001:00019740       ?SetData@DialogElement@@UAEXPAX@Z 1001a740 f   DialogElement.obj
 0001:00019750       ??1Element_Text@@UAE@XZ    1001a750 f   DialogElement.obj
 0001:000197b0       ?GetType@Element_Text@@UAEKXZ 1001a7b0 f i DialogElement.obj
 0001:000197c0       ?SetText@Element_Text@@QAEXPBD@Z 1001a7c0 f   DialogElement.obj
 0001:000197d0       ??1Element_Image@@UAE@XZ   1001a7d0 f   DialogElement.obj
 0001:00019840       ?GetType@Element_Image@@UAEKXZ 1001a840 f i DialogElement.obj
 0001:00019850       ?HandleClick@DialogElement@@UAE_NUPoint@@@Z 1001a850 f   DialogElement.obj
 0001:00019910       ??_GElement_Text@@UAEPAXI@Z 1001a910 f i DialogElement.obj
 0001:00019910       ??_EElement_Text@@UAEPAXI@Z 1001a910 f i DialogElement.obj
 0001:00019930       ?GetTextWidth@Element_Text@@QAEMXZ 1001a930 f   DialogElement.obj
 0001:00019980       ?Draw@Element_Text@@UAEXXZ 1001a980 f   DialogElement.obj
 0001:000199b0       ??0Element_Image@@QAE@PAUIDarkOverlay@@PBD1MMKP6AXPAVDialogElement@@UPoint@@@Z@Z 1001a9b0 f   DialogElement.obj
 0001:00019b30       ??_EElement_Image@@UAEPAXI@Z 1001ab30 f i DialogElement.obj
 0001:00019b30       ??_GElement_Image@@UAEPAXI@Z 1001ab30 f i DialogElement.obj
 0001:00019b50       ?Draw@Element_Image@@UAEXXZ 1001ab50 f   DialogElement.obj
 0001:00019ba0       ??0Element_Text@@QAE@PAUIDarkOverlay@@PBDMMKKPAUgrs_font@@@Z 1001aba0 f   DialogElement.obj
 0001:00019d30       ??0Element_Button@@QAE@PAUIDarkOverlay@@PBDMMKKPAUgrs_font@@P6AXPAVDialogElement@@UPoint@@@Z@Z 1001ad30 f   DialogElement.obj
 0001:00019d70       ?GetType@Element_Button@@UAEKXZ 1001ad70 f i DialogElement.obj
 0001:00019d80       ??_EElement_Button@@UAEPAXI@Z 1001ad80 f i DialogElement.obj
 0001:00019d80       ??_GElement_Button@@UAEPAXI@Z 1001ad80 f i DialogElement.obj
 0001:00019da0       ??1Element_Button@@UAE@XZ  1001ada0 f i DialogElement.obj
 0001:00019db0       ?SetStr@ConfigVar@@QAEXPBD@Z 1001adb0 f i Engine:ConfigManager.obj
 0001:00019e00       ?CreateIntVar@ConfigManager@@IAEPAVConfigVar@@PBD@Z 1001ae00 f i Engine:ConfigManager.obj
 0001:00019e80       ?CreateFloatVar@ConfigManager@@IAEPAVConfigVar@@PBD@Z 1001ae80 f i Engine:ConfigManager.obj
 0001:00019ee0       ?CreateStringVar@ConfigManager@@IAEPAVConfigVar@@PBD@Z 1001aee0 f i Engine:ConfigManager.obj
 0001:00019f40       ?SetIniFile@ConfigManager@@QAEXPBD@Z 1001af40 f   Engine:ConfigManager.obj
 0001:00019fe0       ?_Incsize@?$list@PAVConfigVar@@V?$allocator@PAVConfigVar@@@std@@@std@@IAEXI@Z 1001afe0 f i Engine:ConfigManager.obj
 0001:0001a080       ?ClearVariables@ConfigManager@@QAEXXZ 1001b080 f   Engine:ConfigManager.obj
 0001:0001a0f0       ??1ConfigManager@@UAE@XZ   1001b0f0 f   Engine:ConfigManager.obj
 0001:0001a140       ??0ConfigManager@@QAE@XZ   1001b140 f   Engine:ConfigManager.obj
 0001:0001a170       ??_EConfigManager@@UAEPAXI@Z 1001b170 f i Engine:ConfigManager.obj
 0001:0001a170       ??_GConfigManager@@UAEPAXI@Z 1001b170 f i Engine:ConfigManager.obj
 0001:0001a190       ?GetInt@ConfigManager@@QAEHPBD@Z 1001b190 f   Engine:ConfigManager.obj
 0001:0001a190       ?GetString@ConfigManager@@QAEPBDPBD@Z 1001b190 f   Engine:ConfigManager.obj
 0001:0001a1d0       ?GetFloat@ConfigManager@@QAEMPBD@Z 1001b1d0 f   Engine:ConfigManager.obj
 0001:0001a220       ?GetBool@ConfigManager@@QAE_NPBD@Z 1001b220 f   Engine:ConfigManager.obj
 0001:0001a240       ?SetInt@ConfigManager@@QAEXPBDH@Z 1001b240 f   Engine:ConfigManager.obj
 0001:0001a2d0       ?SetFloat@ConfigManager@@QAEXPBDM@Z 1001b2d0 f   Engine:ConfigManager.obj
 0001:0001a360       ?SetString@ConfigManager@@QAEXPBD0@Z 1001b360 f   Engine:ConfigManager.obj
 0001:0001a3f0       ??0Logger@@QAE@XZ          1001b3f0 f   Engine:Logger.obj
 0001:0001a410       ?Open@Logger@@QAE_NPBD_N@Z 1001b410 f   Engine:Logger.obj
 0001:0001a450       ?PrintFile@Logger@@SAXPBD0ZZ 1001b450 f   Engine:Logger.obj
 0001:0001a4f0       ?PrintPrefix@Logger@@IAEXW4LogPrefix@@@Z 1001b4f0 f   Engine:Logger.obj
 0001:0001a580       ??1Logger@@QAE@XZ          1001b580 f   Engine:Logger.obj
 0001:0001a5a0       ?DoPrint@Logger@@IAEXW4LogPrefix@@PBD@Z 1001b5a0 f   Engine:Logger.obj
 0001:0001a640       ?Print@Logger@@QAAXPBDZZ   1001b640 f   Engine:Logger.obj
 0001:0001a680       ?atobool@@YA_NPBD@Z        1001b680 f   Engine:Utilities.obj
 0001:0001a6d0       ?GetParam@@YA?AV?$basic_string@DU?$char_traits@D@std@@V?$allocator@D@2@@std@@V12@DI@Z 1001b6d0 f   Engine:Utilities.obj
 0001:0001a7d0       ?AnsiToWide@@YAXPAGPBDH@Z  1001b7d0 f   Engine:Utilities.obj
 0001:0001a820       ?WideToAnsi@@YAXPADPBGH@Z  1001b820 f   Engine:Utilities.obj
 0001:0001a870       ?StringEnd@@YAPBDPADH@Z    1001b870 f   Engine:Utilities.obj
 0001:0001a8c0       ?safe_strcpy@@YAXPADPBDH@Z 1001b8c0 f   Engine:Utilities.obj
 0001:0001a8f0       ?safe_snprintf@@YAXPADHPBDZZ 1001b8f0 f   Engine:Utilities.obj
 0001:0001a920       ?FileExists@Utils@@YA_NPBD@Z 1001b920 f   Engine:Utilities.obj
 0001:0001a950       ??ANString@@QAEAADH@Z      1001b950 f   Engine:NString.obj
 0001:0001a960       ?Allocate@NString@@IAEXH@Z 1001b960 f   Engine:NString.obj
 0001:0001a9b0       ?Format@NString@@QAAXPBDZZ 1001b9b0 f   Engine:NString.obj
 0001:0001aa70       ??1NString@@QAE@XZ         1001ba70 f   Engine:NString.obj
 0001:0001aa90       ?Assign@NString@@QAEXPBD@Z 1001ba90 f   Engine:NString.obj
 0001:0001aae0       ??0NString@@QAE@XZ         1001bae0 f   Engine:NString.obj
 0001:0001ab00       ??0NString@@QAE@ABV0@@Z    1001bb00 f   Engine:NString.obj
 0001:0001ab30       ??0NString@@QAE@PBG@Z      1001bb30 f   Engine:NString.obj
 0001:0001abb0       ??4NString@@QAEABV0@PBD@Z  1001bbb0 f   Engine:NString.obj
 0001:0001abd0       ??4NString@@QAEABV0@ABV0@@Z 1001bbd0 f   Engine:NString.obj
 0001:0001ac10       ??$fill@PAVEventListener@@V1@@std@@YAXPAVEventListener@@0ABV1@@Z 1001bc10 f i Engine:EventManager.obj
 0001:0001ac40       ?_Xlen@?$vector@VEventListener@@V?$allocator@VEventListener@@@std@@@std@@IBEXXZ 1001bc40 f i Engine:EventManager.obj
 0001:0001acc0       ??$copy_backward@PAVEventListener@@PAV1@@std@@YAPAVEventListener@@PAV1@00@Z 1001bcc0 f i Engine:EventManager.obj
 0001:0001acf0       ??$_Uninit_copy@PAVEventListener@@PAV1@V?$allocator@VEventListener@@@std@@@std@@YAPAVEventListener@@PAV1@00AAV?$allocator@VEventListener@@@0@U_Nonscalar_ptr_iterator_tag@0@@Z 1001bcf0 f i Engine:EventManager.obj
 0001:0001ad20       ??$_Uninit_fill_n@PAVEventListener@@IV1@V?$allocator@VEventListener@@@std@@@std@@YAXPAVEventListener@@IABV1@AAV?$allocator@VEventListener@@@0@U_Nonscalar_ptr_iterator_tag@0@@Z 1001bd20 f i Engine:EventManager.obj
 0001:0001ad50       ?Broadcast@EventManager@@SAXHPAX@Z 1001bd50 f   Engine:EventManager.obj
 0001:0001ad90       ?_Ufill@?$vector@VEventListener@@V?$allocator@VEventListener@@@std@@@std@@IAEPAVEventListener@@PAV3@IABV3@@Z 1001bd90 f i Engine:EventManager.obj
 0001:0001adc0       ?_Insert_n@?$vector@VEventListener@@V?$allocator@VEventListener@@@std@@@std@@IAEXViterator@12@IABVEventListener@@@Z 1001bdc0 f i Engine:EventManager.obj
 0001:0001b010       ?UnregisterListener@EventManager@@SA_NHPAUIEventListener@@@Z 1001c010 f   Engine:EventManager.obj
 0001:0001b080       ?RegisterListener@EventManager@@SA_NHPAUIEventListener@@@Z 1001c080 f   Engine:EventManager.obj
 0001:0001b130       ?Initialize@EventManager@@SAXXZ 1001c130 f   Engine:EventManager.obj
 0001:0001b1a0       ?Shutdown@EventManager@@SAXXZ 1001c1a0 f   Engine:EventManager.obj
 0001:0001b1d0       ?SafeWrite@@YAXPAX0H@Z     1001c1d0 f   Engine:MemPatch.obj
 0001:0001b210       ?SafeWriteData@@YAXPAX_JH@Z 1001c210 f   Engine:MemPatch.obj
 0001:0001b250       ?SafeRead@@YAXPAX0H@Z      1001c250 f   Engine:MemPatch.obj
 0001:0001b2a0       ?InstallCallback@@YAXKKW4CallbackType@@HH@Z 1001c2a0 f   Engine:MemPatch.obj
 0001:0001b360       ?WritePtr@MemPatcher@@SAXPAUPtrPatchList@@PAUHINSTANCE__@@K@Z 1001c360 f   Engine:MemPatch.obj
 0001:0001b480       ?RestorePtr@MemPatcher@@SAXPAUPtrPatchList@@@Z 1001c480 f   Engine:MemPatch.obj
 0001:0001b4d0       ?WriteRaw@MemPatcher@@SAXPAURawPatchList@@PAUHINSTANCE__@@K@Z 1001c4d0 f   Engine:MemPatch.obj
 0001:0001b5b0       ?RestoreRaw@MemPatcher@@SAXPAURawPatchList@@@Z 1001c5b0 f   Engine:MemPatch.obj
 0001:0001b600       ?WritePtr@MemPatcher@@SAXPAUPtrPatchList@@@Z 1001c600 f   Engine:MemPatch.obj
 0001:0001b620       ??0CMarshalBuffer@@QAE@XZ  1001c620 f   Engine:MarshalBuffer.obj
 0001:0001b630       ?CopyVoid@CMarshalBuffer@@QAEXPBXH@Z 1001c630 f   Engine:MarshalBuffer.obj
 0001:0001b670       ?CopyString@CMarshalBuffer@@QAEXPBDH@Z 1001c670 f   Engine:MarshalBuffer.obj
 0001:0001b6c0       ?GetVoid@CMarshalBuffer@@QAEXPAXH@Z 1001c6c0 f   Engine:MarshalBuffer.obj
 0001:0001b6f0       ?GetInt@CMarshalBuffer@@QAEHXZ 1001c6f0 f   Engine:MarshalBuffer.obj
 0001:0001b700       ?GetByte@CMarshalBuffer@@QAEEXZ 1001c700 f   Engine:MarshalBuffer.obj
 0001:0001b710       ?GetWord@CMarshalBuffer@@QAEGXZ 1001c710 f   Engine:MarshalBuffer.obj
 0001:0001b720       ?GetStartBuffer@CMarshalBuffer@@QAEPAEXZ 1001c720 f   Engine:MarshalBuffer.obj
 0001:0001b730       ?GetString@CMarshalBuffer@@QAEXPADH@Z 1001c730 f   Engine:MarshalBuffer.obj
 0001:0001b770       ?GetBytesWritten@CMarshalBuffer@@QAEHXZ 1001c770 f   Engine:MarshalBuffer.obj
 0001:0001b780       ?SetBuffer@CMarshalBuffer@@QAEXPAEH@Z 1001c780 f   Engine:MarshalBuffer.obj
 0001:0001b7a0       ?UseDefaultBuffer@CMarshalBuffer@@QAEXXZ 1001c7a0 f   Engine:MarshalBuffer.obj
 0001:0001b7c0       ?SkipBytes@CMarshalBuffer@@QAEXH@Z 1001c7c0 f   Engine:MarshalBuffer.obj
 0001:0001b7d0       ?CopyByte@CMarshalBuffer@@QAEXE@Z 1001c7d0 f   Engine:MarshalBuffer.obj
 0001:0001b7f0       ?CopyWord@CMarshalBuffer@@QAEXG@Z 1001c7f0 f   Engine:MarshalBuffer.obj
 0001:0001b810       ?CopyInt@CMarshalBuffer@@QAEXH@Z 1001c810 f   Engine:MarshalBuffer.obj
 0001:0001b830       ?Init@CEControl@EngCtrls@@UAE_NPAUHWND__@@H@Z 1001c830 f   Engine:WinClasses.obj
 0001:0001b860       ?AddString@CEListBox@EngCtrls@@QAEHPBD@Z 1001c860 f   Engine:WinClasses.obj
 0001:0001b8c0       ?GetItemData@CEListView@EngCtrls@@QAEJH@Z 1001c8c0 f   Engine:WinClasses.obj
 0001:0001b930       ?InsertColumn@CEListView@EngCtrls@@QAEXHPAD@Z 1001c930 f   Engine:WinClasses.obj
 0001:0001b970       ?InsertColumn@CEListView@EngCtrls@@QAEXHPADH@Z 1001c970 f   Engine:WinClasses.obj
 0001:0001b9b0       ?InsertItem@CEListView@EngCtrls@@QAEHHPADJ@Z 1001c9b0 f   Engine:WinClasses.obj
 0001:0001ba10       ?SetColumnWidth@CEListView@EngCtrls@@QAEXHH@Z 1001ca10 f   Engine:WinClasses.obj
 0001:0001ba30       ?SetItemText@CEListView@EngCtrls@@QAEXHHPAD@Z 1001ca30 f   Engine:WinClasses.obj
 0001:0001ba70       ?CaretToEnd@CEEditBox@EngCtrls@@QAEXXZ 1001ca70 f   Engine:WinClasses.obj
 0001:0001ba90       ?AppendString@CEEditBox@EngCtrls@@UAEXPBD@Z 1001ca90 f   Engine:WinClasses.obj
 0001:0001bb80       ?SetMaxLines@CEEditBox@EngCtrls@@QAEXH@Z 1001cb80 f   Engine:WinClasses.obj
 0001:0001bb90       ?GetCheck@CEButton@EngCtrls@@QAEJXZ 1001cb90 f   Engine:WinClasses.obj
 0001:0001bbb0       ?IsChecked@CEButton@EngCtrls@@QAE_NXZ 1001cbb0 f   Engine:WinClasses.obj
 0001:0001bbd0       ?SetCheck@CEButton@EngCtrls@@QAEX_N@Z 1001cbd0 f   Engine:WinClasses.obj
 0001:0001bbf0       ?AddString@CEComboBox@EngCtrls@@QAEHPBD@Z 1001cbf0 f   Engine:WinClasses.obj
 0001:0001bc10       ?AddString@CEComboBox@EngCtrls@@QAEHPBDJ@Z 1001cc10 f   Engine:WinClasses.obj
 0001:0001bc50       ?GetText@CEComboBox@EngCtrls@@QAEHPADH@Z 1001cc50 f   Engine:WinClasses.obj
 0001:0001bc70       ?GetCurSel@CEComboBox@EngCtrls@@QAEHXZ 1001cc70 f   Engine:WinClasses.obj
 0001:0001bc90       ?SetCurSel@CEComboBox@EngCtrls@@QAEHH@Z 1001cc90 f   Engine:WinClasses.obj
 0001:0001bcb0       ?GetItemData@CEComboBox@EngCtrls@@QAEJH@Z 1001ccb0 f   Engine:WinClasses.obj
 0001:0001bcd0       ?SetItemData@CEComboBox@EngCtrls@@QAEHHJ@Z 1001ccd0 f   Engine:WinClasses.obj
 0001:0001bcf0       ?SetFile@IniFile@@QAE_NPBD@Z 1001ccf0 f   Engine:IniFile.obj
 0001:0001bd20       ?WriteString@IniFile@@QAE_NPBD00@Z 1001cd20 f   Engine:IniFile.obj
 0001:0001bd50       ?WriteInt@IniFile@@QAE_NPBD0H@Z 1001cd50 f   Engine:IniFile.obj
 0001:0001bdb0       ??0IniFile@@QAE@PBD@Z      1001cdb0 f   Engine:IniFile.obj
 0001:0001bde0       ?GetDouble@IniFile@@QAENPBD0N_N@Z 1001cde0 f   Engine:IniFile.obj
 0001:0001be60       ?GetInt@IniFile@@QAEHPBD0H_N@Z 1001ce60 f   Engine:IniFile.obj
 0001:0001bee0       ?GetString@IniFile@@QAEPBDPBD0H0_N@Z 1001cee0 f   Engine:IniFile.obj
 0001:0001bf50       ?GetFloat@IniFile@@QAEMPBD0M_N@Z 1001cf50 f   Engine:IniFile.obj
 0001:0001bf80       ?GetBool@IniFile@@QAE_NPBD0_N1@Z 1001cf80 f   Engine:IniFile.obj
 0001:0001c040       ?LastErrorToString@@YA?AV?$basic_string@DU?$char_traits@D@std@@V?$allocator@D@2@@std@@XZ 1001d040 f   Engine:EngError.obj
 0001:0001c090       ?ErrorMessageBox@@YAXPBD@Z 1001d090 f   Engine:EngError.obj
 0001:0001c120       ?ErrorExit@@YAXPBD@Z       1001d120 f   Engine:EngError.obj
 0001:0001c140       ?Init@Timing@@YAXXZ        1001d140 f   Engine:Timing.obj
 0001:0001c160       ?GetTimeMS@Timing@@YA_JXZ  1001d160 f   Engine:Timing.obj
 0001:0001c1d0       ?Reset@Delta@Timing@@QAEXXZ 1001d1d0 f   Engine:Timing.obj
 0001:0001c220       ?Calculate@Delta@Timing@@QAEX_N@Z 1001d220 f   Engine:Timing.obj
 0001:0001c380       ?Get@Delta@Timing@@QAEMXZ  1001d380 f   Engine:Timing.obj
 0001:0001c390       ?GetElapsedTime@Delta@Timing@@QAEMXZ 1001d390 f   Engine:Timing.obj
 0001:0001c3a0       ?GenerateHash@Crc32@@YAKPBXI@Z 1001d3a0 f i Engine:Crc32.obj
 0001:0001c400       ?CreateID@Crc32@@YAKPBD@Z  1001d400 f   Engine:Crc32.obj
 0001:0001c480       ?ScanFile@Crc32@@YAKPBD@Z  1001d480 f   Engine:Crc32.obj
 0001:0001c570       ?ScanFilePart@Crc32@@YAKPBDKK@Z 1001d570 f   Engine:Crc32.obj
 0001:0001c950       ?RecordExceptionInfo@@YGJPAU_EXCEPTION_POINTERS@@@Z 1001d950 f   Engine:ExceptionHandler.obj
 0001:0001cda0       ?GS_CreateDP8Client@@YAPAUIGSClient@@XZ 1001dda0 f   GSClient_r:GSClient.obj
 0001:0001ce00       ?GS_DestroyClient@@YAXAAPAUIGSClient@@@Z 1001de00 f   GSClient_r:GSClient.obj
 0001:0001ce20       ??1IGSClient@@UAE@XZ       1001de20 f i GSClient_r:GSClient_DP8.obj
 0001:0001ce30       ??_GIGSClient@@UAEPAXI@Z   1001de30 f i GSClient_r:GSClient_DP8.obj
 0001:0001ce30       ??_EIGSClient@@UAEPAXI@Z   1001de30 f i GSClient_r:GSClient_DP8.obj
 0001:0001ce50       ?CopyData@NetMessage@@QAEXPAEK@Z 1001de50 f i GSClient_r:GSClient_DP8.obj
 0001:0001ce90       ?CancelEnumeration@GSClient_DP8@@IAEXK@Z 1001de90 f   GSClient_r:GSClient_DP8.obj
 0001:0001ceb0       ?Close@GSClient_DP8@@IAEXXZ 1001deb0 f   GSClient_r:GSClient_DP8.obj
 0001:0001cf10       ?Connect@GSClient_DP8@@UAE_NPBDKK@Z 1001df10 f   GSClient_r:GSClient_DP8.obj
 0001:0001d0a0       ?PingServer@GSClient_DP8@@UAE_NPBDGH@Z 1001e0a0 f   GSClient_r:GSClient_DP8.obj
 0001:0001d2b0       ?OnConnectResponse@GSClient_DP8@@IAEXPAU_DPNMSG_ENUM_HOSTS_RESPONSE@@@Z 1001e2b0 f   GSClient_r:GSClient_DP8.obj
 0001:0001d350       ?GetState@GSClient_DP8@@UAE?AW4ConnState@IGSClient@@XZ 1001e350 f   GSClient_r:GSClient_DP8.obj
 0001:0001d360       ?SetState@GSClient_DP8@@UAEXW4ConnState@IGSClient@@@Z 1001e360 f   GSClient_r:GSClient_DP8.obj
 0001:0001d380       ?Send@GSClient_DP8@@UAE_NPAXK_N@Z 1001e380 f   GSClient_r:GSClient_DP8.obj
 0001:0001d3f0       ?SendShutdownNotification@GSClient_DP8@@UAEXXZ 1001e3f0 f   GSClient_r:GSClient_DP8.obj
 0001:0001d410       ?SendQuitting@GSClient_DP8@@UAEXW4ExitReason@IGSClient@@@Z 1001e410 f   GSClient_r:GSClient_DP8.obj
 0001:0001d440       ?GetBrowser@GSClient_DP8@@UAEPAUIGSBrowser@@XZ 1001e440 f   GSClient_r:GSClient_DP8.obj
 0001:0001d450       ?SetBrowser@GSClient_DP8@@UAEXPAUIGSBrowser@@@Z 1001e450 f   GSClient_r:GSClient_DP8.obj
 0001:0001d460       ?Init@GSClient_DP8@@UAE_NABUInitInfo@IGSClient@@@Z 1001e460 f   GSClient_r:GSClient_DP8.obj
 0001:0001d4e0       ?_Xlen@?$deque@PAUNetMessage@@V?$allocator@PAUNetMessage@@@std@@@std@@IBEXXZ 1001e4e0 f i GSClient_r:GSClient_DP8.obj
 0001:0001d560       ?_Tidy@?$deque@PAUNetMessage@@V?$allocator@PAUNetMessage@@@std@@@std@@IAEXXZ 1001e560 f i GSClient_r:GSClient_DP8.obj
 0001:0001d5d0       ?_Growmap@?$deque@PAUNetMessage@@V?$allocator@PAUNetMessage@@@std@@@std@@IAEXI@Z 1001e5d0 f i GSClient_r:GSClient_DP8.obj
 0001:0001d730       ?push_back@?$deque@PAUNetMessage@@V?$allocator@PAUNetMessage@@@std@@@std@@QAEXABQAUNetMessage@@@Z 1001e730 f i GSClient_r:GSClient_DP8.obj
 0001:0001d7b0       ?Update@GSClient_DP8@@UAEXXZ 1001e7b0 f   GSClient_r:GSClient_DP8.obj
 0001:0001d880       ??1NetMessageQueue@@QAE@XZ 1001e880 f i GSClient_r:GSClient_DP8.obj
 0001:0001d890       ??1GSClient_DP8@@UAE@XZ    1001e890 f   GSClient_r:GSClient_DP8.obj
 0001:0001d910       ?MessageHandler@GSClient_DP8@@QAEJPAXK0@Z 1001e910 f   GSClient_r:GSClient_DP8.obj
 0001:0001db70       ??_EGSClient_DP8@@UAEPAXI@Z 1001eb70 f i GSClient_r:GSClient_DP8.obj
 0001:0001db70       ??_GGSClient_DP8@@UAEPAXI@Z 1001eb70 f i GSClient_r:GSClient_DP8.obj
 0001:0001db90       ?StaticMessageHandler@GSClient_DP8@@SGJPAXK0@Z 1001eb90 f   GSClient_r:GSClient_DP8.obj
 0001:0001dba0       ??0GSClient_DP8@@QAE@XZ    1001eba0 f   GSClient_r:GSClient_DP8.obj
 0001:0001dd90       ___CxxFrameHandler         1001ed90 f   MSVCRT:MSVCR71.dll
 0001:0001dd96       ??_Etype_info@@UAEPAXI@Z   1001ed96 f i MSVCRT:ti_inst.obj
 0001:0001dde2       ??3@YAXPAX@Z               1001ede2 f   MSVCRT:MSVCR71.dll
 0001:0001dde8       ??2@YAPAXI@Z               1001ede8 f   MSVCRT:MSVCR71.dll
 0001:0001ddee       __purecall                 1001edee f   MSVCRT:MSVCR71.dll
 0001:0001ddf4       ??_U@YAPAXI@Z              1001edf4 f   MSVCRT:MSVCR71.dll
 0001:0001ddfa       ??_V@YAXPAX@Z              1001edfa f   MSVCRT:MSVCR71.dll
 0001:0001de00       __CxxThrowException@8      1001ee00 f   MSVCRT:MSVCR71.dll
 0001:0001de06       ??0exception@@QAE@ABV0@@Z  1001ee06 f   MSVCRT:MSVCR71.dll
 0001:0001de0c       __onexit                   1001ee0c f   MSVCRT:atonexit.obj
 0001:0001de32       _atexit                    1001ee32 f   MSVCRT:atonexit.obj
 0001:0001de44       ?__ArrayUnwind@@YGXPAXIHP6EX0@Z@Z 1001ee44 f   MSVCRT:ehvecdtr.obj
 0001:0001dea2       ??_M@YGXPAXIHP6EX0@Z@Z     1001eea2 f   MSVCRT:ehvecdtr.obj
 0001:0001df02       ??_L@YGXPAXIHP6EX0@Z1@Z    1001ef02 f   MSVCRT:ehvecctr.obj
 0001:0001df64       __ftol2                    1001ef64 f   MSVCRT:ftol2.obj
 0001:0001dfe0       __chkstk                   1001efe0 f   MSVCRT:chkstk.obj
 0001:0001dfe0       __alloca_probe             1001efe0     MSVCRT:chkstk.obj
 0001:0001e01d       __CRT_INIT@12              1001f01d f   MSVCRT:crtdll.obj
 0001:0001e0db       __DllMainCRTStartup@12     1001f0db f   MSVCRT:crtdll.obj
 0001:0001e1c0       __alldiv                   1001f1c0 f   MSVCRT:lldiv.obj
 0001:0001e26a       __except_handler3          1001f26a f   MSVCRT:MSVCR71.dll
 0001:0001e2a1       @__security_check_cookie@4 1001f2a1 f   MSVCRT:secchk.obj
 0001:0001e2b0       ??1type_info@@UAE@XZ       1001f2b0 f   MSVCRT:MSVCR71.dll
 0001:0001e2b6       ___dllonexit               1001f2b6 f   MSVCRT:MSVCR71.dll
 0001:0001e2bc       ?terminate@@YAXXZ          1001f2bc f   MSVCRT:MSVCR71.dll
 0001:0001e2c4       __SEH_prolog               1001f2c4 f   MSVCRT:sehprolg.obj
 0001:0001e2ff       __SEH_epilog               1001f2ff f   MSVCRT:sehprolg.obj
 0001:0001e310       __initterm                 1001f310 f   MSVCRT:MSVCR71.dll
 0001:0001e316       __RTC_Initialize           1001f316 f   MSVCRT:initsect.obj
 0001:0001e35a       __RTC_Terminate            1001f35a f   MSVCRT:initsect.obj
 0001:0001e39e       ___CppXcptFilter           1001f39e f   MSVCRT:MSVCR71.dll
 0001:0001e3a4       ___security_init_cookie    1001f3a4 f   MSVCRT:seccinit.obj
 0001:0001e40a       ___security_error_handler  1001f40a f   MSVCRT:MSVCR71.dll
 0002:00000000       __imp__InitCommonControls@0 10021000     comctl32:COMCTL32.dll
 0002:00000004       \177COMCTL32_NULL_THUNK_DATA 10021004     comctl32:COMCTL32.dll
 0002:00000008       __imp__lstrcpyA@8          10021008     kernel32:KERNEL32.dll
 0002:0000000c       __imp__OutputDebugStringA@4 1002100c     kernel32:KERNEL32.dll
 0002:00000010       __imp__GetTickCount@0      10021010     kernel32:KERNEL32.dll
 0002:00000014       __imp__GetSystemTimeAsFileTime@4 10021014     kernel32:KERNEL32.dll
 0002:00000018       __imp__InitializeCriticalSection@4 10021018     kernel32:KERNEL32.dll
 0002:0000001c       __imp__DeleteCriticalSection@4 1002101c     kernel32:KERNEL32.dll
 0002:00000020       __imp__EnterCriticalSection@4 10021020     kernel32:KERNEL32.dll
 0002:00000024       __imp__LeaveCriticalSection@4 10021024     kernel32:KERNEL32.dll
 0002:00000028       __imp__WaitForSingleObject@8 10021028     kernel32:KERNEL32.dll
 0002:0000002c       __imp__CloseHandle@4       1002102c     kernel32:KERNEL32.dll
 0002:00000030       __imp__SetEvent@4          10021030     kernel32:KERNEL32.dll
 0002:00000034       __imp__CreateEventA@16     10021034     kernel32:KERNEL32.dll
 0002:00000038       __imp__SetUnhandledExceptionFilter@4 10021038     kernel32:KERNEL32.dll
 0002:0000003c       __imp__ExitProcess@4       1002103c     kernel32:KERNEL32.dll
 0002:00000040       __imp__DisableThreadLibraryCalls@4 10021040     kernel32:KERNEL32.dll
 0002:00000044       __imp__DeleteFileA@4       10021044     kernel32:KERNEL32.dll
 0002:00000048       __imp__GetModuleHandleA@4  10021048     kernel32:KERNEL32.dll
 0002:0000004c       __imp__MultiByteToWideChar@24 1002104c     kernel32:KERNEL32.dll
 0002:00000050       __imp__WideCharToMultiByte@32 10021050     kernel32:KERNEL32.dll
 0002:00000054       __imp__CreateFileA@28      10021054     kernel32:KERNEL32.dll
 0002:00000058       __imp__VirtualProtect@16   10021058     kernel32:KERNEL32.dll
 0002:0000005c       __imp__ReadProcessMemory@20 1002105c     kernel32:KERNEL32.dll
 0002:00000060       __imp__VirtualProtectEx@20 10021060     kernel32:KERNEL32.dll
 0002:00000064       __imp__OpenProcess@12      10021064     kernel32:KERNEL32.dll
 0002:00000068       __imp__GetCurrentProcessId@0 10021068     kernel32:KERNEL32.dll
 0002:0000006c       __imp__GetCurrentThreadId@0 1002106c     kernel32:KERNEL32.dll
 0002:00000070       __imp__WritePrivateProfileStringA@16 10021070     kernel32:KERNEL32.dll
 0002:00000074       __imp__GetPrivateProfileStringA@24 10021074     kernel32:KERNEL32.dll
 0002:00000078       __imp__GetPrivateProfileIntA@16 10021078     kernel32:KERNEL32.dll
 0002:0000007c       __imp__FormatMessageA@28   1002107c     kernel32:KERNEL32.dll
 0002:00000080       __imp__GetLastError@0      10021080     kernel32:KERNEL32.dll
 0002:00000084       __imp__QueryPerformanceFrequency@4 10021084     kernel32:KERNEL32.dll
 0002:00000088       __imp__QueryPerformanceCounter@4 10021088     kernel32:KERNEL32.dll
 0002:0000008c       __imp__ReadFile@20         1002108c     kernel32:KERNEL32.dll
 0002:00000090       __imp__SetFilePointer@16   10021090     kernel32:KERNEL32.dll
 0002:00000094       __imp__WriteFile@20        10021094     kernel32:KERNEL32.dll
 0002:00000098       __imp__lstrlenA@4          10021098     kernel32:KERNEL32.dll
 0002:0000009c       __imp__GetFileSize@8       1002109c     kernel32:KERNEL32.dll
 0002:000000a0       __imp__GetModuleFileNameA@12 100210a0     kernel32:KERNEL32.dll
 0002:000000a4       __imp__VirtualQuery@12     100210a4     kernel32:KERNEL32.dll
 0002:000000a8       __imp__GetSystemInfo@4     100210a8     kernel32:KERNEL32.dll
 0002:000000ac       __imp__GlobalMemoryStatus@4 100210ac     kernel32:KERNEL32.dll
 0002:000000b0       \177KERNEL32_NULL_THUNK_DATA 100210b0     kernel32:KERNEL32.dll
 0002:000000b4       __imp_??A?$basic_string@DU?$char_traits@D@std@@V?$allocator@D@2@@std@@QAEAADI@Z 100210b4     msvcprt:MSVCP71.dll
 0002:000000b8       __imp_??Y?$basic_string@DU?$char_traits@D@std@@V?$allocator@D@2@@std@@QAEAAV01@D@Z 100210b8     msvcprt:MSVCP71.dll
 0002:000000bc       __imp_??0?$basic_string@DU?$char_traits@D@std@@V?$allocator@D@2@@std@@QAE@PBD@Z 100210bc     msvcprt:MSVCP71.dll
 0002:000000c0       __imp_??4?$basic_string@DU?$char_traits@D@std@@V?$allocator@D@2@@std@@QAEAAV01@PBD@Z 100210c0     msvcprt:MSVCP71.dll
 0002:000000c4       __imp_??4?$basic_string@GU?$char_traits@G@std@@V?$allocator@G@2@@std@@QAEAAV01@PBG@Z 100210c4     msvcprt:MSVCP71.dll
 0002:000000c8       __imp_?c_str@?$basic_string@GU?$char_traits@G@std@@V?$allocator@G@2@@std@@QBEPBGXZ 100210c8     msvcprt:MSVCP71.dll
 0002:000000cc       __imp_?clear@?$basic_string@GU?$char_traits@G@std@@V?$allocator@G@2@@std@@QAEXXZ 100210cc     msvcprt:MSVCP71.dll
 0002:000000d0       __imp_?clear@?$basic_string@DU?$char_traits@D@std@@V?$allocator@D@2@@std@@QAEXXZ 100210d0     msvcprt:MSVCP71.dll
 0002:000000d4       __imp_??1?$basic_string@GU?$char_traits@G@std@@V?$allocator@G@2@@std@@QAE@XZ 100210d4     msvcprt:MSVCP71.dll
 0002:000000d8       __imp_??0?$basic_string@DU?$char_traits@D@std@@V?$allocator@D@2@@std@@QAE@XZ 100210d8     msvcprt:MSVCP71.dll
 0002:000000dc       __imp_??0?$basic_string@GU?$char_traits@G@std@@V?$allocator@G@2@@std@@QAE@XZ 100210dc     msvcprt:MSVCP71.dll
 0002:000000e0       __imp_?c_str@?$basic_string@DU?$char_traits@D@std@@V?$allocator@D@2@@std@@QBEPBDXZ 100210e0     msvcprt:MSVCP71.dll
 0002:000000e4       __imp_??1?$basic_string@DU?$char_traits@D@std@@V?$allocator@D@2@@std@@QAE@XZ 100210e4     msvcprt:MSVCP71.dll
 0002:000000e8       __imp_??0?$basic_string@DU?$char_traits@D@std@@V?$allocator@D@2@@std@@QAE@ABV01@@Z 100210e8     msvcprt:MSVCP71.dll
 0002:000000ec       \177MSVCP71_NULL_THUNK_DATA 100210ec     msvcprt:MSVCP71.dll
 0002:000000f0       __imp____security_error_handler 100210f0     MSVCRT:MSVCR71.dll
 0002:000000f4       __imp____CppXcptFilter     100210f4     MSVCRT:MSVCR71.dll
 0002:000000f8       __imp___adjust_fdiv        100210f8     MSVCRT:MSVCR71.dll
 0002:000000fc       __imp___initterm           100210fc     MSVCRT:MSVCR71.dll
 0002:00000100       __imp_?terminate@@YAXXZ    10021100     MSVCRT:MSVCR71.dll
 0002:00000104       __imp___onexit             10021104     MSVCRT:MSVCR71.dll
 0002:00000108       __imp____dllonexit         10021108     MSVCRT:MSVCR71.dll
 0002:0000010c       __imp_??1type_info@@UAE@XZ 1002110c     MSVCRT:MSVCR71.dll
 0002:00000110       __imp__strrchr             10021110     MSVCRT:MSVCR71.dll
 0002:00000114       __imp___except_handler3    10021114     MSVCRT:MSVCR71.dll
 0002:00000118       __imp___strlwr             10021118     MSVCRT:MSVCR71.dll
 0002:0000011c       __imp__free                1002111c     MSVCRT:MSVCR71.dll
 0002:00000120       __imp__realloc             10021120     MSVCRT:MSVCR71.dll
 0002:00000124       __imp__malloc              10021124     MSVCRT:MSVCR71.dll
 0002:00000128       __imp__strncpy             10021128     MSVCRT:MSVCR71.dll
 0002:0000012c       __imp__fflush              1002112c     MSVCRT:MSVCR71.dll
 0002:00000130       __imp__time                10021130     MSVCRT:MSVCR71.dll
 0002:00000134       __imp__localtime           10021134     MSVCRT:MSVCR71.dll
 0002:00000138       __imp__strftime            10021138     MSVCRT:MSVCR71.dll
 0002:0000013c       __imp__fprintf             1002113c     MSVCRT:MSVCR71.dll
 0002:00000140       __imp__fclose              10021140     MSVCRT:MSVCR71.dll
 0002:00000144       __imp__fopen               10021144     MSVCRT:MSVCR71.dll
 0002:00000148       __imp___strdup             10021148     MSVCRT:MSVCR71.dll
 0002:0000014c       __imp__isspace             1002114c     MSVCRT:MSVCR71.dll
 0002:00000150       __imp__strchr              10021150     MSVCRT:MSVCR71.dll
 0002:00000154       __imp__memmove             10021154     MSVCRT:MSVCR71.dll
 0002:00000158       __imp__rename              10021158     MSVCRT:MSVCR71.dll
 0002:0000015c       __imp___mkdir              1002115c     MSVCRT:MSVCR71.dll
 0002:00000160       __imp___vsnprintf          10021160     MSVCRT:MSVCR71.dll
 0002:00000164       __imp___snprintf           10021164     MSVCRT:MSVCR71.dll
 0002:00000168       __imp__atof                10021168     MSVCRT:MSVCR71.dll
 0002:0000016c       __imp__strtok              1002116c     MSVCRT:MSVCR71.dll
 0002:00000170       __imp__atoi                10021170     MSVCRT:MSVCR71.dll
 0002:00000174       __imp___stricmp            10021174     MSVCRT:MSVCR71.dll
 0002:00000178       __imp_??0exception@@QAE@ABV0@@Z 10021178     MSVCRT:MSVCR71.dll
 0002:0000017c       __imp___CxxThrowException@8 1002117c     MSVCRT:MSVCR71.dll
 0002:00000180       __imp__wcslen              10021180     MSVCRT:MSVCR71.dll
 0002:00000184       __imp_??_U@YAPAXI@Z        10021184     MSVCRT:MSVCR71.dll
 0002:00000188       __imp_??0exception@@QAE@XZ 10021188     MSVCRT:MSVCR71.dll
 0002:0000018c       __imp_??1exception@@UAE@XZ 1002118c     MSVCRT:MSVCR71.dll
 0002:00000190       __imp___purecall           10021190     MSVCRT:MSVCR71.dll
 0002:00000194       __imp_??2@YAPAXI@Z         10021194     MSVCRT:MSVCR71.dll
 0002:00000198       __imp_??3@YAXPAX@Z         10021198     MSVCRT:MSVCR71.dll
 0002:0000019c       __imp__sprintf             1002119c     MSVCRT:MSVCR71.dll
 0002:000001a0       __imp____CxxFrameHandler   100211a0     MSVCRT:MSVCR71.dll
 0002:000001a4       __imp___assert             100211a4     MSVCRT:MSVCR71.dll
 0002:000001a8       __imp_??_V@YAXPAX@Z        100211a8     MSVCRT:MSVCR71.dll
 0002:000001ac       \177MSVCR71_NULL_THUNK_DATA 100211ac     MSVCRT:MSVCR71.dll
 0002:000001b0       __imp__TranslateAcceleratorA@12 100211b0     user32:USER32.dll
 0002:000001b4       __imp__GetWindowTextLengthA@4 100211b4     user32:USER32.dll
 0002:000001b8       __imp__wsprintfA           100211b8     user32:USER32.dll
 0002:000001bc       __imp__wvsprintfA@12       100211bc     user32:USER32.dll
 0002:000001c0       __imp__GetWindowRect@8     100211c0     user32:USER32.dll
 0002:000001c4       __imp__SetDlgItemTextA@12  100211c4     user32:USER32.dll
 0002:000001c8       __imp__DestroyWindow@4     100211c8     user32:USER32.dll
 0002:000001cc       __imp__SendMessageA@16     100211cc     user32:USER32.dll
 0002:000001d0       __imp__CheckMenuItem@12    100211d0     user32:USER32.dll
 0002:000001d4       __imp__EnableMenuItem@12   100211d4     user32:USER32.dll
 0002:000001d8       __imp__MessageBoxA@16      100211d8     user32:USER32.dll
 0002:000001dc       __imp__GetDlgItemTextA@16  100211dc     user32:USER32.dll
 0002:000001e0       __imp__CreateDialogParamA@20 100211e0     user32:USER32.dll
 0002:000001e4       __imp__GetMenu@4           100211e4     user32:USER32.dll
 0002:000001e8       __imp__ShowWindow@8        100211e8     user32:USER32.dll
 0002:000001ec       __imp__PeekMessageA@20     100211ec     user32:USER32.dll
 0002:000001f0       __imp__SetWindowTextA@8    100211f0     user32:USER32.dll
 0002:000001f4       __imp__IsDialogMessageA@8  100211f4     user32:USER32.dll
 0002:000001f8       __imp__TranslateMessage@4  100211f8     user32:USER32.dll
 0002:000001fc       __imp__DispatchMessageA@4  100211fc     user32:USER32.dll
 0002:00000200       __imp__LoadAcceleratorsA@8 10021200     user32:USER32.dll
 0002:00000204       __imp__SetFocus@4          10021204     user32:USER32.dll
 0002:00000208       __imp__DialogBoxParamA@20  10021208     user32:USER32.dll
 0002:0000020c       __imp__SwitchToThisWindow@8 1002120c     user32:USER32.dll
 0002:00000210       __imp__GetWindowTextW@12   10021210     user32:USER32.dll
 0002:00000214       __imp__EndDialog@8         10021214     user32:USER32.dll
 0002:00000218       __imp__EnableWindow@8      10021218     user32:USER32.dll
 0002:0000021c       __imp__GetDlgItem@8        1002121c     user32:USER32.dll
 0002:00000220       __imp__SetDlgItemInt@16    10021220     user32:USER32.dll
 0002:00000224       __imp__GetDlgItemInt@16    10021224     user32:USER32.dll
 0002:00000228       __imp__GetWindowTextA@12   10021228     user32:USER32.dll
 0002:0000022c       \177USER32_NULL_THUNK_DATA 1002122c     user32:USER32.dll
 0002:00000230       __imp__CoCreateInstance@20 10021230     ole32:ole32.dll
 0002:00000234       \177ole32_NULL_THUNK_DATA  10021234     ole32:ole32.dll
 0002:0000025c       ??_C@_0M@CENACABH@WithSword?50?$AA@ 1002125c     sshock2.obj
 0002:00000268       ??_C@_06NPAAKFED@Player?$AA@ 10021268     sshock2.obj
 0002:00000270       ??_C@_0BB@DDMJPNIJ@Crumple?50?0?5Die?50?$AA@ 10021270     sshock2.obj
 0002:00000284       ??_C@_0N@DFCHFNMP@receivewound?$AA@ 10021284     sshock2.obj
 0002:00000294       ??_C@_0CB@KHIEAEKA@attack?0?5meleecombat?0?5direction?50@ 10021294     sshock2.obj
 0002:000002b8       ??_C@_0BK@OGPCEJE@RangedCombat?50?0?5WithBow?50?$AA@ 100212b8     sshock2.obj
 0002:000002d4       ??_C@_0CJ@CKBKAIOK@Transferring?5?$CFs?5to?5?$CFd?5?$CI?$CFf?5?$CFf?5?$CFf?5@ 100212d4     AIManager.obj
 0002:00000300       ??_C@_0P@NGFKHJJB@?$CFs?5is?5a?5proxy?4?$AA@ 10021300     AIManager.obj
 0002:00000310       ??_C@_07BMHLCHEL@automap?$AA@ 10021310     Commands.obj
 0002:00000318       ??_C@_0L@GJJFINGI@objectives?$AA@ 10021318     Commands.obj
 0002:00000324       ??_C@_08HFJOOHIC@sim_menu?$AA@ 10021324     Commands.obj
 0002:00000330       ??_C@_0M@FHLGIKD@win_mission?$AA@ 10021330     Commands.obj
 0002:0000033c       ??_C@_09OMGHDOBI@drop_item?$AA@ 1002133c     Commands.obj
 0002:00000348       ??_C@_0L@JKOPOPKB@use_weapon?$AA@ 10021348     Commands.obj
 0002:00000354       ??_C@_0BD@INAHMNGF@overlay_objectives?$AA@ 10021354     Commands.obj
 0002:00000368       ??_C@_0M@LCGNHHLH@overlay_map?$AA@ 10021368     Commands.obj
 0002:00000374       ??_C@_0M@EOGAHMD@UseOverlays?$AA@ 10021374     Commands.obj
 0002:00000380       ??_C@_0BG@JKJBEBGH@CommandList?$FLi?$FN?4pfnOld?$AA@ 10021380     Commands.obj
 0002:00000398       ??_C@_0BK@EPIBNMEF@CommandList?$FLi?$FN?4pfnCommand?$AA@ 10021398     Commands.obj
 0002:000003b4       ??_C@_0CB@BLNFNJFF@?2Dev?2ThiefMP?2source?2Commands?4cpp@ 100213b4     Commands.obj
 0002:000003d8       ??_C@_0BB@BDCPNPMF@MISSION_COMPLETE?$AA@ 100213d8     Commands.obj
 0002:000003ec       ??_C@_0CE@LLLBDLIK@?$CFs?5was?5damaged?5by?5?$CFd?5for?5?$CFd?5poin@ 100213ec     Damage.obj
 0002:00000410       ??_C@_0DJ@PHNKOGMF@Dark?5damage?5listener?3?5?$CFs?5was?5dam@ 10021410     Damage.obj
 0002:0000044c       ??_C@_0BI@HAKKDMGC@?$CFs?5was?5destroyed?5by?5?$CFd?4?$AA@ 1002144c     Damage.obj
 0002:00000464       ??_C@_0BD@LFKBPNLH@saves?2game?$CF04d?4sav?$AA@ 10021464     FilePanel.obj
 0002:00000478       ??_C@_0BA@LNFDDLCO@saves?2quick?4sav?$AA@ 10021478     FilePanel.obj
 0002:00000488       ??_C@_0BG@CBMGBHNB@netsaves?2game?$CF04d?4sav?$AA@ 10021488     FilePanel.obj
 0002:000004a0       ??_C@_0BD@GAJMHFLF@netsaves?2quick?4sav?$AA@ 100214a0     FilePanel.obj
 0002:000004b4       ??_C@_0DP@IGLIECBP@ERROR?3?5invalid?5motor?5passed?5to?5g@ 100214b4     Motions.obj
 0002:000004f4       ??_C@_0DI@POJGLBLA@ERROR?3?5invalid?5motor?5passed?5to?5p@ 100214f4     Motions.obj
 0002:0000052c       ??_C@_0DN@IIEBAMIN@ERROR?3?5invalid?5motor?5passed?5to?5g@ 1002152c     Motions.obj
 0002:0000056c       ??_C@_0CE@GFOECBEG@Error?3?5Dark?5peer?5already?5allocat@ 1002156c     Net.obj
 0002:00000590       ??_C@_0BG@GJPOGBNK@Join?5failed?3?5?$CFs?5?$CI?$CFx?$CJ?4?$AA@ 10021590     Net.obj
 0002:000005a8       ??_C@_0BP@KDGEHLIG@Failed?5to?5create?5local?5player?4?$AA@ 100215a8     Net.obj
 0002:000005c8       ??_C@_0BF@EBLAJMDC@Failed?5to?5host?5game?4?$AA@ 100215c8     Net.obj
 0002:000005e0       ??_C@_0DA@HPGOEKOL@Successfully?5hosted?5game?4?5Awaiti@ 100215e0     Net.obj
 0002:00000610       ??_C@_0M@JAHHMIEL@?$CBg_pDarkNet?$AA@ 10021610     Net.obj
 0002:0000061c       ??_C@_0BM@LEPJMMEB@?2Dev?2ThiefMP?2source?2Net?4cpp?$AA@ 1002161c     Net.obj
 0002:00000638       ??_C@_0P@NMOILHK@MaximumPlayers?$AA@ 10021638     Net.obj
 0002:00000648       ??_C@_0BD@LCAJMCPG@?$CFs?5is?5in?5the?5game?4?$AA@ 10021648     NetManager.obj
 0002:0000065c       ??_C@_0DG@CAGPHHNF@NET?5DEBUG?3?5Enum?5players?5callback@ 1002165c     NetManager.obj
 0002:00000694       ??_C@_0DB@GONILAGO@NET?5DEBUG?3?5Init?5existing?5player?3@ 10021694     NetManager.obj
 0002:000006c8       ??_C@_0DC@EHEKHOGN@NET?5DEBUG?3?5Destroying?5net?5player@ 100216c8     NetManager.obj
 0002:000006fa       ??_C@_00CNPNBAHC@?$AA@     100216fa     NetManager.obj
 0002:000006fc       ??_C@_04LLAMKKNO@arch?$AA@ 100216fc     NetManager.obj
 0002:00000704       ??_C@_0CD@LPPIBFLH@?2Dev?2ThiefMP?2source?2NetManager?4c@ 10021704     NetManager.obj
 0002:00000728       ??_C@_09NHABHLPN@MP?5Avatar?$AA@ 10021728     NetManager.obj
 0002:00000734       ??_C@_0M@PMLJGEBD@MP?5Avatar?55?$AA@ 10021734     NetManager.obj
 0002:00000740       ??_C@_0M@OFKCFFFC@MP?5Avatar?54?$AA@ 10021740     NetManager.obj
 0002:0000074c       ??_C@_0M@KKODMDJF@MP?5Avatar?53?$AA@ 1002174c     NetManager.obj
 0002:00000758       ??_C@_0M@LDPIPCNE@MP?5Avatar?52?$AA@ 10021758     NetManager.obj
 0002:00000764       ??_C@_05NFIJOKEG@Model?$AA@ 10021764     NetManager.obj
 0002:0000076c       ??_C@_0BB@CANHPBK@ObjTakeOver?3?5?$CFs?4?$AA@ 1002176c     Objects.obj
 0002:00000780       ??_C@_0BH@MKJMLHDH@ObjGiveTo?3?5?$CFd?0?5?$CFd?0?5?$CFd?4?$AA@ 10021780     Objects.obj
 0002:00000798       ??_C@_0BN@MCHFLBII@ObjGiveWithoutObjID?3?5?$CFs?0?5?$CFs?4?$AA@ 10021798     Objects.obj
 0002:000007b8       ??_C@_0BF@CNGDLGMG@Object?5creation?3?5?$CFs?4?$AA@ 100217b8     Objects.obj
 0002:000007d0       ??_C@_0BH@EBLOHCID@Object?5destruction?3?5?$CFs?$AA@ 100217d0     Objects.obj
 0002:000007e8       ??_C@_0CL@HEPPOJJF@Handle?5frob?5pickup?5for?3?5?$CFd?0?5high@ 100217e8     Packets.obj
 0002:00000814       ??_C@_0BL@KKAFEDDH@Creating?5quest?5?$CFs?3?5?$CFd?0?5?$CFd?4?$AA@ 10021814     Packets.obj
 0002:00000830       ??_C@_0BJ@JLBCGHDG@Setting?5quest?5?$CFs?5to?3?5?$CFd?4?$AA@ 10021830     Packets.obj
 0002:00000850       ??_C@_0EC@IDAMOBDC@Received?5player?5info?5for?5player?5@ 10021850     Packets.obj
 0002:00000898       ??_C@_0EA@GHILBFAA@Received?5a?5request?5to?5destroy?5?$CFd@ 10021898     Packets.obj
 0002:000008d8       ??_C@_0BG@NLILKHCK@Destroying?5object?5?$CFs?4?$AA@ 100218d8     Packets.obj
 0002:000008f0       ??_C@_0BA@IGHADBLO@bowtwang_player?$AA@ 100218f0     Packets.obj
 0002:00000900       ??_C@_07LAGHFAPL@Crystal?$AA@ 10021900     Packets.obj
 0002:00000908       ??_C@_0L@JIFOHJAC@Projectile?$AA@ 10021908     Packets.obj
 0002:00000914       ??_C@_0BB@JAHKEOEL@?$CFs?$CFs?$CFs?$CFs?$CFs?$CFs?$CFs?$CFs?$AA@ 10021914     ScriptService.obj
 0002:00000928       ??_C@_0BA@HKMGKHHI@ShowScriptDebug?$AA@ 10021928     ScriptService.obj
 0002:00000938       ??_C@_0DK@IGGNAMPL@Sending?5property?5msg?5for?5?$CFs?3?5Nam@ 10021938     StoredProperty.obj
 0002:00000974       ??_C@_0BK@NOMELAIN@Received?5property?5msg?5?$CFs?4?$AA@ 10021974     StoredProperty.obj
 0002:000009a0       ??_7IDarkNet@@6B@          100219a0     DarkPeer.obj
 0002:00000a20       ??_7logic_error@std@@6B@   10021a20     DarkPeer.obj
 0002:00000a28       ??_7length_error@std@@6B@  10021a28     DarkPeer.obj
 0002:00000a30       ??_7out_of_range@std@@6B@  10021a30     DarkPeer.obj
 0002:00000a38       ??_7IEventListener@@6B@    10021a38     DarkPeer.obj
 0002:00000a3c       ??_C@_0BG@FJOOPMBM@Connection?5timed?5out?4?$AA@ 10021a3c     DarkPeer.obj
 0002:00000a54       ??_C@_0CB@JDDCFFPM@Queue?5for?5?$CFx?3?5?$CFd?5msgs?0?5?$CFd?5bytes?4@ 10021a54     DarkPeer.obj
 0002:00000a78       ??_C@_0CG@LNHAHOBM@Failed?5to?5get?5send?5queue?5info?5fo@ 10021a78     DarkPeer.obj
 0002:00000aa0       ??_C@_0DI@OCMOAOGD@Failed?5to?5initialize?5global?5serv@ 10021aa0     DarkPeer.obj
 0002:00000ad8       ??_C@_0CN@HLPMNBMI@Failed?5to?5connect?5to?5global?5serv@ 10021ad8     DarkPeer.obj
 0002:00000b08       ??_C@_0CB@LGIMFMIP@?2Dev?2ThiefMP?2source?2DarkPeer?4cpp@ 10021b08     DarkPeer.obj
 0002:00000b2c       ??_C@_08EJIMMOH@HostName?$AA@ 10021b2c     DarkPeer.obj
 0002:00000b38       ??_C@_0L@KEEDOPBA@GlobalPort?$AA@ 10021b38     DarkPeer.obj
 0002:00000b44       ??_C@_0CO@NCKDDDJJ@Failed?5to?5initialize?5global?5serv@ 10021b44     DarkPeer.obj
 0002:00000b74       ??_C@_0DJ@PFOOAHKN@?$CFs?$CI?$CFd?$CJ?5DPlay?5error?3?5?$CFs?4?5Failed?5t@ 10021b74     DarkPeer.obj
 0002:00000bb0       ??_C@_0CB@MHLBPJCG@Unknown?5flags?5on?5old?5packet?5?$CI?$CFx?$CJ@ 10021bb0     DarkPeer.obj
 0002:00000bd4       ??_C@_0L@HMKCBGMC@PlayerName?$AA@ 10021bd4     DarkPeer.obj
 0002:00000be0       ??_C@_0CA@JHGBLBFE@Failed?5to?5enumerate?5hosts?5?$CI?$CFx?$CJ?4?$AA@ 10021be0     DarkPeer.obj
 0002:00000c00       ??_C@_19EBEADLAH@?$AAp?$AAo?$AAr?$AAt?$AA?$AA@ 10021c00     DarkPeer.obj
 0002:00000c0c       ??_C@_1BC@FGKBPBF@?$AAh?$AAo?$AAs?$AAt?$AAn?$AAa?$AAm?$AAe?$AA?$AA@ 10021c0c     DarkPeer.obj
 0002:00000c20       ??_C@_0CC@NOPPNCA@Failed?5to?5connect?5to?5server?4?5?$CI?$CFx@ 10021c20     DarkPeer.obj
 0002:00000c44       ??_C@_0BE@CCKECLBP@The?5server?5is?5full?4?$AA@ 10021c44     DarkPeer.obj
 0002:00000c58       ??_C@_0DO@FGOGJCDI@Cannot?5join?5server?3?5the?5host?5has@ 10021c58     DarkPeer.obj
 0002:00000c98       ??_C@_0BE@FMJKNIIE@Incorrect?5password?4?$AA@ 10021c98     DarkPeer.obj
 0002:00000cac       ??_C@_0BJ@LBALNBFL@Failed?5to?5set?5peer?5info?4?$AA@ 10021cac     DarkPeer.obj
 0002:00000cc8       ??_C@_0CL@CHDCCFBN@Game?5found?3?5?$CFs?5?5Players?3?5?$CFd?1?$CFd?5?5@ 10021cc8     DarkPeer.obj
 0002:00000cf8       ??_C@_0EG@COIFKEHE@Server?5version?5?$CI?$CFd?$CJ?5does?5not?5mat@ 10021cf8     DarkPeer.obj
 0002:00000d40       ??_C@_0EJ@FHPNEPEA@?$CFs?$CI?$CFd?$CJ?5DPlay?5error?3?5?$CFs?4?5Attempte@ 10021d40     DarkPeer.obj
 0002:00000d90       ??_C@_0FE@IDNDMJNO@?$CFs?$CI?$CFd?$CJ?5DPlay?5error?3?5?$CFs?4?5Attempte@ 10021d90     DarkPeer.obj
 0002:00000de4       ??_C@_0DN@OHIEMDJF@ERROR?3?5Attempted?5to?5send?5packet?5@ 10021de4     DarkPeer.obj
 0002:00000e24       ??_C@_0N@MKOFHGIF@ListOnGlobal?$AA@ 10021e24     DarkPeer.obj
 0002:00000e34       ??_C@_0N@PJANFJIF@pickloot?4wav?$AA@ 10021e34     DarkPeer.obj
 0002:00000e44       ??_C@_0BK@HJLADJMP@Creating?5local?5host?4?5?$CI?$CFx?$CJ?$AA@ 10021e44     DarkPeer.obj
 0002:00000e60       ??_C@_0L@JLGPALCD@Difficulty?$AA@ 10021e60     DarkPeer.obj
 0002:00000e6c       ??_C@_0CG@BDEDPOOE@Failed?5to?5get?5peer?5info?5for?5DPNI@ 10021e6c     DarkPeer.obj
 0002:00000e94       ??_C@_0O@NDALCJBM@?$CFs?5connected?4?$AA@ 10021e94     DarkPeer.obj
 0002:00000ea4       ??_C@_0BG@INDKOHEP@Set?5host?5DPNID?5to?5?$CFx?4?$AA@ 10021ea4     DarkPeer.obj
 0002:00000ebc       ??_C@_0BE@JONHPENG@map?1set?$DMT?$DO?5too?5long?$AA@ 10021ebc     DarkPeer.obj
 0002:00000ed0       ??_C@_0BM@PAPJHAGI@invalid?5map?1set?$DMT?$DO?5iterator?$AA@ 10021ed0     DarkPeer.obj
 0002:00000eec       ??_C@_0CD@EACKNKNE@Deleting?5player?5data?5for?5DPNID?5?$CF@ 10021eec     DarkPeer.obj
 0002:00000f10       ??_C@_0BP@NIFEIAN@Failed?5to?5unregister?5listener?4?$AA@ 10021f10     DarkPeer.obj
 0002:00000f30       ??_7CDarkPeer@@6BIEventListener@@@ 10021f30     DarkPeer.obj
 0002:00000f38       ??_7CDarkPeer@@6BIDarkNet@@@ 10021f38     DarkPeer.obj
 0002:00000fb8       ??_C@_0BG@CJHJNIJP@Connected?5to?5session?4?$AA@ 10021fb8     DarkPeer.obj
 0002:00000fd0       ??_C@_0BG@OFGCHGBE@?$CFs?5has?5left?5the?5game?4?$AA@ 10021fd0     DarkPeer.obj
 0002:00000fe8       ??_C@_0BD@EGGJBAG@SetSPCaps?$CI?$CJ?5failed?$AA@ 10021fe8     DarkPeer.obj
 0002:00000ffc       ??_C@_0L@NENEEBIN@BufferSize?$AA@ 10021ffc     DarkPeer.obj
 0002:00001008       ??_C@_0P@DCIBGALE@GetSP?$CI?$CJ?5failed?$AA@ 10022008     DarkPeer.obj
 0002:00001018       ??_C@_0P@PMJPJKJI@SetSP?$CI?$CJ?5failed?$AA@ 10022018     DarkPeer.obj
 0002:00001028       ??_C@_0CA@EEDCMLGH@Could?5not?5initialize?5DirectPlay?$AA@ 10022028     DarkPeer.obj
 0002:00001048       ??_C@_0BK@FBFLCICJ@COM?5initialization?5failed?$AA@ 10022048     DarkPeer.obj
 0002:00001064       ??_C@_0O@GCDHFIKE@Host?$CI?$CJ?5failed?$AA@ 10022064     DarkPeer.obj
 0002:00001074       ??_C@_0BF@EOJPIAG@SetPeerInfo?$CI?$CJ?5failed?$AA@ 10022074     DarkPeer.obj
 0002:0000108c       ??_C@_0BG@BMNFNOMK@AddComponent?$CI?$CJ?5failed?$AA@ 1002208c     DarkPeer.obj
 0002:000010a4       ??_C@_0L@COJEKOJM@ServerPort?$AA@ 100220a4     DarkPeer.obj
 0002:000010b0       ??_C@_0BD@POEMKHOO@GetSPCaps?$CI?$CJ?5failed?$AA@ 100220b0     DarkPeer.obj
 0002:000010c4       ??_C@_08FJIAHGMM@Password?$AA@ 100220c4     DarkPeer.obj
 0002:000010d0       ??_C@_0L@FFDIDHBB@ServerName?$AA@ 100220d0     DarkPeer.obj
 0002:000010dc       ??_C@_0M@HHNLPIAL@user_mp?4bnd?$AA@ 100220dc     DarkPeer.obj
 0002:000010e8       ??_C@_0CB@BALKDDLO@Failed?5to?5list?5server?5to?5global?4@ 100220e8     DarkPeer.obj
 0002:0000110c       ??_C@_0BD@IDIFJPGK@peer?5enum?5response?$AA@ 1002210c     DarkPeer.obj
 0002:00001120       ??_C@_07HMEMGDHJ@receive?$AA@ 10022120     DarkPeer.obj
 0002:00001128       ??_7CDarkSessionManager@@6B@ 10022128     DarkSessionManager.obj
 0002:0000112c       ??_C@_09OHILOMME@TimeLimit?$AA@ 1002212c     DarkSessionManager.obj
 0002:00001138       ??_C@_09JPFOHINI@SaveLimit?$AA@ 10022138     DarkSessionManager.obj
 0002:00001144       ??_C@_0BD@OIFANMBJ@IncreaseDifficulty?$AA@ 10022144     DarkSessionManager.obj
 0002:00001158       ??_C@_0O@PEJIDJAD@CheatsEnabled?$AA@ 10022158     DarkSessionManager.obj
 0002:00001168       ??_C@_0L@KPOBODEE@TeamDamage?$AA@ 10022168     DarkSessionManager.obj
 0002:00001174       ??_C@_09MJCGPJCP@NoLoadout?$AA@ 10022174     DarkSessionManager.obj
 0002:00001180       ??_C@_0N@FKGMAHPF@StartingLoot?$AA@ 10022180     DarkSessionManager.obj
 0002:00001190       ??_C@_0BD@GDENIIIF@PlayerTransparency?$AA@ 10022190     DarkSessionManager.obj
 0002:000011a4       ??_C@_09GAPMBEEC@ShareLoot?$AA@ 100221a4     DarkSessionManager.obj
 0002:000011b0       ??_C@_0N@INCCDALH@RespawnDelay?$AA@ 100221b0     DarkSessionManager.obj
 0002:000011c0       ??_C@_0P@JAIELIFO@RespawnEnabled?$AA@ 100221c0     DarkSessionManager.obj
 0002:000011d0       ??_C@_0O@OIMEEBML@Game?5resumed?4?$AA@ 100221d0     Network.obj
 0002:000011e0       ??_C@_0BE@POECIHMG@All?5players?5joined?4?$AA@ 100221e0     Network.obj
 0002:000011f4       ??_C@_0N@IBNACFAM@Game?5paused?4?$AA@ 100221f4     Network.obj
 0002:00001204       ??_C@_0BH@BACNCIPJ@Waiting?5for?5players?4?4?4?$AA@ 10022204     Network.obj
 0002:0000121c       ??_C@_0P@HMHCKJLG@Unnamed?5Player?$AA@ 1002221c     PlayerDB.obj
 0002:0000122c       ??_C@_0CC@LLHDBBPO@index?5?$DO?$DN?50?5?$CG?$CG?5index?5?$DM?5kMaxPlayer@ 1002222c     PlayerDB.obj
 0002:00001250       ??_C@_0BG@POFJCHLA@?4?4?2include?2PlayerDB?4h?$AA@ 10022250     PlayerDB.obj
 0002:00001268       ??_C@_0DD@LKGKGBGD@Too?5many?5chained?5events?5for?5?$CFs?4?5@ 10022268     T2GenericReaction.obj
 0002:0000129c       ??_7CNetMsg_GenericReaction@@6B@ 1002229c     T2GenericReaction.obj
 0002:000012ac       ??_C@_0BG@HDBCGOHA@Marshalled?5?$CFd?5events?4?$AA@ 100222ac     T2GenericReaction.obj
 0002:000012c4       ??_C@_0DA@LGMMDDAF@Reaction?5receive?5?$CI?$CFs?$CJ?3?5too?5many?5@ 100222c4     T2GenericReaction.obj
 0002:000012f4       ??_7CNetMsg_PlayerDeath@@6B@ 100222f4     T2PlayerDeath.obj
 0002:00001304       ??_7CNetMsg_ScriptMsg@@6B@ 10022304     T2ScriptMsg.obj
 0002:00001314       ??_C@_07ONDCJMBK@NetFrob?$AA@ 10022314     T2ScriptMsg.obj
 0002:0000131c       ??_C@_09NIGMFFPO@IPAddress?$AA@ 1002231c     ConnectDialog.obj
 0002:00001328       ??_C@_07DFKCFAEM@History?$AA@ 10022328     ConnectDialog.obj
 0002:00001330       ??_C@_0O@KEJIHCOP@?4?2ThiefMP?4ini?$AA@ 10022330     ConnectDialog.obj
 0002:00001340       ??_7CEEditBox@EngCtrls@@6B@ 10022340     ConnectDialog.obj
 0002:0000134c       ??_C@_0BE@OIHDPBIA@Connecting?5to?5?$CFs?4?4?4?$AA@ 1002234c     ConnectDialog.obj
 0002:00001360       ??_C@_0CF@GIPGKGB@Failed?5to?5display?5connect?5dialog@ 10022360     ConnectDialog.obj
 0002:00001388       ??_7HistoryItem@@6B@       10022388     ConsoleGUI.obj
 0002:0000138c       ??_C@_01CLKCMJKC@?5?$AA@   1002238c     ConsoleGUI.obj
 0002:00001390       ??_C@_0BN@HFAMOHFC@Failed?5to?5load?5accelerators?4?$AA@ 10022390     ConsoleGUI.obj
 0002:000013b0       ??_C@_0L@MMPOCMJB@m_hConsole?$AA@ 100223b0     ConsoleGUI.obj
 0002:000013bc       ??_C@_0CD@NGEGACJL@?2Dev?2ThiefMP?2source?2ConsoleGUI?4c@ 100223bc     ConsoleGUI.obj
 0002:000013e0       ??_C@_0BB@MOGOBHAF@list?$DMT?$DO?5too?5long?$AA@ 100223e0     ConsoleGUI.obj
 0002:000013f4       ??_C@_0DC@KFOJEOLC@m_OutputEdit?4GetHandle?$CI?$CJ?5?$CG?$CG?5m_Ed@ 100223f4     ConsoleGUI.obj
 0002:00001428       ??_C@_0N@DBHFFKIC@CreateDialog?$AA@ 10022428     ConsoleGUI.obj
 0002:00001438       ??_C@_05DJGEADJI@hInst?$AA@ 10022438     ConsoleGUI.obj
 0002:00001440       ??_7CConsoleBase@@6B@      10022440     ConsoleGUI.obj
 0002:00001458       ??_C@_0CD@HGHHNNGL@You?5are?5not?5connected?5to?5a?5serve@ 10022458     ConsoleGUI.obj
 0002:0000147c       ??_C@_0BB@HHBEAPOL@Unknown?5command?4?$AA@ 1002247c     ConsoleGUI.obj
 0002:00001490       ??_7CThiefConsole@@6B@     10022490     DarkWinGui.obj
 0002:000014a8       ??_7CEButton@EngCtrls@@6B@ 100224a8     HostDialog.obj
 0002:000014a8       ??_7CEComboBox@EngCtrls@@6B@ 100224a8     DarkWinGui.obj
 0002:000014a8       ??_7CEListView@EngCtrls@@6B@ 100224a8     ServerBrowser.obj
 0002:000014a8       ??_7CEListBox@EngCtrls@@6B@ 100224a8     DarkWinGui.obj
 0002:000014b0       ??_C@_0DE@FPHCGNBD@Would?5you?5like?5to?5disconnect?5fro@ 100224b0     DarkWinGui.obj
 0002:000014e4       ??_C@_0BC@CHJKDKGL@Already?5Connected?$AA@ 100224e4     DarkWinGui.obj
 0002:000014f8       ??_7InterfaceManager@@6B@  100224f8     DarkWinGui.obj
 0002:0000150c       ??_C@_0CF@LAPPBGNE@Failed?5to?5create?5server?5browser?3@ 1002250c     DarkWinGui.obj
 0002:00001534       ??_C@_0BL@CCHFLBN@Disconnected?5from?5session?4?$AA@ 10022534     DarkWinGui.obj
 0002:00001550       ??_C@_0M@NKKMOLJN@MenuEnabled?$AA@ 10022550     DarkWinGui.obj
 0002:0000155c       ??_C@_0CM@JMKADAJE@Shouldn?8t?5have?5tried?5to?5create?5d@ 1002255c     DarkWinGui.obj
 0002:00001588       ??_C@_0CA@MBADGHIF@?$CFs?5build?5?$CFd?0?5compiled?5on?5?$CFs?5?$CFs?4?$AA@ 10022588     DarkWinGui.obj
 0002:000015a8       ??_C@_07LHBDFJPO@Release?$AA@ 100225a8     DarkWinGui.obj
 0002:000015b0       ??_C@_0M@JHOPOMMC@Dec?520?52010?$AA@ 100225b0     DarkWinGui.obj
 0002:000015bc       ??_C@_08CHLDAFJI@22?345?324?$AA@ 100225bc     DarkWinGui.obj
 0002:000015c8       ??_C@_0BF@MBEIJBFH@Console?5initialized?4?$AA@ 100225c8     DarkWinGui.obj
 0002:000015e0       ??_C@_0BC@DKNCBNEB@Thief?5Multiplayer?$AA@ 100225e0     DarkWinGui.obj
 0002:000015f4       ??_C@_02DPKJAMEF@?$CFd?$AA@ 100225f4     HostDialog.obj
 0002:000015f8       ??_C@_07PLHEGJFB@Mission?$AA@ 100225f8     HostDialog.obj
 0002:00001600       ??_C@_01GBGANLPD@0?$AA@    10022600     HostDialog.obj
 0002:00001604       ??_C@_01BMBHCPLG@5?$AA@    10022604     HostDialog.obj
 0002:00001608       ??_C@_06LGMEBDBC@Server?$AA@ 10022608     HostDialog.obj
 0002:00001610       ??_C@_05MKDOIIA@False?$AA@ 10022610     HostDialog.obj
 0002:00001618       ??_C@_04HPMIDMKH@True?$AA@ 10022618     HostDialog.obj
 0002:00001620       ??_C@_0L@KPFJECFH@cash_bonus?$AA@ 10022620     HostDialog.obj
 0002:0000162c       ??_C@_08CPGDBFMK@missflag?$AA@ 1002262c     HostDialog.obj
 0002:00001638       ??_C@_07OAJOIMIL@strings?$AA@ 10022638     HostDialog.obj
 0002:00001640       ??_C@_07FAKAEMOG@miss_?$CFd?$AA@ 10022640     HostDialog.obj
 0002:00001648       ??_C@_0O@IEFKIBLF@Saved?5Game?4?4?4?$AA@ 10022648     HostDialog.obj
 0002:00001658       ??_C@_07PAOJMLNB@?$CFd?5?9?5?$CFs?$AA@ 10022658     HostDialog.obj
 0002:00001660       ??_C@_06GCODKHGB@titles?$AA@ 10022660     HostDialog.obj
 0002:00001668       ??_C@_08OBKHDEGA@title_?$CFd?$AA@ 10022668     HostDialog.obj
 0002:00001674       ??_C@_0M@PCGKGEOC@Cooperative?$AA@ 10022674     HostDialog.obj
 0002:00001680       ??_C@_0BJ@GCJLCOJC@CHostDialog?3?3DisplayPage?$AA@ 10022680     HostDialog.obj
 0002:0000169c       ??_C@_0CC@MPLICHJD@CMissionSelectDialog?3?3DisplayPag@ 1002269c     MissSelect.obj
 0002:000016c0       ??_C@_05GFKHAFNF@Basso?$AA@ 100226c0     PlayerSettings.obj
 0002:000016c8       ??_C@_07CCACMEOK@Servant?$AA@ 100226c8     PlayerSettings.obj
 0002:000016d0       ??_C@_06BFFONFPF@Keeper?$AA@ 100226d0     PlayerSettings.obj
 0002:000016d8       ??_C@_05ELPFFFFC@Thief?$AA@ 100226d8     PlayerSettings.obj
 0002:000016e0       ??_C@_07EFOPMIBJ@Garrett?$AA@ 100226e0     PlayerSettings.obj
 0002:000016e8       ??_C@_0CD@FFDEMFDL@CPlayerSettingsDialog?3?3DisplayPa@ 100226e8     PlayerSettings.obj
 0002:0000170c       __real@00000000            1002270c     Client.obj
 0002:00001710       ??_C@_0CD@IMKEGELI@Time?5limit?5reached?4?5Game?5ending?4@ 10022710     Client.obj
 0002:00001738       ??_C@_0EO@LKINBHHC@You?5have?5been?5removed?5from?5the?5g@ 10022738     Client.obj
 0002:00001788       ??_C@_0CF@DHINLAPO@You?5have?5been?5removed?5from?5the?5g@ 10022788     Client.obj
 0002:000017b0       ??_C@_0CH@MDCDCODB@Host?5has?5left?5the?5game?4?5Game?5end@ 100227b0     Client.obj
 0002:000017d8       ??_7CClient@@6B@           100227d8     Client.obj
 0002:000017dc       ??_C@_0DD@EEPEEABI@Level?3?5?$CFd?5Exposure?3?5?$CFd?5Rating?5?$CFd@ 100227dc     Client.obj
 0002:00001810       ??_C@_0BI@BBCLEHFJ@Queue?5?$CFd?6Queue?5peak?3?5?$CFd?$AA@ 10022810     Client.obj
 0002:00001828       ??_C@_0HC@LBNHFOPI@Ping?3?5?$CFd?6Packets?5dropped?3?5?$CFd?6Tim@ 10022828     Client.obj
 0002:000018a0       ??_C@_0HC@MEJEACCL@ftime?5?$CFd?6stime?5?$CFd?6forward?5?$CF0?44f?6@ 100228a0     Client.obj
 0002:00001914       __real@3f800000            10022914     Client.obj
 0002:00001918       ??_C@_0BC@PBOGJJLK@DisableNetPhysCap?$AA@ 10022918     Client.obj
 0002:0000192c       ??_C@_0BH@BNAMAPIP@?$CFs?3?5client?5vars?5reset?4?$AA@ 1002292c     Client.obj
 0002:00001944       ??_C@_0BF@MGIFPAAP@CClient?3?3OnLoadWorld?$AA@ 10022944     Client.obj
 0002:0000195c       __real@4f800000            1002295c     Client.obj
 0002:00001960       __real@3d23d70a            10022960     Client.obj
 0002:00001964       __real@3ca3d70a            10022964     Client.obj
 0002:00001968       ??_C@_0BB@IBCFIIJD@DistanceModifier?$AA@ 10022968     Client.obj
 0002:0000197c       ??_C@_09OAPPKFLI@VisCapMin?$AA@ 1002297c     Client.obj
 0002:00001988       ??_C@_08NHFCAFLF@AIAttack?$AA@ 10022988     Client.obj
 0002:00001994       __real@3ef0a3d7            10022994     Client.obj
 0002:00001998       ??_C@_0BL@MOBIENFE@g_pNetMan?9?$DOAmDefaultHost?$CI?$CJ?$AA@ 10022998     Client.obj
 0002:000019b4       ??_C@_0BP@ODLHDDNO@?2Dev?2ThiefMP?2source?2Client?4cpp?$AA@ 100229b4     Client.obj
 0002:000019d4       ??_C@_0BG@LMCGKFHH@g_Net?5?$DN?$DN?5STATE_Client?$AA@ 100229d4     ClientPacketHandler.obj
 0002:000019ec       ??_C@_0CM@OEPPLLBC@?2Dev?2ThiefMP?2source?2ClientPacket@ 100229ec     ClientPacketHandler.obj
 0002:00001a18       ??_C@_0FF@LGKBOLGG@Frob?5receive?3?5ms?5down?5?$CFd?0?5source@ 10022a18     ClientPacketHandler.obj
 0002:00001a70       ??_C@_0M@NDGAEHFO@giveobj?3?5?$CFs?$AA@ 10022a70     ClientPacketHandler.obj
 0002:00001a7c       ??_C@_0N@NEANKBKJ@auto_equip?51?$AA@ 10022a7c     ClientPacketHandler.obj
 0002:00001a8c       ??_C@_0N@MNBGJAOI@auto_equip?50?$AA@ 10022a8c     ClientPacketHandler.obj
 0002:00001a9c       ??_C@_0BB@GBFKFKJ@echo?5$auto_equip?$AA@ 10022a9c     ClientPacketHandler.obj
 0002:00001ab0       ??_C@_01HIHLOKLC@1?$AA@    10022ab0     ClientPacketHandler.obj
 0002:00001ab4       ??_C@_0M@KNEAAINI@pickup_loot?$AA@ 10022ab4     ClientPacketHandler.obj
 0002:00001ac0       ??_C@_0CN@KFKFECDN@Failed?5to?5attach?5weapon?5to?5?$CFd?3?5n@ 10022ac0     ClientPacketHandler.obj
 0002:00001af0       ??_C@_0BM@GDBIDGLD@?$CBg_pNetMan?9?$DOAmDefaultHost?$CI?$CJ?$AA@ 10022af0     ClientPacketHandler.obj
 0002:00001b0c       ??_C@_0DE@MCLJHIPE@Failed?5to?5get?5player?5name?5for?5DP@ 10022b0c     ClientPacketHandler.obj
 0002:00001b40       ??_C@_08CGKDMPLI@Chat?4log?$AA@ 10022b40     ClientPacketHandler.obj
 0002:00001b4c       ??_C@_06DJHOIPC@?$CFs?3?5?$CFs?$AA@ 10022b4c     ClientPacketHandler.obj
 0002:00001b54       ??_C@_0BC@CHJNCCME@Message?5too?5long?$CB?$AA@ 10022b54     ClientPacketHandler.obj
 0002:00001b68       ??_C@_0L@DDHCOMKD@miss?$CFd?4mis?$AA@ 10022b68     ClientPacketHandler.obj
 0002:00001b74       ??_C@_0N@KPEDNMNP@motiondb?4bin?$AA@ 10022b74     ClientPacketHandler.obj
 0002:00001b84       ??_C@_0DM@BJINBMEA@Disconnecting?5?$CFs?3?5gamesys?5file?5d@ 10022b84     ClientPacketHandler.obj
 0002:00001bc0       ??_C@_0DM@BIPMEBKF@Disconnecting?5?$CFs?3?5mission?5file?5d@ 10022bc0     ClientPacketHandler.obj
 0002:00001c00       ??_C@_0EB@MDGOEHDI@Disconnecting?5?$CFs?3?5motiondb?4bin?5f@ 10022c00     ClientPacketHandler.obj
 0002:00001c44       ??_C@_0N@KALONGFF@?$CFs?5has?5died?4?$AA@ 10022c44     ClientPacketHandler.obj
 0002:00001c54       ??_C@_0BB@LJEMNEPG@?$CFs?5was?5?$CFs?5by?5?$CFs?4?$AA@ 10022c54     ClientPacketHandler.obj
 0002:00001c68       ??_C@_05KAKLJNJP@slain?$AA@ 10022c68     ClientPacketHandler.obj
 0002:00001c70       ??_C@_06KGGGBDJD@killed?$AA@ 10022c70     ClientPacketHandler.obj
 0002:00001c78       ??_C@_0P@NLHNNEFJ@?$CFs?3?5exception?4?$AA@ 10022c78     ClientPacketHandler.obj
 0002:00001c88       ??_C@_0BM@CGOHNBEG@PacketHandler?3?3HandleSpeech?$AA@ 10022c88     ClientPacketHandler.obj
 0002:00001ca8       ??_C@_0FG@LCECFFFG@Received?5speech?3?5obj?5?$CFd?0?5schema?5@ 10022ca8     ClientPacketHandler.obj
 0002:00001d00       ??_C@_0EM@FNJKLMOC@Exception?5occurred?5while?5handlin@ 10022d00     ClientPacketHandler.obj
 0002:00001d4c       ??_C@_05GFDKCJGP@pInfo?$AA@ 10022d4c     ClientPacketHandler.obj
 0002:00001d54       ??_C@_0BG@FMENPKFF@Received?5reaction?5?$CFs?4?$AA@ 10022d54     ClientPacketHandler.obj
 0002:00001d6c       ??_C@_0CO@OPNNFNF@Dropping?5reaction?5packet?3?5?$CFs?5not@ 10022d6c     ClientPacketHandler.obj
 0002:00001d9c       ??_C@_0DE@GOJMILGN@Dropping?5reaction?5packet?3?5object@ 10022d9c     ClientPacketHandler.obj
 0002:00001dd0       ??_C@_0BO@NLDKGGPF@Transferee?8s?5voice?5set?5to?5?$CFs?4?$AA@ 10022dd0     ClientPacketHandler.obj
 0002:00001df0       ??_C@_0CA@KAKBGJPJ@ERROR?3?5AI?5handoff?5failed?5for?5?$CFs?$AA@ 10022df0     ClientPacketHandler.obj
 0002:00001e10       ??_C@_0BH@NPPOEFDD@Making?5full?5AI?5for?5?$CFs?4?$AA@ 10022e10     ClientPacketHandler.obj
 0002:00001e28       ??_C@_0CD@MPJOIGMJ@Exception?5handling?5script?5messag@ 10022e28     ClientPacketHandler.obj
 0002:00001e4c       ??_C@_0BM@DBLICKED@Got?5unknown?5packet?5type?5?$CFd?4?$AA@ 10022e4c     ClientPacketHandler.obj
 0002:00001e68       __real@42700000            10022e68     ClientSynch.obj
 0002:00001e6c       ??_C@_0M@JNJFJJDM@Synching?4?4?4?$AA@ 10022e6c     ClientSynch.obj
 0002:00001e78       ??_C@_08PNEHKIBK@UseDDFix?$AA@ 10022e78     Config.obj
 0002:00001e84       ??_C@_08DMNNOKNK@Teleport?$AA@ 10022e84     Config.obj
 0002:00001e90       ??_C@_0N@JPKPMMBK@Transparency?$AA@ 10022e90     Config.obj
 0002:00001ea0       ??_C@_0P@HAAAMBMC@Thief?52?5Server?$AA@ 10022ea0     Config.obj
 0002:00001eb0       ??_C@_0BB@GEJAMCD@AutomapMouseMode?$AA@ 10022eb0     Config.obj
 0002:00001ec4       ??_C@_08GNOMADNI@Overlays?$AA@ 10022ec4     Config.obj
 0002:00001ed0       ??_C@_04IFEHPILC@Menu?$AA@ 10022ed0     Config.obj
 0002:00001ed8       ??_C@_0BG@LEHAJHE@HeartbeatFrequencyMax?$AA@ 10022ed8     Config.obj
 0002:00001ef0       ??_C@_07BGDMAJAE@Network?$AA@ 10022ef0     Config.obj
 0002:00001ef8       ??_C@_0O@GFFECIBH@Global?5Server?$AA@ 10022ef8     Config.obj
 0002:00001f08       ??_C@_0BD@CHLAGMMG@t2mp?4servegame?4com?$AA@ 10022f08     Config.obj
 0002:00001f1c       ??_C@_09GADAEMMB@TextColor?$AA@ 10022f1c     Config.obj
 0002:00001f28       ??_C@_07ECEMPDJM@General?$AA@ 10022f28     Config.obj
 0002:00001f30       ??_C@_05GCIPIGEI@Debug?$AA@ 10022f30     Config.obj
 0002:00001f38       ??_C@_0BF@PFFINNOD@AllowJoinsInProgress?$AA@ 10022f38     Config.obj
 0002:00001f50       ??_C@_05HDIPJJLA@?1help?$AA@ 10022f50     Console.obj
 0002:00001f58       ??_C@_05KFIJMCHK@?1test?$AA@ 10022f58     Console.obj
 0002:00001f60       ??_C@_0CK@EJIGFNKD@Draw?5visibility?5stats?5for?5highli@ 10022f60     Console.obj
 0002:00001f8c       ??_C@_04CJPMCFIM@?1vst?$AA@ 10022f8c     Console.obj
 0002:00001f94       ??_C@_0L@CIFNLLLA@?1vis_stats?$AA@ 10022f94     Console.obj
 0002:00001fa0       ??_C@_0CD@PJJLKBDD@Set?5transparency?5distance?5modifi@ 10022fa0     Console.obj
 0002:00001fc4       ??_C@_03HEIDPBKE@?1td?$AA@ 10022fc4     Console.obj
 0002:00001fc8       ??_C@_0BA@JOMBOPDP@?1trans_distance?$AA@ 10022fc8     Console.obj
 0002:00001fd8       ??_C@_0BM@GPCEJMIA@Set?5max?5player?5transparency?$AA@ 10022fd8     Console.obj
 0002:00001ff4       ??_C@_03KFEBEKON@?1tm?$AA@ 10022ff4     Console.obj
 0002:00001ff8       ??_C@_0L@DHGJDGGM@?1trans_max?$AA@ 10022ff8     Console.obj
 0002:00002004       ??_C@_0DD@PKFBMBFD@?$DMcoords?$DO?5Move?5to?5the?5specified?5x@ 10023004     Console.obj
 0002:00002038       ??_C@_03FKCNCGPB@?1tp?$AA@ 10023038     Console.obj
 0002:0000203c       ??_C@_09FPJEMPM@?1teleport?$AA@ 1002303c     Console.obj
 0002:00002048       ??_C@_0O@BKOCIDBA@Show?5sim?5time?$AA@ 10023048     Console.obj
 0002:00002058       ??_C@_03DLAOPFHA@?1st?$AA@ 10023058     Console.obj
 0002:0000205c       ??_C@_09KBOJCFEE@?1sim_time?$AA@ 1002305c     Console.obj
 0002:00002068       ??_C@_0CC@DGHCEGCP@Reinitialize?5sound?5effects?5syste@ 10023068     Console.obj
 0002:0000208c       ??_C@_05FPBDPJOD@?1sfxr?$AA@ 1002308c     Console.obj
 0002:00002094       ??_C@_0L@HCMOAOHA@?1sfx_reset?$AA@ 10023094     Console.obj
 0002:000020a0       ??_C@_0DF@EOBLOMNI@?$DMobj?5name?$DO?5Create?5an?5object?5at?5t@ 100230a0     Console.obj
 0002:000020d8       ??_C@_02DHLNANAF@?1s?$AA@  100230d8     Console.obj
 0002:000020dc       ??_C@_07CMPPFALO@?1summon?$AA@ 100230dc     Console.obj
 0002:000020e4       ??_C@_0BC@JBLCIJOM@Kill?5local?5player?$AA@ 100230e4     Console.obj
 0002:000020f8       ??_C@_05JIIOABIF@?1kill?$AA@ 100230f8     Console.obj
 0002:00002100       ??_C@_08DICCNIEE@?1suicide?$AA@ 10023100     Console.obj
 0002:0000210c       ??_C@_0BP@BCKJEEAH@Reload?5settings?5from?5?4ini?5file?$AA@ 1002310c     Console.obj
 0002:0000212c       ??_C@_02COKGDMEE@?1r?$AA@  1002312c     Console.obj
 0002:00002130       ??_C@_07OOEGHNCK@?1reload?$AA@ 10023130     Console.obj
 0002:00002138       ??_C@_0BK@JEFACNBP@?$DMqvar?$DO?5Get?5quest?5variable?$AA@ 10023138     Console.obj
 0002:00002154       ??_C@_03FJGFGAIM@?1qg?$AA@ 10023154     Console.obj
 0002:00002158       ??_C@_0L@OOGGFEBJ@?1quest_get?$AA@ 10023158     Console.obj
 0002:00002164       ??_C@_0BL@MLOOMLCA@Display?5objectives?5overlay?$AA@ 10023164     Console.obj
 0002:00002180       ??_C@_0N@MGJFLAHA@?1obj_overlay?$AA@ 10023180     Console.obj
 0002:00002190       ??_C@_0BM@DAIEPDCJ@Display?5highlighted?5obj?5num?$AA@ 10023190     Console.obj
 0002:000021ac       ??_C@_04OLPCBNBE@?1ohi?$AA@ 100231ac     Console.obj
 0002:000021b4       ??_C@_0N@IBODFEJD@?1obj_highlit?$AA@ 100231b4     Console.obj
 0002:000021c4       ??_C@_0BN@NAECBKCN@?$DMobj?5name?$DO?5Display?5object?5ID?$AA@ 100231c4     Console.obj
 0002:000021e4       ??_C@_03NBFOMDHI@?1oi?$AA@ 100231e4     Console.obj
 0002:000021e8       ??_C@_07IEDCOMCF@?1obj_id?$AA@ 100231e8     Console.obj
 0002:000021f0       ??_C@_0CB@GGKNBADE@?$DMobj?5num?$DO?5Display?5object?5details@ 100231f0     Console.obj
 0002:00002214       ??_C@_03GEPALNDF@?1od?$AA@ 10023214     Console.obj
 0002:00002218       ??_C@_0N@OHOKJNPC@?1obj_details?$AA@ 10023218     Console.obj
 0002:00002228       ??_C@_0BL@HKGKHLEI@Display?5all?5player?5objects?$AA@ 10023228     Console.obj
 0002:00002244       ??_C@_03EKFOGKGA@?1op?$AA@ 10023244     Console.obj
 0002:00002248       ??_C@_0N@NFGGJJFJ@?1obj_players?$AA@ 10023248     Console.obj
 0002:00002258       ??_C@_0BD@FOOMPNFB@Draw?5network?5stats?$AA@ 10023258     Console.obj
 0002:0000226c       ??_C@_04LMFBFKPM@?1nst?$AA@ 1002326c     Console.obj
 0002:00002274       ??_C@_0L@PANFIAKB@?1net_stats?$AA@ 10023274     Console.obj
 0002:00002280       ??_C@_0BG@NEHCIMDL@Display?5network?5state?$AA@ 10023280     Console.obj
 0002:00002298       ??_C@_03GALBFDJE@?1ns?$AA@ 10023298     Console.obj
 0002:0000229c       ??_C@_0L@OMENDFHG@?1net_state?$AA@ 1002329c     Console.obj
 0002:000022a8       ??_C@_0DF@KKKJLEDH@?$DMobj?5num?$DO?5Remove?5an?5item?5from?5th@ 100232a8     Console.obj
 0002:000022e0       ??_C@_03HMOFHEFA@?1ir?$AA@ 100232e0     Console.obj
 0002:000022e4       ??_C@_08GINCOIPL@?1inv_rem?$AA@ 100232e4     Console.obj
 0002:000022f0       ??_C@_0DG@NGHFPDKP@?$DMobj?1arch?5name?$DO?5Add?5an?5item?5to?5t@ 100232f0     Console.obj
 0002:00002328       ??_C@_03BNAKDFMC@?1ia?$AA@ 10023328     Console.obj
 0002:0000232c       ??_C@_08PKHOMBPE@?1inv_add?$AA@ 1002332c     Console.obj
 0002:00002338       ??_C@_0BH@IKOIKEHP@List?5all?5remote?5ghosts?$AA@ 10023338     Console.obj
 0002:00002350       ??_C@_0M@BGKCGEAE@?1ghost_list?$AA@ 10023350     Console.obj
 0002:0000235c       ??_C@_0DH@ELODMOCH@?$DMobj?1arch?5name?$DO?5Find?5all?5objects@ 1002335c     Console.obj
 0002:00002394       ??_C@_03BGFGHCPP@?1fa?$AA@ 10023394     Console.obj
 0002:00002398       ??_C@_09LLEOCIAN@?1find_all?$AA@ 10023398     Console.obj
 0002:000023a4       ??_C@_0CH@BGMIBLOP@?$DMobj?5num?$DO?5Enumerate?5container?5co@ 100233a4     Console.obj
 0002:000023cc       ??_C@_03KFDDMOFJ@?1cl?$AA@ 100233cc     Console.obj
 0002:000023d0       ??_C@_0O@EKOHMPA@?1contain_list?$AA@ 100233d0     Console.obj
 0002:000023e0       ??_C@_0BE@PNOOPAKA@Clear?5chat?5messages?$AA@ 100233e0     Console.obj
 0002:000023f4       ??_C@_06NBCADDBO@?1clear?$AA@ 100233f4     Console.obj
 0002:000023fc       ??_C@_0BO@ECHAIIDN@Toggle?5AI?5movement?5prediction?$AA@ 100233fc     Console.obj
 0002:0000241c       ??_C@_0P@ODGFHAD@?1ai_prediction?$AA@ 1002341c     Console.obj
 0002:0000242c       ??_C@_03CBEGHNOI@?$AN?6?$AA?$AA@ 1002342c     Console.obj
 0002:00002430       ??_C@_0BD@DBOLFBGP@Player?5?$CFd?3?5?$CFs?5?$CI?$CFx?$CJ?$AA@ 10023430     Console.obj
 0002:00002444       ??_C@_0N@IBCKNDIA@Sim?5time?3?5?$CFd?$AA@ 10023444     Console.obj
 0002:00002454       ??_C@_0BD@KADNBNMH@Reinitialized?5SFX?4?$AA@ 10023454     Console.obj
 0002:00002468       ??_C@_0BD@OLDKCIFL@Settings?5reloaded?4?$AA@ 10023468     Console.obj
 0002:0000247c       ??_C@_0BH@NGJGLGPE@coords?3?5x?5?$CFf?5y?5?$CFf?5z?5?$CFf?$AA@ 1002347c     Console.obj
 0002:00002494       ??_C@_0BL@NDAFHEPB@Teleported?5to?5coordinates?4?$AA@ 10023494     Console.obj
 0002:000024b0       ??_C@_0BN@GMGABFDN@Teleported?5to?5last?5location?4?$AA@ 100234b0     Console.obj
 0002:000024d0       ??_C@_08FDEKCAPF@?5?$CFs?5?9?5?$CFs?$AA@ 100234d0     Console.obj
 0002:000024dc       ??_C@_0BB@KGBEKPAB@Highlit?5obj?3?5?$CFd?4?$AA@ 100234dc     Console.obj
 0002:000024f0       ??_C@_0BD@FONHNAE@objectives_overlay?$AA@ 100234f0     Console.obj
 0002:00002504       ??_C@_0BC@CIAPMGGG@Not?5network?5game?4?$AA@ 10023504     Console.obj
 0002:00002518       ??_C@_0CC@KCKLHOFB@Client?5in?5a?5game?5with?5?$CFd?5players@ 10023518     Console.obj
 0002:0000253c       ??_C@_0CA@CKONIOBL@Hosting?5a?5game?5with?5?$CFd?5players?4?$AA@ 1002353c     Console.obj
 0002:0000255c       ??_C@_02DKCKIIND@?$CFs?$AA@ 1002355c     Console.obj
 0002:00002560       ??_C@_0BF@JFDHLIGA@Inventory?5contains?3?5?$AA@ 10023560     Console.obj
 0002:00002578       ??_C@_0CA@BBANGNGF@Unable?5to?5find?5object?5named?5?$CFs?4?$AA@ 10023578     Console.obj
 0002:00002598       ??_C@_0CC@CHHIDFDA@Failed?5to?5add?5object?5to?5inventor@ 10023598     Console.obj
 0002:000025bc       ??_C@_0BJ@OHOGLNLN@Failed?5to?5remove?5object?4?$AA@ 100235bc     Console.obj
 0002:000025d8       ??_C@_0M@PJGDBPPI@Removed?5?$CFs?4?$AA@ 100235d8     Console.obj
 0002:000025e4       ??_C@_0BJ@PCFONGAE@Failed?5to?5create?5object?4?$AA@ 100235e4     Console.obj
 0002:00002600       ??_C@_0BO@KLDGIPBH@Created?5an?5object?5with?5ID?5?$CFd?4?$AA@ 10023600     Console.obj
 0002:00002620       ??_C@_0BH@BFEAMEC@Object?5does?5not?5exist?4?$AA@ 10023620     Console.obj
 0002:00002638       ??_C@_0BK@NLFNNBGO@?5?5Location?5controlled?3?5?$CFd?$AA@ 10023638     Console.obj
 0002:00002654       ??_C@_0BH@DFEKFKML@?5?5Phys?5friction?3?5?$CF0?42f?$AA@ 10023654     Console.obj
 0002:0000266c       ??_C@_0BP@JBKEKIMO@?5?5Phys?5model?5elasticity?3?5?$CF0?42f?$AA@ 1002366c     Console.obj
 0002:0000268c       ??_C@_0CD@BPFBHCB@?5?5Phys?5mass?3?5?$CF0?42f?5?$CIphysmod?5?$CF0?42@ 1002368c     Console.obj
 0002:000026b0       ??_C@_0BG@NFKKIKFG@?5?5Phys?5gravity?3?5?$CF0?42f?$AA@ 100236b0     Console.obj
 0002:000026c8       ??_C@_0BJ@DPFMLFPB@?5?5Phys?5model?5flags?3?50x?$CFx?$AA@ 100236c8     Console.obj
 0002:000026e4       ??_C@_0BI@EKNFJGJB@?5?5Physics?5submodels?3?5?$CFd?$AA@ 100236e4     Console.obj
 0002:000026fc       ??_C@_0BC@KBCHGEPG@?5?5Creature?5?$DN?50x?$CFX?$AA@ 100236fc     Console.obj
 0002:00002710       ??_C@_0BE@NLDGOLKD@?5?5Contained?5by?3?5?$CFs?4?$AA@ 10023710     Console.obj
 0002:00002724       ??_C@_0CK@IOCBACMO@?5?5Object?5has?5an?5unknown?5network?5@ 10023724     Console.obj
 0002:00002750       ??_C@_0BI@CJODFJDP@?5?5Object?5is?5local?5only?4?$AA@ 10023750     Console.obj
 0002:00002768       ??_C@_0BK@DNMKPAFG@?5?5Object?5is?5hosted?5by?5?$CFd?4?$AA@ 10023768     Console.obj
 0002:00002784       ??_C@_0BM@JDCKHACA@?5?5Object?5is?5hosted?5locally?4?$AA@ 10023784     Console.obj
 0002:000027a0       ??_C@_0DE@JLLMNH@?5?5Velocity?3?5?$CF0?42f?5?$CF0?42f?5?$CF0?42f?5?9?5@ 100237a0     Console.obj
 0002:000027d4       ??_C@_0BO@HJJFCFKJ@?5?5Distance?5from?5player?3?5?$CF0?42f?$AA@ 100237d4     Console.obj
 0002:000027f4       ??_C@_0BO@OPHFDAAE@?5?5Position?3?5?$CF0?43f?5?$CF0?43f?5?$CF0?43f?$AA@ 100237f4     Console.obj
 0002:00002814       ??_C@_0CB@LJJBJFGH@?5?5Speech?3?5schema?5?$CFs?0?5concept?5?$CFs?4@ 10023814     Console.obj
 0002:00002838       ??_C@_0CL@EGGPNKEP@?5?5Frob?5info?3?5world?5?$DN?5?$CFx?5inv?5?$DN?5?$CFx@ 10023838     Console.obj
 0002:00002864       ??_C@_0BB@EAEDGLCC@?5?5Hit?5points?3?5?$CFd?$AA@ 10023864     Console.obj
 0002:00002878       ??_C@_0BB@MDJHDBGM@?5?5Model?5name?3?5?$CFs?$AA@ 10023878     Console.obj
 0002:0000288c       ??_C@_0BA@NDIDNPDH@?5?5Archetype?3?5?$CFs?$AA@ 1002388c     Console.obj
 0002:0000289c       ??_C@_0BH@KPJIACLA@Details?5for?5object?5?$CFs?3?$AA@ 1002389c     Console.obj
 0002:000028b4       ??_C@_0M@FANDMGBF@qvar?5?$CFs?3?5?$CFd?$AA@ 100238b4     Console.obj
 0002:000028c0       ??_C@_0BB@GECIMJFF@?$CK?$CK?$CK?5END?5LIST?5?$CK?$CK?$CK?$AA@ 100238c0     Console.obj
 0002:000028d4       ??_C@_0BC@PNPHDHBF@?$CFs?3?5hosted?5by?5?$CFd?4?$AA@ 100238d4     Console.obj
 0002:000028e8       ??_C@_0BE@EANBNJHD@?$CK?$CK?$CK?5GHOST?5LIST?3?5?$CK?$CK?$CK?$AA@ 100238e8     Console.obj
 0002:000028fc       ??_C@_0M@PJLCEJJI@?$CFs?5is?5a?5?$CFs?4?$AA@ 100238fc     Console.obj
 0002:00002908       ??_C@_0BA@MBJJEIDM@overlay_players?$AA@ 10023908     Console.obj
 0002:00002918       ??_C@_0N@KGELPNJL@overlay_book?$AA@ 10023918     Console.obj
 0002:00002928       ??_C@_0M@BHEJEHC@showplayers?$AA@ 10023928     Console.obj
 0002:00002934       ??_C@_04BLJLMHHG@chat?$AA@ 10023934     Console.obj
 0002:0000293c       ??_C@_05BGIJDFHP@intro?$AA@ 1002393c     DarkPanels.obj
 0002:00002944       ??_C@_07JKABFLJI@credits?$AA@ 10023944     DarkPanels.obj
 0002:0000294c       ??_C@_08LFOMBGDL@smalfont?$AA@ 1002394c     DarkUIUtils.obj
 0002:00002958       ??_C@_08BPKLDJKM@textfont?$AA@ 10023958     DarkUIUtils.obj
 0002:00002964       ??_C@_04IEDBBIIG@Font?$AA@ 10023964     DarkUIUtils.obj
 0002:0000296c       ??_C@_08LFGJMOMF@intrface?$AA@ 1002396c     DarkUIUtils.obj
 0002:00002978       ??_C@_0L@FCMALLDM@DebugFlags?$AA@ 10023978     Debug.obj
 0002:00002988       __real@3f000000            10023988     DarkUIUtils.obj
 0002:0000298c       ??_C@_0CH@CKMIBFGC@false?5?$CG?$CG?5?$CCunexpected?5call?5to?5Add@ 1002398c     DP4Wrapper.obj
 0002:000029b4       ??_C@_0CD@KHPKEBAJ@?2Dev?2ThiefMP?2source?2DP4Wrapper?4c@ 100239b4     DP4Wrapper.obj
 0002:000029d8       ??_C@_0CP@EOEKIPPI@false?5?$CG?$CG?5?$CCunexpected?5call?5to?5Que@ 100239d8     DP4Wrapper.obj
 0002:00002a08       ??_C@_0BK@MNELMFAD@?$CFs?3?5method?5unimplemented?4?$AA@ 10023a08     DP4Wrapper.obj
 0002:00002a24       ??_C@_0BM@GFBDDBN@CDPWrapper?3?3AddGroupToGroup?$AA@ 10023a24     DP4Wrapper.obj
 0002:00002a40       ??_C@_0BN@DLLAAGL@CDPWrapper?3?3AddPlayerToGroup?$AA@ 10023a40     DP4Wrapper.obj
 0002:00002a60       ??_C@_0BK@HLKAMPEM@CDPWrapper?3?3CancelMessage?$AA@ 10023a60     DP4Wrapper.obj
 0002:00002a7c       ??_C@_0BL@MHNMKAJJ@CDPWrapper?3?3CancelPriority?$AA@ 10023a7c     DP4Wrapper.obj
 0002:00002a98       ??_C@_0BI@MMHELIOJ@CDPWrapper?3?3CreateGroup?$AA@ 10023a98     DP4Wrapper.obj
 0002:00002ab0       ??_C@_0BP@DCDMDGHA@CDPWrapper?3?3CreateGroupInGroup?$AA@ 10023ab0     DP4Wrapper.obj
 0002:00002ad0       ??_C@_0CC@EKOLBBNJ@Setting?5local?5client?5DPNID?5to?5?$CFx@ 10023ad0     DP4Wrapper.obj
 0002:00002af4       ??_C@_0CA@OBFMOOMO@Setting?5local?5host?5DPNID?5to?5?$CFx?4?$AA@ 10023af4     DP4Wrapper.obj
 0002:00002b14       ??_C@_0CB@HBFBKPIF@CDPWrapper?3?3DeleteGroupFromGroup@ 10023b14     DP4Wrapper.obj
 0002:00002b38       ??_C@_0CC@LNKNAGNI@CDPWrapper?3?3DeletePlayerFromGrou@ 10023b38     DP4Wrapper.obj
 0002:00002b5c       ??_C@_0BJ@JLDMBKON@CDPWrapper?3?3DestroyGroup?$AA@ 10023b5c     DP4Wrapper.obj
 0002:00002b78       ??_C@_0BM@NDHEJOIH@CDPWrapper?3?3EnumConnections?$AA@ 10023b78     DP4Wrapper.obj
 0002:00002b94       ??_C@_0BN@FHMHOHAD@CDPWrapper?3?3EnumGroupPlayers?$AA@ 10023b94     DP4Wrapper.obj
 0002:00002bb4       ??_C@_0BH@KMJMGDMI@CDPWrapper?3?3EnumGroups?$AA@ 10023bb4     DP4Wrapper.obj
 0002:00002bcc       ??_C@_0BO@INJDKJ@CDPWrapper?3?3EnumGroupsInGroup?$AA@ 10023bcc     DP4Wrapper.obj
 0002:00002bec       ??_C@_0CP@LCDOLALB@Calling?5destroy?5net?5player?5callb@ 10023bec     DP4Wrapper.obj
 0002:00002c1c       ??_C@_0CJ@NCBIKAKJ@Calling?5enum?5players?5callback?5fo@ 10023c1c     DP4Wrapper.obj
 0002:00002c48       ??_C@_0CI@KPODMHNC@Calling?5init?5existing?5player?5for@ 10023c48     DP4Wrapper.obj
 0002:00002c70       ??_C@_0DG@KMCMINBC@ERROR?3?5Failed?5to?5enumerate?5playe@ 10023c70     DP4Wrapper.obj
 0002:00002ca8       ??_C@_0BE@LHBGLMAC@CDPWrapper?3?3GetCaps?$AA@ 10023ca8     DP4Wrapper.obj
 0002:00002cbc       ??_C@_0CH@MMPBLBKK@CDPWrapper?3?3GetGroupConnectionSe@ 10023cbc     DP4Wrapper.obj
 0002:00002ce4       ??_C@_0BJ@MOHDHEMI@CDPWrapper?3?3GetGroupData?$AA@ 10023ce4     DP4Wrapper.obj
 0002:00002d00       ??_C@_0BK@EHHBKNGG@CDPWrapper?3?3GetGroupFlags?$AA@ 10023d00     DP4Wrapper.obj
 0002:00002d1c       ??_C@_0BJ@PDFIDBJC@CDPWrapper?3?3GetGroupName?$AA@ 10023d1c     DP4Wrapper.obj
 0002:00002d38       ??_C@_0BK@DFLCKPEE@CDPWrapper?3?3GetGroupOwner?$AA@ 10023d38     DP4Wrapper.obj
 0002:00002d54       ??_C@_0BL@MOOCKGOC@CDPWrapper?3?3GetGroupParent?$AA@ 10023d54     DP4Wrapper.obj
 0002:00002d70       ??_C@_0BM@DNHHILMK@CDPWrapper?3?3GetMessageCount?$AA@ 10023d70     DP4Wrapper.obj
 0002:00002d8c       ??_C@_0BM@EKIKJPGH@CDPWrapper?3?3GetMessageQueue?$AA@ 10023d8c     DP4Wrapper.obj
 0002:00002da8       ??_C@_0BN@PCIIMGPL@CDPWrapper?3?3GetPlayerAccount?$AA@ 10023da8     DP4Wrapper.obj
 0002:00002dc8       ??_C@_0BK@JGEDPIFK@CDPWrapper?3?3GetPlayerCaps?$AA@ 10023dc8     DP4Wrapper.obj
 0002:00002de4       ??_C@_0BL@NEONLPHD@CDPWrapper?3?3GetPlayerFlags?$AA@ 10023de4     DP4Wrapper.obj
 0002:00002e00       ??_C@_0BK@GGLFLJBP@CDPWrapper?3?3GetPlayerName?$AA@ 10023e00     DP4Wrapper.obj
 0002:00002e1c       ??_C@_0BL@PLCMANDI@CDPWrapper?3?3GetSessionDesc?$AA@ 10023e1c     DP4Wrapper.obj
 0002:00002e38       ??_C@_0BH@NJCGPKGI@CDPWrapper?3?3Initialize?$AA@ 10023e38     DP4Wrapper.obj
 0002:00002e50       ??_C@_0BG@JOCKIDDP@Host?5failed?3?5?$CFs?5?$CI?$CFx?$CJ?4?$AA@ 10023e50     DP4Wrapper.obj
 0002:00002e68       ??_C@_0BH@JFKNONLF@CDPWrapper?3?3SecureOpen?$AA@ 10023e68     DP4Wrapper.obj
 0002:00002e80       ??_C@_0BB@OAIEHJB@CDPWrapper?3?3Send?$AA@ 10023e80     DP4Wrapper.obj
 0002:00002e94       ??_C@_0BM@HKHHOOKC@CDPWrapper?3?3SendChatMessage?$AA@ 10023e94     DP4Wrapper.obj
 0002:00002eb0       ??_C@_0CH@PDMEHBLK@CDPWrapper?3?3SetGroupConnectionSe@ 10023eb0     DP4Wrapper.obj
 0002:00002ed8       ??_C@_0BJ@LKMNLIIE@CDPWrapper?3?3SetGroupData?$AA@ 10023ed8     DP4Wrapper.obj
 0002:00002ef4       ??_C@_0BJ@IHOGPNNO@CDPWrapper?3?3SetGroupName?$AA@ 10023ef4     DP4Wrapper.obj
 0002:00002f10       ??_C@_0BK@EKKMBMDD@CDPWrapper?3?3SetGroupOwner?$AA@ 10023f10     DP4Wrapper.obj
 0002:00002f2c       ??_C@_0BK@BJKLAKGI@CDPWrapper?3?3SetPlayerName?$AA@ 10023f2c     DP4Wrapper.obj
 0002:00002f48       ??_C@_0BL@DFDCPHBE@CDPWrapper?3?3SetSessionDesc?$AA@ 10023f48     DP4Wrapper.obj
 0002:00002f64       ??_C@_0BJ@HNGHPFBN@CDPWrapper?3?3StartSession?$AA@ 10023f64     DP4Wrapper.obj
 0002:00002f80       ??_C@_0CF@NCDFGDBF@Finished?5receiving?5existing?5play@ 10023f80     DP4Wrapper.obj
 0002:00002fa8       ??_7CDPWrapper@@6B@        10023fa8     DP4Wrapper.obj
 0002:0000307c       ??_C@_0BL@DKLMEMOF@Error?5in?5CoCreateInstance?4?$AA@ 1002407c     DP4Wrapper.obj
 0002:00003098       ??_C@_0CF@HAFLBNA@Attempted?5to?5get?5remote?5player?5d@ 10024098     DP4Wrapper.obj
 0002:000030c0       ??_C@_0EF@EAGDNIFL@DirectPlay?3?5setting?5player?5data?5@ 100240c0     DP4Wrapper.obj
 0002:00003108       ??_C@_0DO@LAPJKEGG@Debug?3?5Spring?5info?5array?5bounds?5@ 10024108     ErrorHanding.obj
 0002:00003148       ??_C@_0CN@LFCEGNDC@Recovered?5from?5collision?5resolve@ 10024148     ErrorHanding.obj
 0002:00003178       ??_C@_0DB@MEKEAEMB@Exception?5in?5loop?5sample?5callbac@ 10024178     ErrorHanding.obj
 0002:000031ac       ??_C@_0CH@FEJKGDFH@Sound?5propagation?5error?3?5?$CFs?5on?5?$CF@ 100241ac     ErrorHanding.obj
 0002:000031d4       ??_C@_0DK@EDLEJPIE@Exception?5in?5SpeechEnd?3?5tried?5to@ 100241d4     ErrorHanding.obj
 0002:00003210       ??_C@_0CK@OGMAMCCH@DEBUG?3?5vec?5?$CFd?5is?5null?5on?5vector?5@ 10024210     ErrorHanding.obj
 0002:0000323c       ??_C@_0CP@KLOJHGP@DEBUG?3?5vec?5?$CFd?5is?5null?5on?5vector?5@ 1002423c     ErrorHanding.obj
 0002:00003270       ??_C@_0BAG@CJKMHLAA@Could?5not?5find?5original?5version?5@ 10024270     FileHash.obj
 0002:00003378       ??_C@_0M@CKEEHMOG@convict?4osm?$AA@ 10024378     FileHash.obj
 0002:00003384       ??_C@_0CA@NIGHLBG@Thief?52?5Multiplayer?5Fatal?5Error?$AA@ 10024384     FileHash.obj
 0002:000033a4       ??_C@_07DANDDBIP@gen?4osm?$AA@ 100243a4     FileHash.obj
 0002:000033ac       ??_C@_0CC@LFADCEGO@acache?3?5?$CFs?5changed?5from?5?$CFd?5to?5?$CFd@ 100243ac     Gamesys.obj
 0002:000033d0       ??_C@_0BK@HHNJDPNI@acache?3?5failed?5to?5load?5?$CFs?$AA@ 100243d0     Gamesys.obj
 0002:000033ec       ??_C@_0BN@IKAKFCGH@acache?3?5Failed?5to?5create?5?$CFs?4?$AA@ 100243ec     Gamesys.obj
 0002:0000340c       ??_C@_09GBFECNMG@DonorType?$AA@ 1002440c     Gamesys.obj
 0002:00003418       ??_C@_0FB@JGNIBBBA@Arch?4AvatarWeapons?5?$CG?$CG?5Arch?4Avata@ 10024418     Gamesys.obj
 0002:0000346c       ??_C@_0CA@FLHINNIO@?2Dev?2ThiefMP?2source?2Gamesys?4cpp?$AA@ 1002446c     Gamesys.obj
 0002:0000348c       ??_C@_04NDCPHJKL@Swag?$AA@ 1002448c     Gamesys.obj
 0002:00003494       ??_C@_08IPCJNFPN@FakeLoot?$AA@ 10024494     Gamesys.obj
 0002:000034a0       ??_C@_0DE@MBEGAEEI@g_pTraitMan?9?$DOGetArchetype?$CImpAvat@ 100244a0     Gamesys.obj
 0002:000034d4       ??_C@_0CL@DDPIFLHP@success?5?$CG?$CG?5?$CCfailed?5to?5get?5script@ 100244d4     Gamesys.obj
 0002:00003500       ??_C@_05OHCDHBAC@Human?$AA@ 10024500     Gamesys.obj
 0002:00003508       ??_C@_06BALNJMNP@player?$AA@ 10024508     Gamesys.obj
 0002:00003510       ??_C@_0N@MGOGOLDL@Arch?4Garrett?$AA@ 10024510     Gamesys.obj
 0002:00003520       ??_C@_05GCALAAOD@basso?$AA@ 10024520     Gamesys.obj
 0002:00003528       ??_C@_08JEILJBCG@malsev01?$AA@ 10024528     Gamesys.obj
 0002:00003534       ??_C@_08PPLFEGHM@keeper01?$AA@ 10024534     Gamesys.obj
 0002:00003540       ??_C@_08MFEGGEBG@ThiefM02?$AA@ 10024540     Gamesys.obj
 0002:0000354c       ??_C@_04FKEOBDO@bow2?$AA@  1002454c     Gamesys.obj
 0002:00003554       ??_C@_08NDAGPFLN@blacjack?$AA@ 10024554     Gamesys.obj
 0002:00003560       ??_C@_06DIKMBGAM@swords?$AA@ 10024560     Gamesys.obj
 0002:00003568       ??_C@_03BHGKGIB@SFX?$AA@   10024568     Gamesys.obj
 0002:0000356c       ??_C@_0N@KLIGDAIF@Avatar?5Sword?$AA@ 1002456c     Gamesys.obj
 0002:0000357c       ??_C@_0BB@INDNNPEM@Avatar?5Blackjack?$AA@ 1002457c     Gamesys.obj
 0002:00003590       ??_C@_0L@KDOJEAGL@Avatar?5Bow?$AA@ 10024590     Gamesys.obj
 0002:0000359c       ??_C@_0P@MFLGANDH@Avatar?5Weapons?$AA@ 1002459c     Gamesys.obj
 0002:000035ac       ??_C@_09MGOOFHNO@pickup_?$CFs?$AA@ 100245ac     Gamesys.obj
 0002:000035b8       ??_7CGamesysManager@@6B@   100245b8     Gamesys.obj
 0002:000035bc       ??_C@_0BH@OJBLGODO@an?5exploding?5frogbeast?$AA@ 100245bc     Gamesys.obj
 0002:000035d4       ??_C@_09BGCAAEIJ@FrogSplat?$AA@ 100245d4     Gamesys.obj
 0002:000035e0       ??_C@_0BD@GBOOLFNJ@a?5Hammerite?5worker?$AA@ 100245e0     Gamesys.obj
 0002:000035f4       ??_C@_0L@PIFNNALN@ham?5worker?$AA@ 100245f4     Gamesys.obj
 0002:00003600       ??_C@_0BD@MNCPPKKL@a?5Hammerite?5novice?$AA@ 10024600     Gamesys.obj
 0002:00003614       ??_C@_0L@FEJMJPMP@ham?5novice?$AA@ 10024614     Gamesys.obj
 0002:00003620       ??_C@_0BD@KCBPDDPG@a?5Hammerite?5priest?$AA@ 10024620     Gamesys.obj
 0002:00003634       ??_C@_0L@DLKMFGJC@ham?5priest?$AA@ 10024634     Gamesys.obj
 0002:00003640       ??_C@_09MIHBMPO@hamguard2?$AA@ 10024640     Gamesys.obj
 0002:0000364c       ??_C@_0BC@FKIHMGLJ@a?5Hammerite?5guard?$AA@ 1002464c     Gamesys.obj
 0002:00003660       ??_C@_09OALDBILK@ham?5guard?$AA@ 10024660     Gamesys.obj
 0002:0000366c       ??_C@_08KPDLBKCL@a?5turret?$AA@ 1002466c     Gamesys.obj
 0002:00003678       ??_C@_06KJINBPNG@Turret?$AA@ 10024678     Gamesys.obj
 0002:00003680       ??_C@_07FMCPGAJD@a?5haunt?$AA@ 10024680     Gamesys.obj
 0002:00003688       ??_C@_05FMJPICNG@Haunt?$AA@ 10024688     Gamesys.obj
 0002:00003690       ??_C@_08LFCDMNDD@a?5zombie?$AA@ 10024690     Gamesys.obj
 0002:0000369c       ??_C@_0M@JDAAFMAO@ZombieTypes?$AA@ 1002469c     Gamesys.obj
 0002:000036a8       ??_C@_08HOMGAIJM@a?5bowman?$AA@ 100246a8     Gamesys.obj
 0002:000036b4       ??_C@_06LHMNDEPN@bowman?$AA@ 100246b4     Gamesys.obj
 0002:000036bc       ??_C@_0M@BMPBGKAB@a?5swordsman?$AA@ 100246bc     Gamesys.obj
 0002:000036c8       ??_C@_09LBMFGLKI@swordsman?$AA@ 100246c8     Gamesys.obj
 0002:000036d4       ??_C@_0M@JEKMLMKA@a?5Mechanist?$AA@ 100246d4     Gamesys.obj
 0002:000036e0       ??_C@_09DJJILNAJ@Mechanist?$AA@ 100246e0     Gamesys.obj
 0002:000036ec       ??_C@_0P@MLGHLAHI@a?5sewer?5spider?$AA@ 100246ec     Gamesys.obj
 0002:000036fc       ??_C@_0M@GIDENOMN@SewerSpider?$AA@ 100246fc     Gamesys.obj
 0002:00003708       ??_C@_0O@FEKLFOMB@a?5huge?5spider?$AA@ 10024708     Gamesys.obj
 0002:00003718       ??_C@_0L@CCPGCDOL@HugeSpider?$AA@ 10024718     Gamesys.obj
 0002:00003724       ??_C@_08NMFFOJJE@a?5Keeper?$AA@ 10024724     Gamesys.obj
 0002:00003730       ??_C@_0M@CKDNFMFF@KeeperAgent?$AA@ 10024730     Gamesys.obj
 0002:0000373c       ??_C@_07INFOPKBO@a?5robot?$AA@ 1002473c     Gamesys.obj
 0002:00003744       ??_C@_05INOOBIFL@Robot?$AA@ 10024744     Gamesys.obj
 0002:0000374c       ??_C@_07MDLBBFNO@a?5beast?$AA@ 1002474c     Gamesys.obj
 0002:00003754       ??_C@_05MDABPHJL@Beast?$AA@ 10024754     Gamesys.obj
 0002:0000375c       ??_C@_09CGIHFCJJ@a?5phantom?$AA@ 1002475c     Gamesys.obj
 0002:00003768       ??_C@_0O@POMGOBMD@an?5apparition?$AA@ 10024768     Gamesys.obj
 0002:00003778       ??_C@_0L@DPJAMFHG@Apparition?$AA@ 10024778     Gamesys.obj
 0002:00003784       ??_C@_0BD@FHFFPJHA@an?5undead?5creature?$AA@ 10024784     Gamesys.obj
 0002:00003798       ??_C@_06JEOFBLD@Undead?$AA@ 10024798     Gamesys.obj
 0002:000037a0       ??_C@_07ELEFLHBH@a?5thief?$AA@ 100247a0     Gamesys.obj
 0002:000037a8       ??_C@_05EMFJFAGE@thief?$AA@ 100247a8     Gamesys.obj
 0002:000037b0       ??_C@_07LIJMGLIJ@a?5guard?$AA@ 100247b0     Gamesys.obj
 0002:000037b8       ??_C@_05LPIAIMPK@guard?$AA@ 100247b8     Gamesys.obj
 0002:000037c0       ??_C@_08OEJLMEA@a?5spider?$AA@ 100247c0     Gamesys.obj
 0002:000037cc       ??_C@_06IPPLJLN@Spider?$AA@ 100247cc     Gamesys.obj
 0002:000037d4       ??_C@_0DJ@BCKBOCNP@?$CBg_pNetMan?9?$DONetworking?$CI?$CJ?5?$CG?$CG?5?$CCsho@ 100247d4     Gamesys.obj
 0002:00003810       ??_C@_0P@NGMEMAHJ@Extinguishable?$AA@ 10024810     Gamesys.obj
 0002:00003820       ??_C@_0L@FALBIPDP@mosscarpet?$AA@ 10024820     Gamesys.obj
 0002:0000382c       ??_C@_0N@LFMCGABB@CritterShots?$AA@ 1002482c     Gamesys.obj
 0002:0000383c       ??_C@_06LOJOHLIK@TrolPt?$AA@ 1002483c     Gamesys.obj
 0002:00003844       ??_C@_06IIPLDKDG@TerrPt?$AA@ 10024844     Gamesys.obj
 0002:0000384c       ??_C@_08CMMHADID@Flinders?$AA@ 1002484c     Gamesys.obj
 0002:00003858       ??_C@_08GDHCHEAH@Odometer?$AA@ 10024858     Gamesys.obj
 0002:00003864       ??_C@_08BFPGMILO@Creature?$AA@ 10024864     Gamesys.obj
 0002:00003870       ??_C@_07OFINGKDN@Phantom?$AA@ 10024870     Gamesys.obj
 0002:00003878       ??_C@_09JADBKOHN@climbable?$AA@ 10024878     Gamesys.obj
 0002:00003884       ??_C@_0L@CNDMHMPE@SecCamera2?$AA@ 10024884     Gamesys.obj
 0002:00003890       ??_C@_06MICIANLG@IsLoot?$AA@ 10024890     Gamesys.obj
 0002:00003898       ??_C@_09GEMBADPP@Blackjack?$AA@ 10024898     Gamesys.obj
 0002:000038a4       ??_C@_05LKHEONBC@Sword?$AA@ 100248a4     Gamesys.obj
 0002:000038ac       ??_C@_0O@IDAHKBPE@RopeArrowRope?$AA@ 100248ac     Gamesys.obj
 0002:000038bc       ??_C@_06LIMHDJNF@Marker?$AA@ 100248bc     Gamesys.obj
 0002:000038c4       ??_C@_08ECFDLAOD@LockPick?$AA@ 100248c4     Gamesys.obj
 0002:000038d0       ??_C@_07HJIHKFEF@Cameras?$AA@ 100248d0     Gamesys.obj
 0002:000038d8       ??_C@_0L@BOPJFBBH@tumblerset?$AA@ 100248d8     Gamesys.obj
 0002:000038e4       ??_C@_06PLMHNNFP@pinset?$AA@ 100248e4     Gamesys.obj
 0002:000038ec       ??_C@_09PLCMNNFO@AI_SPEECH?$AA@ 100248ec     Gamesys.obj
 0002:000038f8       ??_C@_0M@POPAMGKK@PLYR_DAMAGE?$AA@ 100248f8     Gamesys.obj
 0002:00003904       ??_C@_0M@PDOFFHGH@PLYR_WEAPON?$AA@ 10024904     Gamesys.obj
 0002:00003910       ??_C@_07NBCGADJA@Unknown?$AA@ 10024910     Ghost.obj
 0002:00003918       ??_C@_0BN@HIEOKJIG@Event?5Footstep?0?5Landing?5True?$AA@ 10024918     Ghost.obj
 0002:00003938       ??_C@_0BE@KOKFBNNJ@?$CFs?3?5going?5to?5sleep?4?$AA@ 10024938     Ghost.obj
 0002:0000394c       ??_C@_0BO@PFBJLJLA@Failed?5to?5attach?5weapon?5to?5?$CFs?$AA@ 1002494c     Ghost.obj
 0002:0000396c       __real@3dcccccd            1002496c     Ghost.obj
 0002:00003978       ??_C@_0CM@FOFPMHGK@false?5?$CG?$CG?5?$CCQueryInterface?$CI?$CJ?5not?5i@ 10024978     LG.obj
 0002:000039a4       ??_C@_0BL@HKDBPIHH@?2Dev?2ThiefMP?2source?2LG?4cpp?$AA@ 100249a4     LG.obj
 0002:000039c0       ??_C@_09HLOAJLKE@garstrain?$AA@ 100249c0     LG.obj
 0002:000039cc       __real@447a0000            100249cc     LG.obj
 0002:000039d0       ??_C@_0P@BEIDDOJE@bow_abort_auto?$AA@ 100249d0     LG.obj
 0002:000039e0       ??_C@_06CHDIMBDP@cursor?$AA@ 100249e0     LG.obj
 0002:000039e8       ??_C@_07GDPBMLLI@Palette?$AA@ 100249e8     LG.obj
 0002:000039f0       ??_7cAvatar@@6B@           100249f0     LG.obj
 0002:00003a08       ??_C@_0BA@LFLDIGGM@overlay_staging?$AA@ 10024a08     LoopClients.obj
 0002:00003a18       _IID_IStringRes            10024a18     Main.obj
 0002:00003a28       _IID_IResMan               10024a28     Main.obj
 0002:00003a38       _IID_IStructDescTools      10024a38     Main.obj
 0002:00003a48       _IID_IQuestData            10024a48     Main.obj
 0002:00003a58       _IID_IGameStrings          10024a58     Main.obj
 0002:00003a68       _IID_IAINetManager         10024a68     Main.obj
 0002:00003a78       ??_C@_0M@DDKGNJBO@ThiefMP?4log?$AA@ 10024a78     Main.obj
 0002:00003a84       ??_C@_04MLPFMBPG@core?$AA@ 10024a84     Main.obj
 0002:00003a8c       ??_7Message@@6B@           10024a8c     MessageManager.obj
 0002:00003a90       __real@3f666666            10024a90     MessageManager.obj
 0002:00003a94       __real@3edc28f6            10024a94     MessageManager.obj
 0002:00003a98       __real@3e2e147b            10024a98     MessageManager.obj
 0002:00003a9c       ??_C@_06PKAOPIA@Chat?3?5?$AA@ 10024a9c     MessageManager.obj
 0002:00003aa4       ??_7MessageMgr@@6B@        10024aa4     MessageManager.obj
 0002:00003aa8       __real@3ee66666            10024aa8     MessageManager.obj
 0002:00003aac       __real@3cf5c28f            10024aac     MessageManager.obj
 0002:00003ab0       ??_C@_01MMEEDKFM@X?$AA@    10024ab0     MessageManager.obj
 0002:00003ab4       ??_C@_07EBFOKGKD@msg?5mgr?$AA@ 10024ab4     MessageManager.obj
 0002:00003abc       ??_C@_05MKMNCMOK@tick2?$AA@ 10024abc     MessageManager.obj
 0002:00003ac4       __real@41200000            10024ac4     MessageManager.obj
 0002:00003aec       ??_C@_07CJELHFFG@netplay?$AA@ 10024aec     MultiUI.obj
 0002:00003af4       ??_C@_04DFGCDGNN@join?$AA@ 10024af4     MultiUI.obj
 0002:00003afc       ??_C@_04OODOLJMA@host?$AA@ 10024afc     MultiUI.obj
 0002:00003b04       ??_C@_06JDKABGKH@cancel?$AA@ 10024b04     MultiUI.obj
 0002:00003b0c       ??_C@_0BA@FNJCLFEA@multi_interface?$AA@ 10024b0c     MultiUI.obj
 0002:00003b4c       ??_C@_0BI@BFNIAFFA@Multiplayer?5object?5name?$AA@ 10024b4c     NetProperties.obj
 0002:00003b64       ??_C@_0M@HOINAANG@Multiplayer?$AA@ 10024b64     NetProperties.obj
 0002:00003b70       ??_C@_04EBLHLJOO@slay?$AA@ 10024b70     NetReactions.obj
 0002:00003b78       ??_C@_08ONHPDEOD@frob_obj?$AA@ 10024b78     NetReactions.obj
 0002:00003b84       ??_C@_0M@LNNELKIN@DrSKnockout?$AA@ 10024b84     NetReactions.obj
 0002:00003b90       ??_C@_0BA@CBBDHAF@M?9WasKnockedOut?$AA@ 10024b90     NetReactions.obj
 0002:00003ba0       ??_C@_0N@MGJNIKC@M?9KnockedOut?$AA@ 10024ba0     NetReactions.obj
 0002:00003bb0       ??_C@_08OHAADCLK@Knockout?$AA@ 10024bb0     NetReactions.obj
 0002:00003bbc       ??_C@_0M@LBAIDH@InGatehouse?$AA@ 10024bbc     Player.obj
 0002:00003bc8       ??_C@_0L@MIEMKIEE@LoadoutBox?$AA@ 10024bc8     Player.obj
 0002:00003bd4       ??_C@_0N@OBCCNBLH@LoadoutCache?$AA@ 10024bd4     Player.obj
 0002:00003bf4       ??_7SaveManager@@6B@       10024bf4     SaveManager.obj
 0002:00003bfc       ??_C@_0BK@CDADEBAH@Successfully?5loaded?5game?4?$AA@ 10024bfc     SaveManager.obj
 0002:00003c18       ??_C@_0BK@NNJPGPFH@Failed?5to?5load?5game?5?$CI?$CFd?$CJ?4?$AA@ 10024c18     SaveManager.obj
 0002:00003c34       ??_C@_08CAMFBGKM@netsaves?$AA@ 10024c34     SaveManager.obj
 0002:00003c40       ??_C@_0BE@DPNGFCMB@No?5saves?5remaining?4?$AA@ 10024c40     SaveManager.obj
 0002:00003c54       ??_C@_0BB@NKBJDGOE@?$CFd?5?$CFs?5remaining?4?$AA@ 10024c54     SaveManager.obj
 0002:00003c68       ??_C@_04EMMDIJJL@save?$AA@ 10024c68     SaveManager.obj
 0002:00003c70       ??_C@_05GDIDKDHA@saves?$AA@ 10024c70     SaveManager.obj
 0002:00003c78       ??_C@_0BF@CICIJLPE@Failed?5to?5save?5game?4?$AA@ 10024c78     SaveManager.obj
 0002:00003c90       ??_C@_0BJ@EOLIIECP@Successfully?5saved?5game?4?$AA@ 10024c90     SaveManager.obj
 0002:00003cac       ??_C@_07FCJAGJJB@?$CFs?5?9?5?$CFs?$AA@ 10024cac     SaveManager.obj
 0002:00003cb4       ??_C@_0BD@HHFFCJFD@netsaves?2quick?4bak?$AA@ 10024cb4     SaveManager.obj
 0002:00003cc8       ??_C@_0BA@GJOLEEHL@?$CFs?5?9?5?$CFs?5?$CIQuick?$CJ?$AA@ 10024cc8     SaveManager.obj
 0002:00003cd8       ??_C@_08EIOJEMNK@short_?$CFd?$AA@ 10024cd8     SaveManager.obj
 0002:00003ce4       ??_C@_0BH@HPFOABOH@No?5more?5saves?5allowed?4?$AA@ 10024ce4     SaveManager.obj
 0002:00003cfc       ??_C@_0BL@JJHINJDP@?$CFs?3?5OpenBlock?5failed?5?$CI?$CFx?$CJ?4?$AA@ 10024cfc     SaveManager.obj
 0002:00003d18       ??_C@_0CA@BILENFLN@SaveManager?3?3OnSaveRemoteGhosts?$AA@ 10024d18     SaveManager.obj
 0002:00003d38       ??_C@_0DO@JAAANHI@SaveRemoteGhosts?3?5invalid?5motion@ 10024d38     SaveManager.obj
 0002:00003d78       ??_C@_0CC@HMGNAMMB@Saving?5motion?5coordinator?5for?3?5?$CF@ 10024d78     SaveManager.obj
 0002:00003d9c       ??_C@_0BE@DBMJJGBJ@Saving?5ghost?5for?5?$CFs?$AA@ 10024d9c     SaveManager.obj
 0002:00003db0       ??_C@_0DM@NBKGBABL@Unknown?5avatar?5weapon?5ID?5for?5equ@ 10024db0     Sound.obj
 0002:00003dec       ??_C@_0DN@CFIHADNN@Unknown?5avatar?5weapon?5ID?5for?5det@ 10024dec     Sound.obj
 0002:00003e2c       ??_C@_0CL@OOHIGOKD@Sending?5player?5damage?5sound?5with@ 10024e2c     Sound.obj
 0002:00003e58       ??_C@_0CC@JDCHNKG@Sending?5object?9attached?5sound?5?$CFs@ 10024e58     Sound.obj
 0002:00003e7c       ??_C@_0BF@DFJDJOLD@Playing?5AI?5speech?5?$CFs?$AA@ 10024e7c     Sound.obj
 0002:00003e94       ??_C@_0CA@KCAJLLFF@Sending?5player?5weapon?5sound?5?$CFs?4?$AA@ 10024e94     Sound.obj
 0002:00003eb4       ??_C@_0CF@BKAILKNK@Net?5halting?5looping?5speech?5?$CFs?5on@ 10024eb4     Sound.obj
 0002:00003ee0       ??_C@_0GE@MLJIPOEO@Sending?5speech?5for?5?$CFs?3?5schema?5?$CFd@ 10024ee0     SpeechNet.obj
 0002:00003f44       ??_C@_0BD@CGILPFDL@DPNSUCCESS_PENDING?$AA@ 10024f44     Tools.obj
 0002:00003f58       ??_C@_06IMJBDBNO@0x?$CF08X?$AA@ 10024f58     Tools.obj
 0002:00003f60       ??_C@_0BD@NJJFBJEM@DPNERR_SESSIONFULL?$AA@ 10024f60     Tools.obj
 0002:00003f74       ??_C@_0BE@GJMILOIE@DPNERR_NOCONNECTION?$AA@ 10024f74     Tools.obj
 0002:00003f88       ??_C@_0P@JCEBAEKD@DPNERR_NOTHOST?$AA@ 10024f88     Tools.obj
 0002:00003f98       ??_C@_0BH@DMPEGKFD@DPNERR_INVALIDPASSWORD?$AA@ 10024f98     Tools.obj
 0002:00003fb0       ??_C@_0BI@GPKHJHEM@DPNERR_INVALIDINTERFACE?$AA@ 10024fb0     Tools.obj
 0002:00003fc8       ??_C@_0BH@KLFBEBCM@DPNERR_INVALIDINSTANCE?$AA@ 10024fc8     Tools.obj
 0002:00003fe0       ??_C@_0BK@KGGBCBLD@DPNERR_INVALIDHOSTADDRESS?$AA@ 10024fe0     Tools.obj
 0002:00003ffc       ??_C@_0BE@PIKENOBJ@DPNERR_INVALIDFLAGS?$AA@ 10024ffc     Tools.obj
 0002:00004010       ??_C@_0BM@ENKIENFF@DPNERR_INVALIDDEVICEADDRESS?$AA@ 10025010     Tools.obj
 0002:0000402c       ??_C@_0BK@JDKALINN@DPNERR_INVALIDAPPLICATION?$AA@ 1002502c     Tools.obj
 0002:00004048       ??_C@_0BE@EBDPIPLC@DPNERR_DATATOOLARGE?$AA@ 10025048     Tools.obj
 0002:0000405c       ??_C@_0BO@ECKDDIED@DPNERR_HOSTREJECTEDCONNECTION?$AA@ 1002505c     Tools.obj
 0002:0000407c       ??_C@_0BG@DABMBHJA@DPNERR_BUFFERTOOSMALL?$AA@ 1002507c     Tools.obj
 0002:00004094       ??_C@_0BM@GIHIILB@DPNERR_ALREADYDISCONNECTING?$AA@ 10025094     Tools.obj
 0002:000040b0       ??_C@_0BK@LALJHGPB@DPNERR_ALREADYINITIALIZED?$AA@ 100250b0     Tools.obj
 0002:000040cc       ??_C@_0BI@GCGBFFAL@DPNERR_ALREADYCONNECTED?$AA@ 100250cc     Tools.obj
 0002:000040e4       ??_C@_0BC@KBFKNKOL@DPNERR_ADDRESSING?$AA@ 100250e4     Tools.obj
 0002:000040f8       ??_C@_0BG@GJMEAEJI@DPNERR_ALREADYCLOSING?$AA@ 100250f8     Tools.obj
 0002:00004110       ??_C@_0P@LMIGBHLJ@DPNERR_ABORTED?$AA@ 10025110     Tools.obj
 0002:00004120       ??_C@_09FLEPHGBI@E_POINTER?$AA@ 10025120     Tools.obj
 0002:0000412c       ??_C@_0BE@EHNLEADC@DPNERR_INVALIDPARAM?$AA@ 1002512c     Tools.obj
 0002:00004140       ??_C@_0BB@MCOJNHID@?$CFd?5events?5total?4?$AA@ 10025140     Tools.obj
 0002:00004154       ??_C@_0CN@DEKEGHBK@?$CI?$CFx?$CJ?5Event?5?$CFd?3?5Type?5?$CFd?5P1?5?$CFx?5Dat@ 10025154     Tools.obj
 0002:00004184       ??_C@_07LMFHHDHL@?$CFu?3?$CF02u?$AA@ 10025184     Tools.obj
 0002:0000418c       ??_C@_0N@PPEHMHHO@?$CFu?3?$CF02u?3?$CF02u?$AA@ 1002518c     Tools.obj
 0002:0000419c       ??_C@_07OLCLNKMP@browser?$AA@ 1002519c     GlobalServer.obj
 0002:000041a4       ??_C@_0CF@JPBGOJAN@?2Dev?2ThiefMP?2source?2GlobalServer@ 100251a4     GlobalServer.obj
 0002:000041cc       ??_C@_0DB@FJEHJBLC@Unknown?5packet?5received?5from?5glo@ 100251cc     GlobalServer.obj
 0002:00004200       ??_C@_0CC@BACPLGBM@Lost?5connection?5to?5global?5server@ 10025200     GlobalServer.obj
 0002:00004224       ??_C@_0CE@FGPHJPMJ@Failed?5to?5connect?5to?5global?5serv@ 10025224     GlobalServer.obj
 0002:00004258       ??_C@_0L@NNKLELLH@g_pBrowser?$AA@ 10025258     ServerBrowser.obj
 0002:00004264       ??_C@_0CG@DHOHOHNC@?2Dev?2ThiefMP?2source?2ServerBrowse@ 10025264     ServerBrowser.obj
 0002:0000428c       ??_C@_0BL@ELAIIAKA@Received?5response?5from?5?$CFs?4?$AA@ 1002528c     ServerBrowser.obj
 0002:000042a8       ??_C@_0DD@KIJLMJLP@Failed?5to?5retrieve?5host?5name?5com@ 100252a8     ServerBrowser.obj
 0002:000042dc       ??_C@_0BG@MIJLFOJJ@?$CFd?5servers?5available?4?$AA@ 100252dc     ServerBrowser.obj
 0002:000042f4       ??_C@_0CG@NJIHLHMP@?$CFs?3?5failed?5to?5find?5server?5?$CFs?5in?5@ 100252f4     ServerBrowser.obj
 0002:0000431c       ??_C@_0CD@OCNNKBOA@CServerBrowser?3?3HandleRemoveServ@ 1002531c     ServerBrowser.obj
 0002:00004340       ??_C@_0CI@ENLDPGIG@Failed?5to?5remove?5server?5from?5lis@ 10025340     ServerBrowser.obj
 0002:00004368       ??_C@_0BE@PPAKNACK@Removing?5server?5?$CFs?4?$AA@ 10025368     ServerBrowser.obj
 0002:00004380       ??_C@_0EJ@DGMIFPMD@The?5server?5rejected?5your?5connect@ 10025380     ServerBrowser.obj
 0002:000043cc       ??_C@_0DP@FJCACBA@Too?5many?5connections?5to?5global?5s@ 100253cc     ServerBrowser.obj
 0002:0000440c       ??_C@_0BM@JNKNLFKJ@Connected?5to?5global?5server?4?$AA@ 1002540c     ServerBrowser.obj
 0002:00004428       ??_C@_0O@PNBPMCOE@Connecting?4?4?4?$AA@ 10025428     ServerBrowser.obj
 0002:00004438       ??_C@_0O@HGEAPED@Disconnected?4?$AA@ 10025438     ServerBrowser.obj
 0002:00004448       ??_C@_0CO@HMLBBDEL@Failed?5to?5add?5server?5to?5list?5?9?5i@ 10025448     ServerBrowser.obj
 0002:00004478       ??_C@_06LKLJOLBD@pEntry?$AA@ 10025478     ServerBrowser.obj
 0002:00004480       ??_C@_0BO@CBHOFMHB@Error?3?5Failed?5to?5ping?5server?4?$AA@ 10025480     ServerBrowser.obj
 0002:000044a0       ??_C@_0CB@BEEIFKAP@Pinging?5server?5?$CFs?5on?5IP?5?$CFs?3?$CFd?4?4?4@ 100254a0     ServerBrowser.obj
 0002:000044c4       ??_7CServerList@@6B@       100254c4     ServerBrowser.obj
 0002:000044c8       ??_C@_0DP@JAKOPCPP@Server?5browser?3?5failed?5to?5initia@ 100254c8     ServerBrowser.obj
 0002:00004508       ??_C@_0L@JOAHNOOH@sb?5connect?$AA@ 10025508     ServerBrowser.obj
 0002:00004514       ??_7CServerBrowser@@6B@    10025514     ServerBrowser.obj
 0002:00004528       ??_7CServerListEntry@@6B@  10025528     ServerList.obj
 0002:0000452c       ??_C@_07EGLBMDMJ@Thief?52?$AA@ 1002552c     ServerList.obj
 0002:00004534       ??_C@_07OHAHAELA@Shock?52?$AA@ 10025534     ServerList.obj
 0002:0000453c       ??_C@_05LCKIIOJE@?$CFd?1?$CFd?$AA@ 1002553c     ServerList.obj
 0002:00004544       ??_C@_03BBKEAIF@?$DP?$DP?$DP?$AA@ 10025544     ServerList.obj
 0002:00004548       ??_C@_03BNDMODPF@?$DP?1?$DP?$AA@ 10025548     ServerList.obj
 0002:0000454c       ??_C@_0BB@KANAONGG@Closed?5?9?5Playing?$AA@ 1002554c     ServerList.obj
 0002:00004560       ??_C@_04DNCDCIAE@Open?$AA@ 10025560     ServerList.obj
 0002:00004568       ??_C@_0BA@BDPFEPAJ@Open?5?9?5Password?$AA@ 10025568     ServerList.obj
 0002:00004578       __real@3de56042            10025578     ServerList.obj
 0002:0000457c       __real@3e0a3d71            1002557c     ServerList.obj
 0002:00004580       __real@3d8f5c29            10025580     ServerList.obj
 0002:00004584       __real@3e851eb8            10025584     ServerList.obj
 0002:00004588       __real@3e800000            10025588     ServerList.obj
 0002:0000458c       ??_C@_07NGFJPNPN@Version?$AA@ 1002558c     ServerList.obj
 0002:00004594       ??_C@_04CPBFGEOK@Ping?$AA@ 10025594     ServerList.obj
 0002:0000459c       ??_C@_07OLBIDKLK@Players?$AA@ 1002559c     ServerList.obj
 0002:000045a4       ??_C@_06PGDKHFME@Status?$AA@ 100255a4     ServerList.obj
 0002:000045ac       ??_C@_0M@EHMFLPNI@Server?5Name?$AA@ 100255ac     ServerList.obj
 0002:000045b8       ??_C@_0CH@EPJLFDFE@Attempted?5to?5remove?5an?5invalid?5s@ 100255b8     ServerList.obj
 0002:000045e0       ??_C@_0CH@ENHFECKJ@Adding?5server?3?5?$CFs?4?5?$CI?$CFs?3?$CFd?5?9?5buil@ 100255e0     ServerList.obj
 0002:00004608       ??_C@_06OJPAPMAG@?$CFs?4osm?$AA@ 10025608     ScriptHooks.obj
 0002:00004610       ??_C@_0CC@EHEMHIOJ@Sending?5message?5?$CFs?5from?5?$CFd?5to?5?$CFs@ 10025610     ScriptHooks.obj
 0002:00004634       ??_C@_0L@DJJJHFJJ@NetTurnOff?$AA@ 10025634     ScriptHooks.obj
 0002:00004640       ??_C@_09PGMOBFIG@NetTurnOn?$AA@ 10025640     ScriptHooks.obj
 0002:0000464c       ??_C@_0CG@MCAGEPOO@Event?5StateChange?0?5LockState?5Unl@ 1002564c     ScriptHooks.obj
 0002:00004674       ??_C@_0CE@IBMLLCFE@Event?5StateChange?0?5LockState?5Loc@ 10025674     ScriptHooks.obj
 0002:00004698       ??_C@_0M@LGHBLFLP@NetUnlocked?$AA@ 10025698     ScriptHooks.obj
 0002:000046a4       ??_C@_09KFNJIDGO@NetLocked?$AA@ 100256a4     ScriptHooks.obj
 0002:000046b0       ??_C@_0L@BKEEMMEK@ToggleDoor?$AA@ 100256b0     ScriptHooks.obj
 0002:000046bc       ??_C@_0M@NBCEEPB@NonAutoDoor?$AA@ 100256bc     ScriptHooks.obj
 0002:000046c8       ??_C@_07FKICODHC@StdDoor?$AA@ 100256c8     ScriptHooks.obj
 0002:000046d0       ??_C@_0L@MKDBHDKJ@LockSounds?$AA@ 100256d0     ScriptHooks.obj
 0002:000046dc       ??_C@_03JAFGGFOK@Sim?$AA@  100256dc     ScriptHooks.obj
 0002:000046e0       ??_C@_0BE@KIDDOEPC@Taking?5over?5door?5?$CFs?$AA@ 100256e0     ScriptHooks.obj
 0002:000046f4       ??_C@_07CJIDHEBI@TurnOff?$AA@ 100256f4     ScriptHooks.obj
 0002:000046fc       ??_C@_06DGLFMOBM@TurnOn?$AA@ 100256fc     ScriptHooks.obj
 0002:00004704       ??_C@_0DI@ECKOKFGJ@ERROR?3?5Could?5not?5remap?5projectil@ 10025704     ScriptHooks.obj
 0002:0000473c       ??_C@_0CJ@BLLPDKEA@ERROR?3?5failed?5to?5execute?5Collisi@ 1002573c     ScriptHooks.obj
 0002:00004768       ??_C@_04HOPIBOHF@Tick?$AA@ 10025768     ScriptHooks.obj
 0002:00004770       ??_C@_07DDHNKDGP@timeout?$AA@ 10025770     ScriptHooks.obj
 0002:00004778       __real@0000000000000000    10025778     ScriptHooks.obj
 0002:00004780       ??_C@_07LKMHLBIF@convict?$AA@ 10025780     ScriptHooks.obj
 0002:00004788       ??_C@_03MNCIKALL@gen?$AA@  10025788     ScriptHooks.obj
 0002:0000478c       ??_C@_0P@EGFEAHOO@NetNowUnlocked?$AA@ 1002578c     StringHashTable.obj
 0002:0000479c       ??_C@_0N@OLOHIHJF@NetNowLocked?$AA@ 1002579c     StringHashTable.obj
 0002:000047ac       ??_C@_0O@NBMLBMIC@PhysCollision?$AA@ 100257ac     StringHashTable.obj
 0002:000047bc       ??_C@_09PEJKMNHF@Contained?$AA@ 100257bc     StringHashTable.obj
 0002:000047c8       ??_C@_0M@LPOJFGDI@NowUnlocked?$AA@ 100257c8     StringHashTable.obj
 0002:000047d4       ??_C@_09LOHIAOBD@NowLocked?$AA@ 100257d4     StringHashTable.obj
 0002:000047e0       ??_C@_0M@EJKDDABI@FrobToolEnd?$AA@ 100257e0     StringHashTable.obj
 0002:000047ec       ??_C@_0N@KLDFPPFD@FrobWorldEnd?$AA@ 100257ec     StringHashTable.obj
 0002:000047fc       ??_7DarkOverlayManager@@6B@ 100257fc     DarkOverlay.obj
 0002:00004800       ??_C@_0BL@BIHOMGMC@false?5?$CG?$CG?5?$CCout?5of?5overlays?$CC?$AA@ 10025800     DarkOverlay.obj
 0002:0000481c       ??_C@_0CE@FPKHOMIP@?2Dev?2ThiefMP?2source?2DarkOverlay?4@ 1002581c     DarkOverlay.obj
 0002:00004840       __real@43960000            10025840     DarkOverlay.obj
 0002:00004844       ??_C@_07DLAHFCM@PAGE_?$CFd?$AA@ 10025844     DarkOverlay.obj
 0002:0000484c       ??_C@_0BD@OLBABOEK@vector?$DMT?$DO?5too?5long?$AA@ 1002584c     DarkOverlay.obj
 0002:00004860       ??_C@_05NBEAGECF@Image?$AA@ 10025860     DarkOverlay.obj
 0002:00004868       ??_C@_0O@PBPIODLM@Error?3?50x?$CF08x?$AA@ 10025868     DarkOverlay.obj
 0002:00004878       ??_C@_0M@BKFOIBLE@select1?4wav?$AA@ 10025878     DarkOverlay.obj
 0002:00004884       ??_C@_04EJEJEEJK@map1?$AA@ 10025884     DarkOverlay.obj
 0002:0000488c       ??_C@_0M@OECMOFIB@?$CFs?2page?$CF03d?$AA@ 1002588c     DarkOverlay.obj
 0002:00004898       ??_C@_0M@BMHKKIJC@?$CFs?2book?4pcx?$AA@ 10025898     DarkOverlay.obj
 0002:000048a4       ??_C@_05CKKNMIHB@bookr?$AA@ 100258a4     DarkOverlay.obj
 0002:000048ac       ??_C@_05GPCGLKDN@textr?$AA@ 100258ac     DarkOverlay.obj
 0002:000048b4       ??_C@_08PKKJDFGJ@Books?2?$CFs?$AA@ 100258b4     DarkOverlay.obj
 0002:000048c0       ??_C@_07IANCGJDC@blankbk?$AA@ 100258c0     DarkOverlay.obj
 0002:000048c8       ??_C@_06ENNEIMBA@String?$AA@ 100258c8     DarkOverlay.obj
 0002:000048d0       ??_C@_05DEBKPMAG@Books?$AA@ 100258d0     DarkOverlay.obj
 0002:000048d8       ??_C@_0M@MGANBFLB@?$CFs?2textfont?$AA@ 100258d8     DarkOverlay.obj
 0002:000048e4       ??_C@_05DDLGPJDA@books?$AA@ 100258e4     DarkOverlay.obj
 0002:000048ec       ??_C@_0BB@LBJMLICK@?$CFs?2bookr?$CF03d?4pcx?$AA@ 100258ec     DarkOverlay.obj
 0002:00004900       ??_C@_04LMKNDDJM@sim_?$AA@ 10025900     DarkOverlay.obj
 0002:00004908       ??_C@_06BLEHJBJH@panel_?$AA@ 10025908     DarkOverlay.obj
 0002:00004910       ??_C@_03DAGEMKNE@sim?$AA@  10025910     DarkOverlay.obj
 0002:00004914       ??_C@_06LKBCGDFD@Button?$AA@ 10025914     DarkOverlay.obj
 0002:0000491c       ??_C@_08KOENJNKN@objctivr?$AA@ 1002591c     DarkOverlay.obj
 0002:00004928       ??_C@_05LCCFMHGE@grey_?$AA@ 10025928     DarkOverlay.obj
 0002:00004930       ??_C@_0L@NFILJFJG@goal_text_?$AA@ 10025930     DarkOverlay.obj
 0002:0000493c       ??_C@_08IOGHMHEC@objctiv_?$AA@ 1002593c     DarkOverlay.obj
 0002:00004948       ??_C@_07LEPENMBH@diff_?$CFd?$AA@ 10025948     DarkOverlay.obj
 0002:00004950       ??_C@_07GABIDAIO@newgame?$AA@ 10025950     DarkOverlay.obj
 0002:00004958       ??_C@_0L@BNPDIEPE@difficulty?$AA@ 10025958     DarkOverlay.obj
 0002:00004964       ??_C@_09NIOLDGM@goali?$CF03d?$AA@ 10025964     DarkOverlay.obj
 0002:00004970       ??_C@_0O@HMPMGECD@GOAL_STATE_?$CFd?$AA@ 10025970     DarkOverlay.obj
 0002:00004980       ??_C@_0M@JMMKPDBK@select2?4wav?$AA@ 10025980     DarkOverlay.obj
 0002:0000498c       ??_C@_0BB@BANLODLA@Save?5Limit?3?5None?$AA@ 1002598c     DarkOverlay.obj
 0002:000049a0       ??_C@_0P@EPOHCNHB@Save?5Limit?3?5?$CFd?$AA@ 100259a0     DarkOverlay.obj
 0002:000049b0       ??_C@_0BB@NJMMDJAF@Time?5Limit?3?5None?$AA@ 100259b0     DarkOverlay.obj
 0002:000049c4       ??_C@_0P@LBPCKBLC@Time?5Limit?3?5?$CFs?$AA@ 100259c4     DarkOverlay.obj
 0002:000049d4       ??_C@_0BE@BCBLFOI@Players?5Respawn?3?5?$CFs?$AA@ 100259d4     DarkOverlay.obj
 0002:000049e8       ??_C@_0L@PHPBDLMH@Cheats?3?5?$CFs?$AA@ 100259e8     DarkOverlay.obj
 0002:000049f4       ??_C@_0BI@BNDNOJOC@Increase?5Difficulty?3?5?$CFs?$AA@ 100259f4     DarkOverlay.obj
 0002:00004a0c       ??_C@_0BD@GKOFEAP@Damage?5Players?3?5?$CFs?$AA@ 10025a0c     DarkOverlay.obj
 0002:00004a20       ??_C@_02JINPPBEP@No?$AA@   10025a20     DarkOverlay.obj
 0002:00004a24       ??_C@_03CCLAEDDF@Yes?$AA@  10025a24     DarkOverlay.obj
 0002:00004a28       ??_C@_0M@CELMKOCJ@Mission?3?5?$CFs?$AA@ 10025a28     DarkOverlay.obj
 0002:00004a34       ??_C@_0L@BINDCHOJ@Server?3?5?$CFs?$AA@ 10025a34     DarkOverlay.obj
 0002:00004a40       ??_C@_0N@FFCFFIJB@MAP_MAX_PAGE?$AA@ 10025a40     DarkOverlay.obj
 0002:00004a50       ??_C@_0N@ICMOOKNA@MAP_MIN_PAGE?$AA@ 10025a50     DarkOverlay.obj
 0002:00004a60       ??_C@_0O@JPJIKDOG@?$CFs?1p?$CF03dr?$CF03d?$AA@ 10025a60     DarkOverlay.obj
 0002:00004a70       ??_C@_0L@GPHMNKLD@?$CFs?1p?$CF03dra?$AA@ 10025a70     DarkOverlay.obj
 0002:00004a7c       ??_C@_0M@NAIIJLCN@objctivthin?$AA@ 10025a7c     DarkOverlay.obj
 0002:00004a88       ??_7DarkOverlay@@6B@       10025a88     DarkOverlay.obj
 0002:00004ab0       ??_7PlayersOverlay@@6B@    10025ab0     DarkOverlay.obj
 0002:00004ad8       ??_7MapOverlay@@6B@        10025ad8     DarkOverlay.obj
 0002:00004b00       ??_7BookOverlay@@6B@       10025b00     DarkOverlay.obj
 0002:00004b28       ??_C@_04JMIHGJHD@simr?$AA@ 10025b28     DarkOverlay.obj
 0002:00004b30       ??_7SimOverlay@@6B@        10025b30     DarkOverlay.obj
 0002:00004b58       ??_7ObjectivesOverlay@@6B@ 10025b58     DarkOverlay.obj
 0002:00004b80       ??_7StagingOverlay@@6B@    10025b80     DarkOverlay.obj
 0002:00004ba8       ??_C@_0M@PDNEGKLP@overlay_sim?$AA@ 10025ba8     DarkOverlay.obj
 0002:00004bb4       ??_C@_0BC@NGGLGCIM@Add?5Time?5to?5Clock?$AA@ 10025bb4     DarkOverlay.obj
 0002:00004bc8       ??_C@_0N@GKAKOKLK@Host?5Options?$AA@ 10025bc8     DarkOverlay.obj
 0002:00004bd8       ??_C@_08MOMBFAGG@goali003?$AA@ 10025bd8     DarkOverlay.obj
 0002:00004be4       ??_C@_09DOIJPOHM@Player?5?$CFd?$AA@ 10025be4     DarkOverlay.obj
 0002:00004bf0       ??_C@_04GMBKPCGK@Quit?$AA@ 10025bf0     DarkOverlay.obj
 0002:00004bf8       ??_C@_0N@CHHEEEMC@Load?5Mission?$AA@ 10025bf8     DarkOverlay.obj
 0002:00004c08       ??_C@_0O@FMGHIGIB@Game?5Settings?$AA@ 10025c08     DarkOverlay.obj
 0002:00004c18       ??_7DialogElement@@6B@     10025c18     DialogElement.obj
 0002:00004c34       ??_7Element_Text@@6B@      10025c34     DialogElement.obj
 0002:00004c50       ??_7Element_Image@@6B@     10025c50     DialogElement.obj
 0002:00004c6c       ??_C@_03LOJEKLML@src?$AA@  10025c6c     DialogElement.obj
 0002:00004c70       ??_C@_0CG@DCLBKPLH@?2Dev?2ThiefMP?2source?2DialogElemen@ 10025c70     DialogElement.obj
 0002:00004c98       ??_7Element_Button@@6B@    10025c98     DialogElement.obj
 0002:00004cb4       _CLSID_DP8SP_TCPIP         10025cb4     dxguid:dxguid.obj
 0002:00004cc4       _IID_IDirectPlay8Peer      10025cc4     dxguid:dxguid.obj
 0002:00004cd4       _IID_IDirectPlay8Client    10025cd4     dxguid:dxguid.obj
 0002:00004ce4       _CLSID_DirectPlay8Peer     10025ce4     dxguid:dxguid.obj
 0002:00004cf4       _CLSID_DirectPlay8Client   10025cf4     dxguid:dxguid.obj
 0002:00004d04       _IID_IDirectPlay8Address   10025d04     dxguid:dxguid.obj
 0002:00004d14       _CLSID_DirectPlay8Address  10025d14     dxguid:dxguid.obj
 0002:00004d24       ??_7ConfigManager@@6B@     10025d24     Engine:ConfigManager.obj
 0002:00004d28       ??_C@_02CPIDLAI@at?$AA@    10025d28     Engine:Logger.obj
 0002:00004d2c       ??_C@_02BKFDOEMK@wt?$AA@   10025d2c     Engine:Logger.obj
 0002:00004d30       ??_C@_0L@OPGEKEBP@?$FL?$CFs?$FN?5?9?5?$CFs?6?$AA@ 10025d30     Engine:Logger.obj
 0002:00004d3c       ??_C@_0BF@EEEJMEGN@?$CFm?1?$CFd?1?$CFY?5?$CFI?3?$CFM?3?$CFS?5?$CFp?$AA@ 10025d3c     Engine:Logger.obj
 0002:00004d54       ??_C@_0O@IBCKMBKE@Fatal?5Error?3?5?$AA@ 10025d54     Engine:Logger.obj
 0002:00004d64       ??_C@_07KAJBENLI@Error?3?5?$AA@ 10025d64     Engine:Logger.obj
 0002:00004d6c       ??_C@_09CKCJCCOK@Warning?3?5?$AA@ 10025d6c     Engine:Logger.obj
 0002:00004d78       ??_C@_06ENPJBIBC@Init?3?5?$AA@ 10025d78     Engine:Logger.obj
 0002:00004d80       ??_C@_05DHEMPPIJ@Log?3?5?$AA@ 10025d80     Engine:Logger.obj
 0002:00004d88       ??_C@_03OFAPEBGM@?$CFs?6?$AA@ 10025d88     Engine:Logger.obj
 0002:00004d8c       ??_C@_05LAPONLG@false?$AA@ 10025d8c     Engine:Utilities.obj
 0002:00004d94       ??_C@_04LOAJBDKD@true?$AA@ 10025d94     Engine:Utilities.obj
 0002:00004d9c       ??_C@_07NCACNKHJ@missing?$AA@ 10025d9c     Engine:IniFile.obj
 0002:00004da4       ??_C@_03DLDNIBIK@?$CFlf?$AA@ 10025da4     Engine:IniFile.obj
 0002:00004da8       ??_C@_0BJ@KBOLCLBG@?$CFs?5failed?5with?5error?3?5?$CFs?$AA@ 10025da8     Engine:EngError.obj
 0002:00004dc4       __real@3a83126f            10025dc4     Engine:Timing.obj
 0002:00004dc8       __real@3e19999a            10025dc8     Engine:Timing.obj
 0002:00004dcc       __real@3f400000            10025dcc     Engine:Timing.obj
 0002:00004dd0       ??_C@_0BK@HOJFPEEB@a?5Microsoft?5C?$CL?$CL?5Exception?$AA@ 10025dd0     Engine:ExceptionHandler.obj
 0002:00004dec       ??_C@_0BM@LDHCKNKI@a?5DLL?5Initialization?5Failed?$AA@ 10025dec     Engine:ExceptionHandler.obj
 0002:00004e08       ??_C@_0BB@LJENMGNL@a?5Stack?5Overflow?$AA@ 10025e08     Engine:ExceptionHandler.obj
 0002:00004e1c       ??_C@_0BJ@HMGNLHOK@a?5Privileged?5Instruction?$AA@ 10025e1c     Engine:ExceptionHandler.obj
 0002:00004e38       ??_C@_0BE@CDPGECPC@an?5Integer?5Overflow?$AA@ 10025e38     Engine:ExceptionHandler.obj
 0002:00004e4c       ??_C@_0BK@FNOEEFCK@an?5Integer?5Divide?5by?5Zero?$AA@ 10025e4c     Engine:ExceptionHandler.obj
 0002:00004e68       ??_C@_0BC@CICINNDB@a?5Float?5Underflow?$AA@ 10025e68     Engine:ExceptionHandler.obj
 0002:00004e7c       ??_C@_0BE@DOBFFDCD@a?5Float?5Stack?5Check?$AA@ 10025e7c     Engine:ExceptionHandler.obj
 0002:00004e90       ??_C@_0BB@LAJAGHGH@a?5Float?5Overflow?$AA@ 10025e90     Engine:ExceptionHandler.obj
 0002:00004ea4       ??_C@_0BK@NACDCIPD@a?5Float?5Invalid?5Operation?$AA@ 10025ea4     Engine:ExceptionHandler.obj
 0002:00004ec0       ??_C@_0BH@HGODNPMP@a?5Float?5Inexact?5Result?$AA@ 10025ec0     Engine:ExceptionHandler.obj
 0002:00004ed8       ??_C@_0BH@PIHGMMNI@a?5Float?5Divide?5by?5Zero?$AA@ 10025ed8     Engine:ExceptionHandler.obj
 0002:00004ef0       ??_C@_0BJ@LCJBHHL@a?5Float?5Denormal?5Operand?$AA@ 10025ef0     Engine:ExceptionHandler.obj
 0002:00004f0c       ??_C@_0BI@DFIFOIBG@a?5Array?5Bounds?5Exceeded?$AA@ 10025f0c     Engine:ExceptionHandler.obj
 0002:00004f24       ??_C@_0BH@HOHCDFKK@an?5Invalid?5Disposition?$AA@ 10025f24     Engine:ExceptionHandler.obj
 0002:00004f3c       ??_C@_0BL@DFCKDLHL@a?5Noncontinuable?5Exception?$AA@ 10025f3c     Engine:ExceptionHandler.obj
 0002:00004f58       ??_C@_0BH@CMGOADMI@an?5Illegal?5Instruction?$AA@ 10025f58     Engine:ExceptionHandler.obj
 0002:00004f70       ??_C@_0M@JNBECNGI@a?5No?5Memory?$AA@ 10025f70     Engine:ExceptionHandler.obj
 0002:00004f7c       ??_C@_0BB@DKICMMFA@an?5In?5Page?5Error?$AA@ 10025f7c     Engine:ExceptionHandler.obj
 0002:00004f90       ??_C@_0BE@GLOKLDAN@an?5Access?5Violation?$AA@ 10025f90     Engine:ExceptionHandler.obj
 0002:00004fa4       ??_C@_0N@JLDHOHAI@a?5Breakpoint?$AA@ 10025fa4     Engine:ExceptionHandler.obj
 0002:00004fb4       ??_C@_0BI@IPDDFHBH@a?5Datatype?5Misalignment?$AA@ 10025fb4     Engine:ExceptionHandler.obj
 0002:00004fcc       ??_C@_0BA@MNEFCPPO@a?5Control?9Break?$AA@ 10025fcc     Engine:ExceptionHandler.obj
 0002:00004fdc       ??_C@_0M@FNOJOPNP@a?5Control?9C?$AA@ 10025fdc     Engine:ExceptionHandler.obj
 0002:00004fe8       ??_C@_0BH@GMMOLJLG@Unknown?5exception?5type?$AA@ 10025fe8     Engine:ExceptionHandler.obj
 0002:00005000       ??_C@_0CD@JCCALPDL@?$CFs?0?5loaded?5at?50x?$CF08x?5?9?5?$CFd?5bytes?4@ 10026000     Engine:ExceptionHandler.obj
 0002:00005038       ??_C@_0EH@IAGPJNKE@?$AN?6?7Module?5list?3?5names?0?5addresses@ 10026038     Engine:ExceptionHandler.obj
 0002:00005080       ??_C@_0BN@PBHEHCOH@?$CFd?5MBytes?5physical?5memory?4?$AN?6?$AA@ 10026080     Engine:ExceptionHandler.obj
 0002:000050a0       ??_C@_0BM@CGPALIEL@?$CFd?5processor?$CIs?$CJ?0?5type?5?$CFd?4?$AN?6?$AA@ 100260a0     Engine:ExceptionHandler.obj
 0002:000050bc       ??_C@_0BI@JNCPBKJH@Error?5occurred?5at?5?$CFs?4?$AN?6?$AA@ 100260bc     Engine:ExceptionHandler.obj
 0002:000050d4       ??_C@_0CL@OMKINDCC@Exception?5encountered?5during?5sta@ 100260d4     Engine:ExceptionHandler.obj
 0002:00005100       ??_C@_06POCCOEBN@?$CF08x?$CFs?$AA@ 10026100     Engine:ExceptionHandler.obj
 0002:00005108       ??_C@_06HIMOAOMH@?$CF08x?3?5?$AA@ 10026108     Engine:ExceptionHandler.obj
 0002:00005110       ??_C@_0BA@EHPJBAFB@?$AN?6Stack?5dump?3?$AN?6?$AA@ 10026110     Engine:ExceptionHandler.obj
 0002:00005120       ??_C@_0CE@NMKHNEEO@EDX?$DN?$CF08x?5ES?$DN?$CF04x?5EDI?$DN?$CF08x?5GS?$DN?$CF04@ 10026120     Engine:ExceptionHandler.obj
 0002:00005144       ??_C@_0CE@JBCNJPPG@ECX?$DN?$CF08x?5DS?$DN?$CF04x?5ESI?$DN?$CF08x?5FS?$DN?$CF04@ 10026144     Engine:ExceptionHandler.obj
 0002:00005168       ??_C@_0CF@OPAAPHI@EBX?$DN?$CF08x?5SS?$DN?$CF04x?5ESP?$DN?$CF08x?5EBP?$DN?$CF0@ 10026168     Engine:ExceptionHandler.obj
 0002:00005190       ??_C@_0CH@CBHAEAIG@EAX?$DN?$CF08x?5CS?$DN?$CF04x?5EIP?$DN?$CF08x?5EFLGS?$DN@ 10026190     Engine:ExceptionHandler.obj
 0002:000051b8       ??_C@_0N@NADCNKKP@Registers?3?$AN?6?$AA@ 100261b8     Engine:ExceptionHandler.obj
 0002:000051c8       ??_C@_02PCIJFNDE@?$AN?6?$AA@ 100261c8     Engine:ExceptionHandler.obj
 0002:000051cc       ??_C@_0CP@PADPOHII@?$CFs?5location?5?$CF08x?5caused?5an?5acces@ 100261cc     Engine:ExceptionHandler.obj
 0002:000051fc       ??_C@_08CPFAPHAF@Write?5to?$AA@ 100261fc     Engine:ExceptionHandler.obj
 0002:00005208       ??_C@_09JHOILLPP@Read?5from?$AA@ 10026208     Engine:ExceptionHandler.obj
 0002:00005214       ??_C@_0CK@PECMEOFD@?$CFs?5caused?5?$CFs?5in?5module?5?$CFs?5at?5?$CF04@ 10026214     Engine:ExceptionHandler.obj
 0002:00005240       ??_C@_0CA@MGJAALIN@Error?5creating?5exception?5report?$AA@ 10026240     Engine:ExceptionHandler.obj
 0002:00005260       ??_C@_0CD@PFDEGHAA@?4?2Crash?5Logs?2crash?9?$CFY?$CFm?$CFd?9?$CFM?$CFS?4l@ 10026260     Engine:ExceptionHandler.obj
 0002:00005284       ??_C@_0L@EIJAMFPF@Crash?5Logs?$AA@ 10026284     Engine:ExceptionHandler.obj
 0002:000052ac       ??_7IGSClient@@6B@         100262ac     GSClient_r:GSClient_DP8.obj
 0002:000052dc       ??_C@_0BC@KBDMBKEH@deque?$DMT?$DO?5too?5long?$AA@ 100262dc     GSClient_r:GSClient_DP8.obj
 0002:000052f0       ??_7GSClient_DP8@@6B@      100262f0     GSClient_r:GSClient_DP8.obj
 0002:00005320       ??_C@_0BC@IMFCEGLB@gls?5enum?5response?$AA@ 10026320     GSClient_r:GSClient_DP8.obj
 0002:00005334       ??_C@_0M@PLDAEHDP@gls?5receive?$AA@ 10026334     GSClient_r:GSClient_DP8.obj
 0002:00005344       ??_7type_info@@6B@         10026344     MSVCRT:ti_inst.obj
 0002:000053f4       ??_R1A@?0A@A@type_info@@8  100263f4     MSVCRT:ti_inst.obj
 0002:0000540c       ??_R2type_info@@8          1002640c     MSVCRT:ti_inst.obj
 0002:00005414       ??_R3type_info@@8          10026414     MSVCRT:ti_inst.obj
 0002:00005424       ??_R4type_info@@6B@        10026424     MSVCRT:ti_inst.obj
 0002:00005438       ___rtc_iaa                 10026438     MSVCRT:initsect.obj
 0002:0000543c       ___rtc_izz                 1002643c     MSVCRT:initsect.obj
 0002:00005440       ___rtc_taa                 10026440     MSVCRT:initsect.obj
 0002:00005444       ___rtc_tzz                 10026444     MSVCRT:initsect.obj
 0002:00005580       __CT??_R0?AVexception@@@8??0exception@@QAE@ABV0@@Z12 10026580     DarkPeer.obj
 0002:0000559c       __CT??_R0?AVlogic_error@std@@@8??0logic_error@std@@QAE@ABV01@@Z40 1002659c     DarkPeer.obj
 0002:000055b8       __CT??_R0?AVlength_error@std@@@8??0length_error@std@@QAE@ABV01@@Z40 100265b8     DarkPeer.obj
 0002:000055d4       __CTA3?AVlength_error@std@@ 100265d4     DarkPeer.obj
 0002:000055e4       __TI3?AVlength_error@std@@ 100265e4     DarkPeer.obj
 0002:00005618       __CT??_R0?AVout_of_range@std@@@8??0out_of_range@std@@QAE@ABV01@@Z40 10026618     DarkPeer.obj
 0002:00005634       __CTA3?AVout_of_range@std@@ 10026634     DarkPeer.obj
 0002:00005644       __TI3?AVout_of_range@std@@ 10026644     DarkPeer.obj
 0002:00005680       __CT??_R0?AVDPlayException@@@88 10026680     DarkPeer.obj
 0002:0000569c       __CTA1?AVDPlayException@@  1002669c     DarkPeer.obj
 0002:000056a4       __TI1?AVDPlayException@@   100266a4     DarkPeer.obj
 0002:0000677c       __IMPORT_DESCRIPTOR_COMCTL32 1002777c     comctl32:COMCTL32.dll
 0002:00006790       __IMPORT_DESCRIPTOR_KERNEL32 10027790     kernel32:KERNEL32.dll
 0002:000067a4       __IMPORT_DESCRIPTOR_USER32 100277a4     user32:USER32.dll
 0002:000067b8       __IMPORT_DESCRIPTOR_ole32  100277b8     ole32:ole32.dll
 0002:000067cc       __IMPORT_DESCRIPTOR_MSVCR71 100277cc     MSVCRT:MSVCR71.dll
 0002:000067e0       __IMPORT_DESCRIPTOR_MSVCP71 100277e0     msvcprt:MSVCP71.dll
 0002:000067f4       __NULL_IMPORT_DESCRIPTOR   100277f4     Engine:VERSION.dll
 0003:00000000       ___xc_a                    10029000     MSVCRT:cinitexe.obj
 0003:0000002c       ___xc_z                    1002902c     MSVCRT:cinitexe.obj
 0003:00000030       ___xi_a                    10029030     MSVCRT:cinitexe.obj
 0003:00000034       ___xi_z                    10029034     MSVCRT:cinitexe.obj
 0003:00000320       ?lastWeap@@3PAKA           10029320     Commands.obj
 0003:00000328       ?CommandList@@3PAUCommandPatchList@@A 10029328     Commands.obj
 0003:00000390       ??_R0?AVDPlayException@@@8 10029390     Net.obj
 0003:000003b0       ??_R0?AVexception@@@8      100293b0     DarkPeer.obj
 0003:000003c8       ??_R0?AVlogic_error@std@@@8 100293c8     DarkPeer.obj
 0003:000003e8       ??_R0?AVlength_error@std@@@8 100293e8     DarkPeer.obj
 0003:00000408       ??_R0?AVout_of_range@std@@@8 10029408     DarkPeer.obj
 0003:00000428       ?kDefaultName@@3PBDB       10029428     PlayerDB.obj
 0003:0000042c       ?Client@@3VCClient@@A      1002942c     Client.obj
 0003:00000470       ?ConsoleCmds@@3PAUConsoleCommand@@A 10029470     Console.obj
 0003:000006e0       ?g_numCommands@@3HA        100296e0     Console.obj
 0003:0000070c       ?scriptWarning@@3PBDB      1002970c     FileHash.obj
 0003:00000718       ?g_ppDamageModel@@3PAPAUIDamageModel@@A 10029718     Main.obj
 0003:0000071c       ?g_pActReact@@3PAUIActReactSrv@@A 1002971c     Main.obj
 0003:00000720       ?g_pNetSrv@@3PAUINetworkingSrv@@A 10029720     Main.obj
 0003:00000724       ?g_cDamageSrvScriptService@@3PAUIDamageSrv@@A 10029724     Main.obj
 0003:00000728       ?g_cDarkGameSrvScriptService@@3PAUIDarkGameSrv@@A 10029728     Main.obj
 0003:0000072c       ?g_cSoundScrSrvScriptService@@3PAUISoundScrSrv@@A 1002972c     Main.obj
 0003:00000730       ?g_ModelNameDesc@@3PAUsPropertyDesc@@A 10029730     Main.obj
 0003:00000734       ?g_MeshAttachDesc@@3PAUsPropertyDesc@@A 10029734     Main.obj
 0003:00000738       ?g_PickStateDesc@@3PAUsPropertyDesc@@A 10029738     Main.obj
 0003:0000073c       ?g_CurWpnDmgDesc@@3PAUsPropertyDesc@@A 1002973c     Main.obj
 0003:00000740       ?g_InvBeingTakenDesc@@3PAUsPropertyDesc@@A 10029740     Main.obj
 0003:00000744       ?g_SelfIllumDesc@@3PAUsPropertyDesc@@A 10029744     Main.obj
 0003:00000748       ?g_AmbientHackedDesc@@3PAUsPropertyDesc@@A 10029748     Main.obj
 0003:0000074c       ?g_StackCountDesc@@3PAUsPropertyDesc@@A 1002974c     Main.obj
 0003:00000750       ?g_DeathStageDesc@@3PAUsPropertyDesc@@A 10029750     Main.obj
 0003:00000754       ?g_SpeechHandles@@3PAV?$cDynArray@H@@A 10029754     Main.obj
 0003:00000758       ?_highlit_obj@@3PAKA       10029758     Main.obj
 0003:0000075c       ?_g_PickCurrentObj@@3PAKA  1002975c     Main.obj
 0003:00000760       ?_frobWorldSelectObj@@3PAKA 10029760     Main.obj
 0003:00000764       ?_g_arrowObj@@3PAKA        10029764     Main.obj
 0003:00000768       ?_gPlayerCam@@3PAPAUPlayerCamera@@A 10029768     Main.obj
 0003:0000076c       ?_gNoMoveKeys@@3PAHA       1002976c     Main.obj
 0003:00000770       ?_gPlayerObj@@3PAKA        10029770     Main.obj
 0003:00000774       ?pConsoleState@@3PAKA      10029774     Main.obj
 0003:00000778       ?pMissFlags@@3PAKA         10029778     Main.obj
 0003:0000077c       ?pSlowFrame@@3PAHA         1002977c     Main.obj
 0003:00000780       ?pChNil@@3PADA             10029780     Main.obj
 0003:00000784       ?DarkMessageFont@@3PAPAUIRes@@A 10029784     Main.obj
 0003:00000788       ?mission_map@@3PAHA        10029788     Main.obj
 0003:0000078c       ?GhostRemTag@@3PAU_TagFileTag@@A 1002978c     Main.obj
 0003:00000790       ?cmdterm_text@@3PADA       10029790     Main.obj
 0003:00000794       ?net_cap_physics@@3PAHA    10029794     Main.obj
 0003:00000798       ?g_gamesysName@@3PADA      10029798     Main.obj
 0003:0000079c       ?g_ModeBaseSpeeds@@3PAMA   1002979c     Main.obj
 0003:000007a0       ?g_AllPlayersFinishedSynch@@3PAHA 100297a0     Main.obj
 0003:000007a4       ?g_NumPlayersNotInGameMode@@3PAHA 100297a4     Main.obj
 0003:000007a8       ?g_bSpeechDatabaseLoaded@@3PAHA 100297a8     Main.obj
 0003:000007ac       ?g_Domain@@3PAVcSpeechDomain@@A 100297ac     Main.obj
 0003:000007b0       ?g_pLastSchemaPlay@@3PAUsSchemaPlay@@A 100297b0     Main.obj
 0003:000007b4       ?playingSchemas@@3PAVSchemaPlayList@@A 100297b4     Main.obj
 0003:000007b8       ?g_AIActTypeNames@@3PAPADA 100297b8     Main.obj
 0003:000007bc       ?g_ppszAISpeed@@3PAPADA    100297bc     Main.obj
 0003:000007c0       ?g_AISpeeds@@3PAPAMA       100297c0     Main.obj
 0003:000007c4       ?dword_6F55D4@@3PAKA       100297c4     Main.obj
 0003:000007c8       ?dword_6F55DC@@3PAKA       100297c8     Main.obj
 0003:000007cc       ?dword_671B8C@@3PAKA       100297cc     Main.obj
 0003:000007d0       ?g_SynchPanelDesc@@3PBUsDarkPanelDesc@@B 100297d0     Main.obj
 0003:000007d4       ?g_DefaultPanelStyle@@3PAUguiStyle@@A 100297d4     Main.obj
 0003:000007d8       ?g_pAIDefAwareDelay@@3PAUsAIAwareDelay@@A 100297d8     Main.obj
 0003:000007dc       ?enable_inv@@3PAHA         100297dc     Main.obj
 0003:000007e0       ?g_TotalBowFrames@@3PAHA   100297e0     Main.obj
 0003:000007e4       ?g_BowEquippedTime@@3PAJA  100297e4     Main.obj
 0003:000007e8       ?g_BowAttackStarted@@3PAHA 100297e8     Main.obj
 0003:000007ec       ?g_BowIsForceFinished@@3PAHA 100297ec     Main.obj
 0003:000007f0       ?g_BowWobble@@3PAMA        100297f0     Main.obj
 0003:000007f4       ?g_BowPutAwayTime@@3PAHA   100297f4     Main.obj
 0003:000007f8       ?arrowNocked@@3PAHA        100297f8     Main.obj
 0003:000007fc       ?pSD_eAIPriority@@3PBUsStructDesc@@B 100297fc     Main.obj
 0003:00000800       ?pSD_tMetaPropertyPriority@@3PBUsStructDesc@@B 10029800     Main.obj
 0003:00000804       ?pSD_ContainRelType@@3PBUsStructDesc@@B 10029804     Main.obj
 0003:00000808       ?pSD_sAmplifyParam@@3PBUsStructDesc@@B 10029808     Main.obj
 0003:0000080c       ?pSD_sWeakPointParam@@3PBUsStructDesc@@B 1002980c     Main.obj
 0003:00000810       ?pSD_sStimSourceData@@3PBUsStructDesc@@B 10029810     Main.obj
 0003:00000814       ?pSD_sStimSourceDesc@@3PBUsStructDesc@@B 10029814     Main.obj
 0003:00000818       ?pSD_eSlayResult@@3PBUsStructDesc@@B 10029818     Main.obj
 0003:0000081c       ?pSD_PropagateSourceScale@@3PBUsStructDesc@@B 1002981c     Main.obj
 0003:00000820       ?pSD_sFlinder@@3PBUsStructDesc@@B 10029820     Main.obj
 0003:00000824       ?pSD_sReceptron@@3PBUsStructDesc@@B 10029824     Main.obj
 0003:00000828       ?pSD_tSensorCount@@3PBUsStructDesc@@B 10029828     Main.obj
 0003:0000082c       ?pSD_ReceptronID@@3PBUsStructDesc@@B 1002982c     Main.obj
 0003:00000830       ?pSD_sStimulateParam@@3PBUsStructDesc@@B 10029830     Main.obj
 0003:00000834       ?pSD_eInventoryType@@3PBUsStructDesc@@B 10029834     Main.obj
 0003:00000838       ?pSD_BOOL@@3PBUsStructDesc@@B 10029838     Main.obj
 0003:0000083c       ?pSD_int@@3PBUsStructDesc@@B 1002983c     Main.obj
 0003:00000840       ?pSD_float@@3PBUsStructDesc@@B 10029840     Main.obj
 0003:00000844       ?pSD_Label@@3PBUsStructDesc@@B 10029844     Main.obj
 0003:00000848       ?pSD_Vector@@3PBUsStructDesc@@B 10029848     Main.obj
 0003:0000084c       ?pSD_CollType@@3PBUsStructDesc@@B 1002984c     Main.obj
 0003:00000850       ?pSD_sLightProp@@3PBUsStructDesc@@B 10029850     Main.obj
 0003:00000854       ?pSD_ColorInfo@@3PBUsStructDesc@@B 10029854     Main.obj
 0003:00000858       ?pSD_sAnimLightProp@@3PBUsStructDesc@@B 10029858     Main.obj
 0003:0000085c       ?pSD_sExtraLightProp@@3PBUsStructDesc@@B 1002985c     Main.obj
 0003:00000860       ?pSD_Position@@3PBUsStructDesc@@B 10029860     Main.obj
 0003:00000864       ?pSD_sMotActorTagList@@3PBUsStructDesc@@B 10029864     Main.obj
 0003:00000868       ?pSD_tMotorControllerType@@3PBUsStructDesc@@B 10029868     Main.obj
 0003:0000086c       ?pSD_eMSwordActionType@@3PBUsStructDesc@@B 1002986c     Main.obj
 0003:00000870       ?pSD_sMotPhysLimits@@3PBUsStructDesc@@B 10029870     Main.obj
 0003:00000874       ?pSD_sMGaitSkillData@@3PBUsStructDesc@@B 10029874     Main.obj
 0003:00000878       ?pSD_sMPlayerLimbOffsets@@3PBUsStructDesc@@B 10029878     Main.obj
 0003:0000087c       ?pSD_sScriptProp@@3PBUsStructDesc@@B 1002987c     Main.obj
 0003:00000880       ?pSD_sStimMsgParam@@3PBUsStructDesc@@B 10029880     Main.obj
 0003:00000884       ?pSD_TrapFlags@@3PBUsStructDesc@@B 10029884     Main.obj
 0003:00000888       ?pSD_sHeatDiskCluster@@3PBUsStructDesc@@B 10029888     Main.obj
 0003:0000088c       ?pSD_sSpark@@3PBUsStructDesc@@B 1002988c     Main.obj
 0003:00000890       ?pSD_sMeshAttach@@3PBUsStructDesc@@B 10029890     Main.obj
 0003:00000894       ?pSD_sFrobInfo@@3PBUsStructDesc@@B 10029894     Main.obj
 0003:00000898       ?pSD_FrobProxyInfo@@3PBUsStructDesc@@B 10029898     Main.obj
 0003:0000089c       ?pSD_eFrobHandler@@3PBUsStructDesc@@B 1002989c     Main.obj
 0003:000008a0       ?pSD_sRotDoorProp@@3PBUsStructDesc@@B 100298a0     Main.obj
 0003:000008a4       ?pSD_sTransDoorProp@@3PBUsStructDesc@@B 100298a4     Main.obj
 0003:000008a8       ?pSD_sTweqSimpleConfig@@3PBUsStructDesc@@B 100298a8     Main.obj
 0003:000008ac       ?pSD_sTweqVectorConfig@@3PBUsStructDesc@@B 100298ac     Main.obj
 0003:000008b0       ?pSD_sTweqJointsConfig@@3PBUsStructDesc@@B 100298b0     Main.obj
 0003:000008b4       ?pSD_sTweqLockConfig@@3PBUsStructDesc@@B 100298b4     Main.obj
 0003:000008b8       ?pSD_sTweqModelsConfig@@3PBUsStructDesc@@B 100298b8     Main.obj
 0003:000008bc       ?pSD_sTweqEmitterConfig@@3PBUsStructDesc@@B 100298bc     Main.obj
 0003:000008c0       ?pSD_sTweqSimpleState@@3PBUsStructDesc@@B 100298c0     Main.obj
 0003:000008c4       ?pSD_sTweqLockState@@3PBUsStructDesc@@B 100298c4     Main.obj
 0003:000008c8       ?pSD_sTweqVectorState@@3PBUsStructDesc@@B 100298c8     Main.obj
 0003:000008cc       ?pSD_sTweqJointsState@@3PBUsStructDesc@@B 100298cc     Main.obj
 0003:000008d0       ?pSD_sTweqControl@@3PBUsStructDesc@@B 100298d0     Main.obj
 0003:000008d4       ?pSD_sWeaponOffset@@3PBUsStructDesc@@B 100298d4     Main.obj
 0003:000008d8       ?pSD_sKeyInfo@@3PBUsStructDesc@@B 100298d8     Main.obj
 0003:000008dc       ?pSD_sInvRenderType@@3PBUsStructDesc@@B 100298dc     Main.obj
 0003:000008e0       ?pSD_sSuspiciousInfo@@3PBUsStructDesc@@B 100298e0     Main.obj
 0003:000008e4       ?pSD_sQVarParam@@3PBUsStructDesc@@B 100298e4     Main.obj
 0003:000008e8       ?pSD_sBashParamsProp@@3PBUsStructDesc@@B 100298e8     Main.obj
 0003:000008ec       ?pSD_sBashVars@@3PBUsStructDesc@@B 100298ec     Main.obj
 0003:000008f0       ?pSD_sCollParam@@3PBUsStructDesc@@B 100298f0     Main.obj
 0003:000008f4       ?pSD_sPermeate@@3PBUsStructDesc@@B 100298f4     Main.obj
 0003:000008f8       ?pSD_sPropAddParam@@3PBUsStructDesc@@B 100298f8     Main.obj
 0003:000008fc       ?pSD_sPropRemParam@@3PBUsStructDesc@@B 100298fc     Main.obj
 0003:00000900       ?pSD_sObjCreateParam@@3PBUsStructDesc@@B 10029900     Main.obj
 0003:00000904       ?pSD_sObjMoveParam@@3PBUsStructDesc@@B 10029904     Main.obj
 0003:00000908       ?pSD_sDamageParam@@3PBUsStructDesc@@B 10029908     Main.obj
 0003:0000090c       ?pSD_sSpoofDamageParam@@3PBUsStructDesc@@B 1002990c     Main.obj
 0003:00000910       ?pSD_sSetModelParam@@3PBUsStructDesc@@B 10029910     Main.obj
 0003:00000914       ?pSD_sAware@@3PBUsStructDesc@@B 10029914     Main.obj
 0003:00000918       ?pSD_sCreatureAttachInfo@@3PBUsStructDesc@@B 10029918     Main.obj
 0003:0000091c       ?pSD_sCreatureHandle@@3PBUsStructDesc@@B 1002991c     Main.obj
 0003:00000920       ?pSD_sCreaturePose@@3PBUsStructDesc@@B 10029920     Main.obj
 0003:00000924       ?pSD_sAdvPickTransCfg@@3PBUsStructDesc@@B 10029924     Main.obj
 0003:00000928       ?pSD_sAdvPickSoundCfg@@3PBUsStructDesc@@B 10029928     Main.obj
 0003:0000092c       ?pSD_sAdvPickStateCfg@@3PBUsStructDesc@@B 1002992c     Main.obj
 0003:00000930       ?pSD_PickSrc@@3PBUsStructDesc@@B 10029930     Main.obj
 0003:00000934       ?pSD_sPickCfg@@3PBUsStructDesc@@B 10029934     Main.obj
 0003:00000938       ?pSD_sPickState@@3PBUsStructDesc@@B 10029938     Main.obj
 0003:0000093c       ?pSD_sBeltLink@@3PBUsStructDesc@@B 1002993c     Main.obj
 0003:00000940       ?pSD_sAltLink@@3PBUsStructDesc@@B 10029940     Main.obj
 0003:00000944       ?pSD_sBreathConfig@@3PBUsStructDesc@@B 10029944     Main.obj
 0003:00000948       ?pSD_sCombatVars@@3PBUsStructDesc@@B 10029948     Main.obj
 0003:0000094c       ?pSD_cBaseGunDescs@@3PBUsStructDesc@@B 1002994c     Main.obj
 0003:00000950       ?pSD_sAIGunDesc@@3PBUsStructDesc@@B 10029950     Main.obj
 0003:00000954       ?pSD_sGunState@@3PBUsStructDesc@@B 10029954     Main.obj
 0003:00000958       ?pSD_sProjectileData@@3PBUsStructDesc@@B 10029958     Main.obj
 0003:0000095c       ?pSD_sProjectile@@3PBUsStructDesc@@B 1002995c     Main.obj
 0003:00000960       ?pSD_sFlashData@@3PBUsStructDesc@@B 10029960     Main.obj
 0003:00000964       ?pSD_sLootProp@@3PBUsStructDesc@@B 10029964     Main.obj
 0003:00000968       ?pSD_sMissionData@@3PBUsStructDesc@@B 10029968     Main.obj
 0003:0000096c       ?pSD_sMapSourceData@@3PBUsStructDesc@@B 1002996c     Main.obj
 0003:00000970       ?pSD_sAutomapProperty@@3PBUsStructDesc@@B 10029970     Main.obj
 0003:00000974       ?pSD_tQVarVal@@3PBUsStructDesc@@B 10029974     Main.obj
 0003:00000978       ?pSD_sVoiceData@@3PBUsStructDesc@@B 10029978     Main.obj
 0003:0000097c       ?pSD_tDarkStat@@3PBUsStructDesc@@B 1002997c     Main.obj
 0003:00000980       ?pSD_sAIProp@@3PBUsStructDesc@@B 10029980     Main.obj
 0003:00000984       ?pSD_sAIEfficiency@@3PBUsStructDesc@@B 10029984     Main.obj
 0003:00000988       ?pSD_sAIAlertness@@3PBUsStructDesc@@B 10029988     Main.obj
 0003:0000098c       ?pSD_sAIFrustrated@@3PBUsStructDesc@@B 1002998c     Main.obj
 0003:00000990       ?pSD_sAIAlertCap@@3PBUsStructDesc@@B 10029990     Main.obj
 0003:00000994       ?pSD_sAIVisibility@@3PBUsStructDesc@@B 10029994     Main.obj
 0003:00000998       ?pSD_eAIMode@@3PBUsStructDesc@@B 10029998     Main.obj
 0003:0000099c       ?pSD_eAITeam@@3PBUsStructDesc@@B 1002999c     Main.obj
 0003:000009a0       ?pSD_VisionJoint@@3PBUsStructDesc@@B 100299a0     Main.obj
 0003:000009a4       ?pSD_sAIVisionDesc@@3PBUsStructDesc@@B 100299a4     Main.obj
 0003:000009a8       ?pSD_sAIVisibilityMods@@3PBUsStructDesc@@B 100299a8     Main.obj
 0003:000009ac       ?pSD_sAIVisibilityControl@@3PBUsStructDesc@@B 100299ac     Main.obj
 0003:000009b0       ?pSD_sAIAwareCapacitor@@3PBUsStructDesc@@B 100299b0     Main.obj
 0003:000009b4       ?pSD_sAIAlertSenseMults@@3PBUsStructDesc@@B 100299b4     Main.obj
 0003:000009b8       ?pSD_sAIAwareDelay@@3PBUsStructDesc@@B 100299b8     Main.obj
 0003:000009bc       ?pSD_cAIDeviceParams@@3PBUsStructDesc@@B 100299bc     Main.obj
 0003:000009c0       ?pSD_cAITurretParams@@3PBUsStructDesc@@B 100299c0     Main.obj
 0003:000009c4       ?pSD_cAICameraParams@@3PBUsStructDesc@@B 100299c4     Main.obj
 0003:000009c8       ?pSD_ActorID@@3PBUsStructDesc@@B 100299c8     Main.obj
 0003:000009cc       ?pSD_eAIRating@@3PBUsStructDesc@@B 100299cc     Main.obj
 0003:000009d0       ?pSD_eAIInvestKind@@3PBUsStructDesc@@B 100299d0     Main.obj
 0003:000009d4       ?pSD_eAINonHostility@@3PBUsStructDesc@@B 100299d4     Main.obj
 0003:000009d8       ?pSD_cAINonCombatDmgResp@@3PBUsStructDesc@@B 100299d8     Main.obj
 0003:000009dc       ?pSD_sAIProjectileRel@@3PBUsStructDesc@@B 100299dc     Main.obj
 0003:000009e0       ?pSD_sAIRangedCombatProp@@3PBUsStructDesc@@B 100299e0     Main.obj
 0003:000009e4       ?pSD_sAISoundType@@3PBUsStructDesc@@B 100299e4     Main.obj
 0003:000009e8       ?pSD_sVantagePtProp@@3PBUsStructDesc@@B 100299e8     Main.obj
 0003:000009ec       ?pSD_sCoverPtProp@@3PBUsStructDesc@@B 100299ec     Main.obj
 0003:000009f0       ?pSD_sAngleLimitProp@@3PBUsStructDesc@@B 100299f0     Main.obj
 0003:000009f4       ?pSD_sAIPathOptions@@3PBUsStructDesc@@B 100299f4     Main.obj
 0003:000009f8       ?pSD_sAIGamesysPathOptions@@3PBUsStructDesc@@B 100299f8     Main.obj
 0003:000009fc       ?pSD_sAICreatureSizes@@3PBUsStructDesc@@B 100299fc     Main.obj
 0003:00000a00       ?pSD_sAICombatTiming@@3PBUsStructDesc@@B 10029a00     Main.obj
 0003:00000a04       ?pSD_sAIRangedRanges@@3PBUsStructDesc@@B 10029a04     Main.obj
 0003:00000a08       ?pSD_cAIRangedWound@@3PBUsStructDesc@@B 10029a08     Main.obj
 0003:00000a0c       ?pSD_sAIRangedApplicabilities@@3PBUsStructDesc@@B 10029a0c     Main.obj
 0003:00000a10       ?pSD_sAIRangedFleeParams@@3PBUsStructDesc@@B 10029a10     Main.obj
 0003:00000a14       ?pSD_sAIRangedShootParams@@3PBUsStructDesc@@B 10029a14     Main.obj
 0003:00000a18       ?pSD_sAIFleeConditions@@3PBUsStructDesc@@B 10029a18     Main.obj
 0003:00000a1c       ?pSD_sAINoFleeLink@@3PBUsStructDesc@@B 10029a1c     Main.obj
 0003:00000a20       ?pSD_sAIFleeDest@@3PBUsStructDesc@@B 10029a20     Main.obj
 0003:00000a24       ?pSD_sAIWatchPoint@@3PBUsStructDesc@@B 10029a24     Main.obj
 0003:00000a28       ?pSD_sAIDefendPoint@@3PBUsStructDesc@@B 10029a28     Main.obj
 0003:00000a2c       ?pSD_sAIIdleDirs@@3PBUsStructDesc@@B 10029a2c     Main.obj
 0003:00000a30       ?pSD_sAIIdleOrigin@@3PBUsStructDesc@@B 10029a30     Main.obj
 0003:00000a34       ?pSD_sAICameraLinkData@@3PBUsStructDesc@@B 10029a34     Main.obj
 0003:00000a38       ?pSD_sAIAcuitySets@@3PBUsStructDesc@@B 10029a38     Main.obj
 0003:00000a3c       ?pSD_sAISoundTweaks@@3PBUsStructDesc@@B 10029a3c     Main.obj
 0003:00000a40       ?pSD_sHearingStats@@3PBUsStructDesc@@B 10029a40     Main.obj
 0003:00000a44       ?pSD_sAIBroadcastSettings@@3PBUsStructDesc@@B 10029a44     Main.obj
 0003:00000a48       ?pSD_sAIFollowLink@@3PBUsStructDesc@@B 10029a48     Main.obj
 0003:00000a4c       ?pSD_sAISignalResponse@@3PBUsStructDesc@@B 10029a4c     Main.obj
 0003:00000a50       ?pSD_sAIThreatResponse@@3PBUsStructDesc@@B 10029a50     Main.obj
 0003:00000a54       ?pSD_sAIAlertResponse@@3PBUsStructDesc@@B 10029a54     Main.obj
 0003:00000a58       ?pSD_sAIBodyResponse@@3PBUsStructDesc@@B 10029a58     Main.obj
 0003:00000a5c       ?pSD_sAISuspiciousResponse@@3PBUsStructDesc@@B 10029a5c     Main.obj
 0003:00000a60       ?pSD_sAIObjectAvoid@@3PBUsStructDesc@@B 10029a60     Main.obj
 0003:00000a64       ?pSD_sAIInformResponse@@3PBUsStructDesc@@B 10029a64     Main.obj
 0003:00000a68       ?pSD_sAISenseCombatResponse@@3PBUsStructDesc@@B 10029a68     Main.obj
 0003:00000a6c       ?pSD_sAIFrozen@@3PBUsStructDesc@@B 10029a6c     Main.obj
 0003:00000a70       ?pSD_sFreezeReactionParam@@3PBUsStructDesc@@B 10029a70     Main.obj
 0003:00000a74       ?pSD_sAIAwareness@@3PBUsStructDesc@@B 10029a74     Main.obj
 0003:00000a78       ?pSD_sAISuspiciousLink@@3PBUsStructDesc@@B 10029a78     Main.obj
 0003:00000a7c       ?pSD_sMissionSongParams@@3PBUsStructDesc@@B 10029a7c     Main.obj
 0003:00000a80       ?pSD_AmbientSound@@3PBUsStructDesc@@B 10029a80     Main.obj
 0003:00000a84       ?pSD_sAcousticsProperty@@3PBUsStructDesc@@B 10029a84     Main.obj
 0003:00000a88       ?pSD_sAmbientProperty@@3PBUsStructDesc@@B 10029a88     Main.obj
 0003:00000a8c       ?pSD_cPhysTypeProp@@3PBUsStructDesc@@B 10029a8c     Main.obj
 0003:00000a90       ?pSD_cPhysAttrProp@@3PBUsStructDesc@@B 10029a90     Main.obj
 0003:00000a94       ?pSD_cPhysStateProp@@3PBUsStructDesc@@B 10029a94     Main.obj
 0003:00000a98       ?pSD_cPhysControlProp@@3PBUsStructDesc@@B 10029a98     Main.obj
 0003:00000a9c       ?pSD_cPhysDimsProp@@3PBUsStructDesc@@B 10029a9c     Main.obj
 0003:00000aa0       ?pSD_cMovingTerrainProp@@3PBUsStructDesc@@B 10029aa0     Main.obj
 0003:00000aa4       ?pSD_tCanAttachType@@3PBUsStructDesc@@B 10029aa4     Main.obj
 0003:00000aa8       ?pSD_sPhysExplodeProp@@3PBUsStructDesc@@B 10029aa8     Main.obj
 0003:00000aac       ?pSD_sPhysRopeProp@@3PBUsStructDesc@@B 10029aac     Main.obj
 0003:00000ab0       ?pSD_sPhysPPlateProp@@3PBUsStructDesc@@B 10029ab0     Main.obj
 0003:00000ab4       ?pSD_sTerrainPath@@3PBUsStructDesc@@B 10029ab4     Main.obj
 0003:00000ab8       ?pSD_sPhysAttachData@@3PBUsStructDesc@@B 10029ab8     Main.obj
 0003:00000abc       ?pSD_sSchemaLoopParams@@3PBUsStructDesc@@B 10029abc     Main.obj
 0003:00000ac0       ?pSD_sSchemaPlayParams@@3PBUsStructDesc@@B 10029ac0     Main.obj
 0003:00000ac4       ?pSD_sSpeech@@3PBUsStructDesc@@B 10029ac4     Main.obj
 0003:00000ac8       ?pSD_sESndTagList@@3PBUsStructDesc@@B 10029ac8     Main.obj
 0003:00000acc       ?pSD_sEnvSoundReactionParam@@3PBUsStructDesc@@B 10029acc     Main.obj
 0003:00000ad0       ?pSD_tRendType@@3PBUsStructDesc@@B 10029ad0     Main.obj
 0003:00000ad4       ?pSD_sJointPos@@3PBUsStructDesc@@B 10029ad4     Main.obj
 0003:00000ad8       ?pSD_ParticleGroup@@3PBUsStructDesc@@B 10029ad8     Main.obj
 0003:00000adc       ?pSD_ParticleLaunchInfo@@3PBUsStructDesc@@B 10029adc     Main.obj
 0003:00000ae0       ?pSD_sParticleAttachLinkData@@3PBUsStructDesc@@B 10029ae0     Main.obj
 0003:00000ae4       ?pSD_FrameAnimationState@@3PBUsStructDesc@@B 10029ae4     Main.obj
 0003:00000ae8       ?pSD_FrameAnimationConfig@@3PBUsStructDesc@@B 10029ae8     Main.obj
 0003:00000aec       ?pSD_FlashbombRender@@3PBUsStructDesc@@B 10029aec     Main.obj
 0003:00000af0       ?pSD_cBitmapWorldspaceProperty@@3PBUsStructDesc@@B 10029af0     Main.obj
 0003:00000af4       ?pSD_tBitmapAnimationType@@3PBUsStructDesc@@B 10029af4     Main.obj
 0003:00000af8       ?pSD_sAnimTexProp@@3PBUsStructDesc@@B 10029af8     Main.obj
 0003:00000afc       ?pSD_sSkyMode@@3PBUsStructDesc@@B 10029afc     Main.obj
 0003:00000b00       ?pSD_sMissionRenderParams@@3PBUsStructDesc@@B 10029b00     Main.obj
 0003:00000b04       ?pSD_sRGBA@@3PBUsStructDesc@@B 10029b04     Main.obj
 0003:00000b08       ?pSD_sWaterBanks@@3PBUsStructDesc@@B 10029b08     Main.obj
 0003:00000b0c       ?pSD_sMissionSkyObj@@3PBUsStructDesc@@B 10029b0c     Main.obj
 0003:00000b10       ?pSD_sMissionStarObj@@3PBUsStructDesc@@B 10029b10     Main.obj
 0003:00000b14       ?pSD_sMissionCelestialObj@@3PBUsStructDesc@@B 10029b14     Main.obj
 0003:00000b18       ?pSD_sMissionCloudObj@@3PBUsStructDesc@@B 10029b18     Main.obj
 0003:00000b1c       ?pSD_sMissionDistantObj@@3PBUsStructDesc@@B 10029b1c     Main.obj
 0003:00000b20       ?pSD_eNetworkCategory@@3PBUsStructDesc@@B 10029b20     Main.obj
 0003:00000b24       ?pSD_cWeatherProperty@@3PBUsStructDesc@@B 10029b24     Main.obj
 0003:00000b28       ?pSD_cMeshTexProperty@@3PBUsStructDesc@@B 10029b28     Main.obj
 0003:00000b2c       ?pSD_cFaceProperty@@3PBUsStructDesc@@B 10029b2c     Main.obj
 0003:00000b30       ?pSD_cFaceStateProperty@@3PBUsStructDesc@@B 10029b30     Main.obj
 0003:00000b34       ?pSD_cCoronaProperty@@3PBUsStructDesc@@B 10029b34     Main.obj
 0003:00000b38       ?pFD_MissionFlags@@3PBUsFieldDesc@@B 10029b38     Main.obj
 0003:00000b3c       ?_gGhostRemotes@@3PAVcHashSet@@A 10029b3c     Main.obj
 0003:00000b40       ?g_currFrob@@3PAUsFrobActivate@@A 10029b40     Main.obj
 0003:00000b44       ?_AppGetAggregated@@3P6GPAXABU_GUID@@@ZA 10029b44     Main.obj
 0003:00000b48       ?DarkNew@@3P6APAXI@ZA      10029b48     Main.obj
 0003:00000b4c       ?DarkFree@@3P6AXPAX@ZA     10029b4c     Main.obj
 0003:00000b50       ?dark_delete@@3P6AXPAX@ZA  10029b50     Main.obj
 0003:00000b54       ?dark_strdup@@3P6APBDPBD@ZA 10029b54     Main.obj
 0003:00000b58       ?PumpEvents@@3P6G?AW4eWinPumpResult@@PAKHW4eWinPumpDuration@@@ZA 10029b58     Main.obj
 0003:00000b5c       ?_quit_game@@3P6AXXZA      10029b5c     Main.obj
 0003:00000b60       ?FetchUIString@@3P6A?AVcAnsiStr@@PBD00@ZA 10029b60     Main.obj
 0003:00000b64       ?FetchUIImage@@3P6APAUIDarkDataSource@@PBD0@ZA 10029b64     Main.obj
 0003:00000b68       ?FetchUIRects@@3P6AHPBDAAV?$cDynArray@URect@@@@0@ZA 10029b68     Main.obj
 0003:00000b6c       ?_extension_p@@3P6APBDPBD@ZA 10029b6c     Main.obj
 0003:00000b70       ?_GetMissionData@@3P6APAUsMissionData@@XZA 10029b70     Main.obj
 0003:00000b74       ?UpdateLootTotals@@3P6AXHPAUsLoot@@@ZA 10029b74     Main.obj
 0003:00000b78       ?_AIGetStun@@3P6AHH@ZA     10029b78     Main.obj
 0003:00000b7c       ?AwarenessFilter@@3P6GHPAUsReactionEvent@@PBUsReactionParam@@K@ZA 10029b7c     Main.obj
 0003:00000b80       ?AutomapGetCurrentRoom@@3P6APAUsAutomapProperty@@XZA 10029b80     Main.obj
 0003:00000b84       ?AutomapHighlightArea@@3P6AXPAUIRes@@PAURect@@H@ZA 10029b84     Main.obj
 0003:00000b88       ?_IsBowEquipped@@3P6AHXZA  10029b88     Main.obj
 0003:00000b8c       ?WobbleBow@@3P6AXJ@ZA      10029b8c     Main.obj
 0003:00000b90       ?UpdateBowTime@@3P6AXHH@ZA 10029b90     Main.obj
 0003:00000b94       ?_RenockBow@@3P6AHJ@ZA     10029b94     Main.obj
 0003:00000b98       ?_ClearPlayerArmFilter@@3P6AXXZA 10029b98     Main.obj
 0003:00000b9c       ?ZoomClear@@3P6AXXZA       10029b9c     Main.obj
 0003:00000ba0       ?DoBowAttack@@3P6AHXZA     10029ba0     Main.obj
 0003:00000ba4       ?PutTheBowAway@@3P6AXH@ZA  10029ba4     Main.obj
 0003:00000ba8       ?sub_56EB50@@3P6AXXZA      10029ba8     Main.obj
 0003:00000bac       ?_CreatureAttachItem@@3P6AXHHPAUWeaponAttachment@@@ZA 10029bac     Main.obj
 0003:00000bb0       ?_CreatureDetachItem@@3P6AXHH@ZA 10029bb0     Main.obj
 0003:00000bb4       ?_CreatureAttachWeapon@@3P6AXHHPAUWeaponAttachment@@@ZA 10029bb4     Main.obj
 0003:00000bb8       ?_CreatureFromObj@@3P6APAVcCreature@@H@ZA 10029bb8     Main.obj
 0003:00000bbc       ?_ObjGetCreatureType@@3P6AHHAAH@ZA 10029bbc     Main.obj
 0003:00000bc0       ?_ObjSetCreatureType@@3P6AXHH@ZA 10029bc0     Main.obj
 0003:00000bc4       ?_CreatureHandle@@3P6APAUsCreatureHandle@@H@ZA 10029bc4     Main.obj
 0003:00000bc8       ?CreatureGetMotorInterface@@3P6APAVIMotor@@H@ZA 10029bc8     Main.obj
 0003:00000bcc       ?_dark_init_game@@3P6AXXZA 10029bcc     Main.obj
 0003:00000bd0       ?_dark_term_game@@3P6AXXZA 10029bd0     Main.obj
 0003:00000bd4       ?_DarkStatIntAdd@@3P6AXPBDH@ZA 10029bd4     Main.obj
 0003:00000bd8       ?_DarkStatIntGet@@3P6AHPADH@ZA 10029bd8     Main.obj
 0003:00000bdc       ?_DarkAutomapSetLocationVisited@@3P6AXHH@ZA 10029bdc     Main.obj
 0003:00000be0       ?_DarkAutomapGetLocationVisited@@3P6AHHH@ZA 10029be0     Main.obj
 0003:00000be4       ?_gr_alloc_bitmap@@3P6APAUgrs_bitmap@@HHHH@ZA 10029be4     Main.obj
 0003:00000be8       ?_gr_make_canvas@@3P6AXPAUgrs_bitmap@@PAUgrd_canvas@@@ZA 10029be8     Main.obj
 0003:00000bec       ?_gr_push_canvas@@3P6AXPAUgrd_canvas@@@ZA 10029bec     Main.obj
 0003:00000bf0       ?_gr_pop_canvas@@3P6AXXZA  10029bf0     Main.obj
 0003:00000bf4       ?_gr_make_screen_fcolor@@3P6AHH@ZA 10029bf4     Main.obj
 0003:00000bf8       ?_guiScreenColor@@3P6AHH@ZA 10029bf8     Main.obj
 0003:00000bfc       ?_GUIsetup@@3P6AXPAUGUIsetupStruct@@PBURect@@HH@ZA 10029bfc     Main.obj
 0003:00000c00       ?_GUIdone@@3P6AXPAUGUIsetupStruct@@@ZA 10029c00     Main.obj
 0003:00000c04       ?_uiGameLoadStyle@@3P6AXPBDPAUguiStyle@@0@ZA 10029c04     Main.obj
 0003:00000c08       ?_uiGameUnloadStyle@@3P6AXPAUguiStyle@@@ZA 10029c08     Main.obj
 0003:00000c0c       ?_DarkMessage@@3P6AXPBD@ZA 10029c0c     Main.obj
 0003:00000c10       ?_gr_font_string@@3P6AXPAXPBDHH@ZA 10029c10     Main.obj
 0003:00000c14       ?_gr_font_string_wrap@@3P6AXPAXPBDF@ZA 10029c14     Main.obj
 0003:00000c18       ?_gr_font_string_size@@3P6AXPAXPBDPAF2@ZA 10029c18     Main.obj
 0003:00000c1c       ?_gr_font_string_unwrap@@3P6AXPBD@ZA 10029c1c     Main.obj
 0003:00000c20       ?_gr_font_string_height@@3P6AFPAXPBD@ZA 10029c20     Main.obj
 0003:00000c24       ?_gr_font_string_width@@3P6AFPAXPBD@ZA 10029c24     Main.obj
 0003:00000c28       ?_guiStyleGetColor@@3P6AHPAUguiStyle@@H@ZA 10029c28     Main.obj
 0003:00000c2c       ?_guiStyleCleanupFont@@3P6AXPAUguiStyle@@H@ZA 10029c2c     Main.obj
 0003:00000c30       ?_guiStyleSetupFont@@3P6AXPAUguiStyle@@H@ZA 10029c30     Main.obj
 0003:00000c34       ?_uiInstallRegionHandler@@3P6AXHHP6AXPAU_ui_event@@PAU_Region@@PAX@Z2H@ZA 10029c34     Main.obj
 0003:00000c38       ?_GetCurrentStyle@@3P6APAUguiStyle@@XZA 10029c38     Main.obj
 0003:00000c3c       ?_SetCurrentStyle@@3P6AXPAUguiStyle@@@ZA 10029c3c     Main.obj
 0003:00000c40       ?_guiStyleGetFont@@3P6APAUIRes@@HH@ZA 10029c40     Main.obj
 0003:00000c44       ?_mouse_get_xy@@3P6AFPAF0@ZA 10029c44     Main.obj
 0003:00000c48       ?_mouse_put_xy@@3P6AFFF@ZA 10029c48     Main.obj
 0003:00000c4c       ?_palmgr_alloc_pal@@3P6AEPAX@ZA 10029c4c     Main.obj
 0003:00000c50       ?_CreateStringProperty@@3P6APAUIStringProperty@@PBUsPropertyDesc@@H@ZA 10029c50     Main.obj
 0003:00000c54       ?DarkSimulationLoop@@3P6GHKKPAUtLoopMessageData__@@@ZA 10029c54     Main.obj
 0003:00000c58       ?ObjectSystemLoopClient@@3P6GHKKPAUtLoopMessageData__@@@ZA 10029c58     Main.obj
 0003:00000c5c       ?GameModeLoopClient@@3P6GHKKPAUtLoopMessageData__@@@ZA 10029c5c     Main.obj
 0003:00000c60       ?DarkRenderingLoopClient@@3P6GHKKPAUtLoopMessageData__@@@ZA 10029c60     Main.obj
 0003:00000c64       ?SimLoopClient@@3P6GHKKPAUtLoopMessageData__@@@ZA 10029c64     Main.obj
 0003:00000c68       ?_InstallIBHandler@@3P6AXJHH@ZA 10029c68     Main.obj
 0003:00000c6c       ?_RemoveIBHandler@@3P6AXXZA 10029c6c     Main.obj
 0003:00000c70       ?_PushMovieOrBookMode@@3P6AXPBD@ZA 10029c70     Main.obj
 0003:00000c74       ?_SwitchToNewGameMode@@3P6AXH@ZA 10029c74     Main.obj
 0003:00000c78       ?_SwitchToMainMenuMode@@3P6AXH@ZA 10029c78     Main.obj
 0003:00000c7c       ?_SwitchToOptionsMode@@3P6AXH@ZA 10029c7c     Main.obj
 0003:00000c80       ?_SwitchToLoadGameMode@@3P6AXH@ZA 10029c80     Main.obj
 0003:00000c84       ?_SwitchToSaveGameMode@@3P6AXH@ZA 10029c84     Main.obj
 0003:00000c88       ?_SwitchToObjectivesMode@@3P6AXH@ZA 10029c88     Main.obj
 0003:00000c8c       ?_SwitchToDarkAutomapMode@@3P6AXH@ZA 10029c8c     Main.obj
 0003:00000c90       ?_SwitchToSimMenuMode@@3P6AXH@ZA 10029c90     Main.obj
 0003:00000c94       ?_PlayerCreate@@3P6AXXZA   10029c94     Main.obj
 0003:00000c98       ?_PlayerDestroy@@3P6AXXZA  10029c98     Main.obj
 0003:00000c9c       ?_GetPlayerMode@@3P6A?AW4ePlayerMode@@XZA 10029c9c     Main.obj
 0003:00000ca0       ?_SetPlayerMode@@3P6AXH@ZA 10029ca0     Main.obj
 0003:00000ca4       ?_IsAPlayer@@3P6AHH@ZA     10029ca4     Main.obj
 0003:00000ca8       ?_PlayerMotionGetActive@@3P6AHXZA 10029ca8     Main.obj
 0003:00000cac       ?_PlayerMotionActivate@@3P6AXW4ePlayerMotion@@@ZA 10029cac     Main.obj
 0003:00000cb0       ?_GetTransSpeedScale@@3P6AMXZA 10029cb0     Main.obj
 0003:00000cb4       ?_AddSpeedScale@@3P6AXPBDMM@ZA 10029cb4     Main.obj
 0003:00000cb8       ?_PlayerFinishAction@@3P6AXXZA 10029cb8     Main.obj
 0003:00000cbc       ?_SetLeaningState@@3P6AXH@ZA 10029cbc     Main.obj
 0003:00000cc0       ?_ObjGetMaxHitPoints@@3P6AHHPAH@ZA 10029cc0     Main.obj
 0003:00000cc4       ?_ObjSetHitPoints@@3P6AHHH@ZA 10029cc4     Main.obj
 0003:00000cc8       ?_ObjGetHitPoints@@3P6AHHPAH@ZA 10029cc8     Main.obj
 0003:00000ccc       ?_ObjEditName@@3P6APADH@ZA 10029ccc     Main.obj
 0003:00000cd0       ?_ObjPosGet@@3P6APAUPosition@@H@ZA 10029cd0     Main.obj
 0003:00000cd4       ?_ObjPosCopyUpdate@@3P6AXHPAUPosition@@@ZA 10029cd4     Main.obj
 0003:00000cd8       ?_ObjPosGetLocVector@@3P6APAUmxs_vector@@H@ZA 10029cd8     Main.obj
 0003:00000cdc       ?_ObjPosSetLocation@@3P6AXHPAUPosition@@@ZA 10029cdc     Main.obj
 0003:00000ce0       ?_ObjRenderType@@3P6AHH@ZA 10029ce0     Main.obj
 0003:00000ce4       ?_ObjSetRenderType@@3P6AXHH@ZA 10029ce4     Main.obj
 0003:00000ce8       ?_ObjSetHasRefs@@3P6AXHH@ZA 10029ce8     Main.obj
 0003:00000cec       ?_ObjGetModelName@@3P6AHHPAD@ZA 10029cec     Main.obj
 0003:00000cf0       ?_ObjSetModelName@@3P6AXHPAD@ZA 10029cf0     Main.obj
 0003:00000cf4       ?_ObjGetESndClass@@3P6AXHPAPAX@ZA 10029cf4     Main.obj
 0003:00000cf8       ?_ObjSetScale@@3P6AXHPAUmxs_vector@@@ZA 10029cf8     Main.obj
 0003:00000cfc       ?_ObjGetWeaponType@@3P6AXHPAH@ZA 10029cfc     Main.obj
 0003:00000d00       ?_ObjIsAI@@3P6AHH@ZA       10029d00     Main.obj
 0003:00000d04       ?_GetTextureObj@@3P6AHH@ZA 10029d04     Main.obj
 0003:00000d08       ?_ObjFrobResult@@3P6APAUsFrobInfo@@H@ZA 10029d08     Main.obj
 0003:00000d0c       ?_ObjFrobResultForLoc@@3P6AEHH@ZA 10029d0c     Main.obj
 0003:00000d10       ?_ObjSetSelfLocked@@3P6AXHH@ZA 10029d10     Main.obj
 0003:00000d14       ?_ObjTranslate@@3P6AXHPAUmxs_vector@@@ZA 10029d14     Main.obj
 0003:00000d18       ?_ObjRotate@@3P6AXHPAUmxs_angvec@@@ZA 10029d18     Main.obj
 0003:00000d1c       ?_rendobj_object_is_visible@@3P6AHH@ZA 10029d1c     Main.obj
 0003:00000d20       ?_mx_zero_vec@@3P6AXAAUmxs_vector@@@ZA 10029d20     Main.obj
 0003:00000d24       ?_mx_copy_trans@@3P6AXPAUmxs_trans@@0@ZA 10029d24     Main.obj
 0003:00000d28       ?_mx_mag_vec@@3P6AMAAUmxs_vector@@@ZA 10029d28     Main.obj
 0003:00000d2c       ?_mx_mag2_vec@@3P6AMPAUmxs_vector@@@ZA 10029d2c     Main.obj
 0003:00000d30       ?_mx_dist_vec@@3P6AMPAUmxs_vector@@0@ZA 10029d30     Main.obj
 0003:00000d34       ?_DarkQuickSaveGame@@3P6AXXZA 10029d34     Main.obj
 0003:00000d38       ?_DarkQuickLoadGame@@3P6AXXZA 10029d38     Main.obj
 0003:00000d3c       ?_DarkSaveGameFile@@3P6AJPAD0@ZA 10029d3c     Main.obj
 0003:00000d40       ?_DarkQuickLoadGameFile@@3P6AJPAD@ZA 10029d40     Main.obj
 0003:00000d44       ?_SimStatePause@@3P6AXXZA  10029d44     Main.obj
 0003:00000d48       ?_SimStateUnpause@@3P6AXXZA 10029d48     Main.obj
 0003:00000d4c       ?_SimStateCheckFlags@@3P6AHK@ZA 10029d4c     Main.obj
 0003:00000d50       ?_SimStateSetFlags@@3P6AXKH@ZA 10029d50     Main.obj
 0003:00000d54       ?_GetSimTime@@3P6AHXZA     10029d54     Main.obj
 0003:00000d58       ?_GetSimFrameTime@@3P6AHXZA 10029d58     Main.obj
 0003:00000d5c       ?_DarkLootPrepMission@@3P6AXXZA 10029d5c     Main.obj
 0003:00000d60       ?_DarkPrepLevelForDifficulty@@3P6AXXZA 10029d60     Main.obj
 0003:00000d64       ?_dark_end_gamemode@@3P6AXXZA 10029d64     Main.obj
 0003:00000d68       ?_dark_start_gamemode@@3P6AXK@ZA 10029d68     Main.obj
 0003:00000d6c       ?_win_mission@@3P6AXXZA    10029d6c     Main.obj
 0003:00000d70       ?_GenerateSound@@3P6AHPADPAUsfx_parm@@@ZA 10029d70     Main.obj
 0003:00000d74       ?_GenerateSoundObj@@3P6AHHHPBDMPAUsfx_parm@@HH@ZA 10029d74     Main.obj
 0003:00000d78       ?GenerateSoundVec@@3P6AHPAUmxs_vector@@HHPADMPAUsfx_parm@@HH@ZA 10029d78     Main.obj
 0003:00000d7c       ?_SoundNetGenerateSoundVec@@3P6AXHPAUmxs_vector@@HPADMPAUsfx_parm@@@ZA 10029d7c     Main.obj
 0003:00000d80       ?_SoundNetGenerateSoundObj@@3P6AXHHHPADMPAUsfx_parm@@@ZA 10029d80     Main.obj
 0003:00000d84       ?_SoundNetHalt@@3P6AXH@ZA  10029d84     Main.obj
 0003:00000d88       ?_SchemaPlayHalt@@3P6AXPAUsSchemaPlay@@@ZA 10029d88     Main.obj
 0003:00000d8c       ?_SchemaPlayObj@@3P6AHPBDHH@ZA 10029d8c     Main.obj
 0003:00000d90       ?_SchemaLoopParamsGet@@3P6APAUsSchemaLoopParams@@H@ZA 10029d90     Main.obj
 0003:00000d94       ?_SchemaAttFacGet@@3P6AMH@ZA 10029d94     Main.obj
 0003:00000d98       ?_SchemaIDPlay@@3P6APAUsSchemaPlay@@HPAUsSchemaCallParams@@PAX@ZA 10029d98     Main.obj
 0003:00000d9c       ?SchemaParamsSetup@@3P6AXHAAUsfx_parm@@K@ZA 10029d9c     Main.obj
 0003:00000da0       ?_SchemaSampleGet@@3P6APBDHH@ZA 10029da0     Main.obj
 0003:00000da4       ?_SchemaGetIDFromHandle@@3P6AKH@ZA 10029da4     Main.obj
 0003:00000da8       ?_SFXReset@@3P6AXXZA       10029da8     Main.obj
 0003:00000dac       ?_SFX_Play_Raw@@3P6AHHHPAD@ZA 10029dac     Main.obj
 0003:00000db0       ?_SFX_Frame@@3P6AXHH@ZA    10029db0     Main.obj
 0003:00000db4       ?_ESndPlayLoc@@3P6AHPAVcTagSet@@HHPBUmxs_vector@@PAUsSchemaCallParams@@PAX@ZA 10029db4     Main.obj
 0003:00000db8       ?_ESndPlay@@3P6AHPAVcTagSet@@HHPAUsSchemaCallParams@@PAX@ZA 10029db8     Main.obj
 0003:00000dbc       ?_LoopSampleCallback@@3P6AXKK@ZA 10029dbc     Main.obj
 0003:00000dc0       ?SchemaChooseSample@@3P6AHHH@ZA 10029dc0     Main.obj
 0003:00000dc4       ?SchemaPlayAdd@@3P6APAUsSchemaPlay@@HPBUsSchemaCallParams@@@ZA 10029dc4     Main.obj
 0003:00000dc8       ?SchemaSamplePlayAndSetupNext@@3P6AHHHPAUsSchemaPlay@@PAUsSchemaLoopParams@@PAX@ZA 10029dc8     Main.obj
 0003:00000dcc       ?_SoundHaltObj@@3P6AXH@ZA  10029dcc     Main.obj
 0003:00000dd0       ?tm_get_millisec_unrecorded@@3P6GKXZA 10029dd0     Main.obj
 0003:00000dd4       ?SpeechGetVoice@@3P6AHH@ZA 10029dd4     Main.obj
 0003:00000dd8       ?_ObjGetSpeechVoiceIndex@@3P6AHHPAH@ZA 10029dd8     Main.obj
 0003:00000ddc       ?SpeechInstallStartCallback@@3P6AXHP6AXHPBULabel@@H@Z@ZA 10029ddc     Main.obj
 0003:00000de0       ?SpeechEndCallback@@3P6AXHHPAX@ZA 10029de0     Main.obj
 0003:00000de4       ?_SpeechHalt@@3P6AXH@ZA    10029de4     Main.obj
 0003:00000de8       ?_SpeechPropCreateAndGet@@3P6APAUsSpeech@@H@ZA 10029de8     Main.obj
 0003:00000dec       ?_GetNextMission@@3P6AHXZA 10029dec     Main.obj
 0003:00000df0       ?_SetNextMission@@3P6AXH@ZA 10029df0     Main.obj
 0003:00000df4       ?_MissionLoopReset@@3P6AXH@ZA 10029df4     Main.obj
 0003:00000df8       ?_UnwindToMissionLoop@@3P6AXXZA 10029df8     Main.obj
 0003:00000dfc       ?_SwitchToLoadingMode@@3P6AXH@ZA 10029dfc     Main.obj
 0003:00000e00       ?_SwitchToNetSynchMode@@3P6AXH@ZA 10029e00     Main.obj
 0003:00000e04       ?SwitchToGameMode@@3P6AXH@ZA 10029e04     Main.obj
 0003:00000e08       ?BufTagFileOpen@@3P6APAUITagFile@@PBDW4TagFileOpenMode@@@ZA 10029e08     Main.obj
 0003:00000e0c       ?DarkLoadGameInternal@@3P6AJPAUITagFile@@@ZA 10029e0c     Main.obj
 0003:00000e10       ?_InvUIRefreshObj@@3P6AXH@ZA 10029e10     Main.obj
 0003:00000e14       ?_dbMergeLoadTagFile@@3P6AKPAUITagFile@@K@ZA 10029e14     Main.obj
 0003:00000e18       ?_dbCurrentFilenum@@3P6AKXZA 10029e18     Main.obj
 0003:00000e1c       ?_CommandExecute@@3P6AXPBD@ZA 10029e1c     Main.obj
 0003:00000e20       ?_CommandRegister@@3P6AXPAUCommand@@HH@ZA 10029e20     Main.obj
 0003:00000e24       ?_CommandFind@@3P6APAUCommand@@PBDH@ZA 10029e24     Main.obj
 0003:00000e28       ?_AddMotionFlagListener@@3P6AXHKPAX@ZA 10029e28     Main.obj
 0003:00000e2c       ?_GetArrowArchetype@@3P6AHXZA 10029e2c     Main.obj
 0003:00000e30       ?_launchProjectile@@3P6AXHHMKKKK@ZA 10029e30     Main.obj
 0003:00000e34       ?_PhysSetFlag@@3P6AXHKK@ZA 10029e34     Main.obj
 0003:00000e38       ?_PhysSetVelocity@@3P6AXHPAUmxs_vector@@@ZA 10029e38     Main.obj
 0003:00000e3c       ?_PhysSetRotationalVelocity@@3P6AXHPAUmxs_vector@@@ZA 10029e3c     Main.obj
 0003:00000e40       ?_PhysSetGravity@@3P6AXHM@ZA 10029e40     Main.obj
 0003:00000e44       ?_PhysSetBaseFriction@@3P6AXHM@ZA 10029e44     Main.obj
 0003:00000e48       ?_PhysGetVelocity@@3P6AXHPAUmxs_vector@@@ZA 10029e48     Main.obj
 0003:00000e4c       ?_PhysGetGravity@@3P6AMH@ZA 10029e4c     Main.obj
 0003:00000e50       ?_PhysGetDensity@@3P6AMH@ZA 10029e50     Main.obj
 0003:00000e54       ?_PhysGetMass@@3P6AMH@ZA   10029e54     Main.obj
 0003:00000e58       ?_PhysGetFriction@@3P6AHHPAM@ZA 10029e58     Main.obj
 0003:00000e5c       ?_PhysStopControlLocation@@3P6AXH@ZA 10029e5c     Main.obj
 0003:00000e60       ?PhysRopeListener@@3P6GXPAUsPropertyListenMsg@@PAUPropListenerData__@@@ZA 10029e60     Main.obj
 0003:00000e64       ?_PhysObjHasPhysics@@3P6AHH@ZA 10029e64     Main.obj
 0003:00000e68       ?_PhysGetClimbingObj@@3P6AHH@ZA 10029e68     Main.obj
 0003:00000e6c       ?_PhysObjIsMantling@@3P6AHH@ZA 10029e6c     Main.obj
 0003:00000e70       ?_PhysObjInWater@@3P6AHH@ZA 10029e70     Main.obj
 0003:00000e74       ?_PhysNetDiscardBorrow@@3P6AXH@ZA 10029e74     Main.obj
 0003:00000e78       ?_PhysNetBroadcastObjPosByObj@@3P6AXH@ZA 10029e78     Main.obj
 0003:00000e7c       ?_PhysNetForceContainedMsgs@@3P6AXH@ZA 10029e7c     Main.obj
 0003:00000e80       ?_PhysDeregisterModel@@3P6AXH@ZA 10029e80     Main.obj
 0003:00000e84       ?ThrowObjectInternal@@3P6AHHHM@ZA 10029e84     Main.obj
 0003:00000e88       ?_DoPickOperation@@3P6AHHHHK@ZA 10029e88     Main.obj
 0003:00000e8c       ?PickLockDoStop@@3P6AXH@ZA 10029e8c     Main.obj
 0003:00000e90       ?_NetworkCategory@@3P6A?AW4eNetworkCategory@@H@ZA 10029e90     Main.obj
 0003:00000e94       ?_SetNetworkCategory@@3P6AXHH@ZA 10029e94     Main.obj
 0003:00000e98       ?_EquipAIWeapon@@3P6AHHKK@ZA 10029e98     Main.obj
 0003:00000e9c       ?_EquipWeapon@@3P6AXHHH@ZA 10029e9c     Main.obj
 0003:00000ea0       ?_EquipBow@@3P6AXXZA       10029ea0     Main.obj
 0003:00000ea4       ?_UnEquipWeapon@@3P6AXHH@ZA 10029ea4     Main.obj
 0003:00000ea8       ?_SetWeapon@@3P6AXHHH@ZA   10029ea8     Main.obj
 0003:00000eac       ?_UnSetWeapon@@3P6AXH@ZA   10029eac     Main.obj
 0003:00000eb0       ?_GetWeaponObjID@@3P6AHH@ZA 10029eb0     Main.obj
 0003:00000eb4       ?_StartWeaponAttack@@3P6AXHH@ZA 10029eb4     Main.obj
 0003:00000eb8       ?_FinishWeaponAction@@3P6AXHH@ZA 10029eb8     Main.obj
 0003:00000ebc       ?_StartBowAttack@@3P6AXXZA 10029ebc     Main.obj
 0003:00000ec0       ?_FinishBowAttack@@3P6AXXZA 10029ec0     Main.obj
 0003:00000ec4       ?_has_projectile_type@@3P6AHH@ZA 10029ec4     Main.obj
 0003:00000ec8       ?_SetCurrentArrow@@3P6AXH@ZA 10029ec8     Main.obj
 0003:00000ecc       ?_IsWeapon@@3P6AHH@ZA      10029ecc     Main.obj
 0003:00000ed0       ?_UpdateWeaponAttack@@3P6AXXZA 10029ed0     Main.obj
 0003:00000ed4       ?_WeaponEvent@@3P6AXW4WeaponEvent@@HHH@ZA 10029ed4     Main.obj
 0003:00000ed8       ?_ScrnForceUpdate@@3P6AXXZA 10029ed8     Main.obj
 0003:00000edc       ?_ScrnForceUpdateRect@@3P6AXPAURect@@@ZA 10029edc     Main.obj
 0003:00000ee0       ?_ScrnClear@@3P6AXXZA      10029ee0     Main.obj
 0003:00000ee4       ?_ScrnLockDrawCanvas@@3P6AXXZA 10029ee4     Main.obj
 0003:00000ee8       ?_ScrnModeGet@@3P6AXPAUsScreenMode@@@ZA 10029ee8     Main.obj
 0003:00000eec       ?_ScrnModeSet@@3P6AXHPAUsScreenMode@@H@ZA 10029eec     Main.obj
 0003:00000ef0       ?_ScrnNewBlackPalette@@3P6AXXZA 10029ef0     Main.obj
 0003:00000ef4       ?_ScrnBlacken@@3P6AXXZA    10029ef4     Main.obj
 0003:00000ef8       ?_ScrnUnlockDrawCanvas@@3P6AXXZA 10029ef8     Main.obj
 0003:00000efc       ?_region_set_invisible@@3P6AXPAXH@ZA 10029efc     Main.obj
 0003:00000f00       ?_region_expose@@3P6AXPAU_Region@@PAURect@@@ZA 10029f00     Main.obj
 0003:00000f04       ?_TextGadgUpdate@@3P6AXPAX@ZA 10029f04     Main.obj
 0003:00000f08       ?_TextGadgFocus@@3P6AXPAX@ZA 10029f08     Main.obj
 0003:00000f0c       ?_TextGadgUnfocus@@3P6AXPAX@ZA 10029f0c     Main.obj
 0003:00000f10       ?_LGadCurrentRoot@@3P6APAU_LGadRoot@@XZA 10029f10     Main.obj
 0003:00000f14       ?_LGadSetupSubRoot@@3P6AXPAUTextboxState@@PAU_LGadRoot@@HHHH@ZA 10029f14     Main.obj
 0003:00000f18       ?_LGadCreateTextboxDesc@@3P6AXPAX0PAULGadTextboxCreateParams@@@ZA 10029f18     Main.obj
 0003:00000f1c       ?_LGadDestroyRoot@@3P6AXPAU_LGadRoot@@@ZA 10029f1c     Main.obj
 0003:00000f20       ?_LGadDestroyTextBox@@3P6AXPAX@ZA 10029f20     Main.obj
 0003:00000f24       ?_compose_cursor@@3P6AXH@ZA 10029f24     Main.obj
 0003:00000f28       ?_CameraIsRemote@@3P6AHK@ZA 10029f28     Main.obj
 0003:00000f2c       ?_CameraGetMode@@3P6AHK@ZA 10029f2c     Main.obj
 0003:00000f30       ?_CameraRemote@@3P6AXPAUPlayerCamera@@H@ZA 10029f30     Main.obj
 0003:00000f34       ?_CameraView@@3P6AXPAUPlayerCamera@@H@ZA 10029f34     Main.obj
 0003:00000f38       ?_CameraAttach@@3P6AXPAUPlayerCamera@@H@ZA 10029f38     Main.obj
 0003:00000f3c       ?AttachPlayerCamera@@3P6AXXZA 10029f3c     Main.obj
 0003:00000f40       ?CamApplyAlpha@@3P6AXMH@ZA 10029f40     Main.obj
 0003:00000f44       ?_config_get_value@@3P6A_NPBDHPAXPAH@ZA 10029f44     Main.obj
 0003:00000f48       ?_config_get_raw@@3P6AHPAD0I@ZA 10029f48     Main.obj
 0003:00000f4c       ?_config_get_single_value@@3P6AHPADHPAH@ZA 10029f4c     Main.obj
 0003:00000f50       ?_config_set_int@@3P6AXPBDH@ZA 10029f50     Main.obj
 0003:00000f54       ?_config_load@@3P6AXPBD@ZA 10029f54     Main.obj
 0003:00000f58       ?_gd_bitmap@@3P6AXPAXHH@ZA 10029f58     Main.obj
 0003:00000f5c       ?_gd_clear@@3P6AXH@ZA      10029f5c     Main.obj
 0003:00000f60       ?_gd_rect@@3P6AXHHHH@ZA    10029f60     Main.obj
 0003:00000f64       ?_gd_box@@3P6AXHHHH@ZA     10029f64     Main.obj
 0003:00000f68       ?_gd_vline@@3P6AXHHH@ZA    10029f68     Main.obj
 0003:00000f6c       ?_CellBinComputeFunc@@3P6AHHKK@ZA 10029f6c     Main.obj
 0003:00000f70       ?_headmoveCheck@@3P6AXXZA  10029f70     Main.obj
 0003:00000f74       ?_headmoveSetRelPosX@@3P6AXH@ZA 10029f74     Main.obj
 0003:00000f78       ?_headmoveSetRelPosY@@3P6AXH@ZA 10029f78     Main.obj
 0003:00000f7c       ?_headmoveTouch@@3P6AXXZA  10029f7c     Main.obj
 0003:00000f80       ?_RandRange@@3P6AHHH@ZA    10029f80     Main.obj
 0003:00000f84       ?_GhostNotify@@3P6AXHH@ZA  10029f84     Main.obj
 0003:00000f88       ?_GhostChangeRemoteConfig@@3P6AXHHH@ZA 10029f88     Main.obj
 0003:00000f8c       ?_GhostRemRemote@@3P6AXH@ZA 10029f8c     Main.obj
 0003:00000f90       ?_GhostAddRemote@@3P6AXHMH@ZA 10029f90     Main.obj
 0003:00000f94       ?_GhostAddLocal@@3P6AXHMH@ZA 10029f94     Main.obj
 0003:00000f98       ?_GhostGetRemote@@3P6APAUsGhostRemote@@H@ZA 10029f98     Main.obj
 0003:00000f9c       ?_GhostGetLocal@@3P6APAUsGhostLocal@@H@ZA 10029f9c     Main.obj
 0003:00000fa0       ?_GhostSendMoCap@@3P6AXHFFH@ZA 10029fa0     Main.obj
 0003:00000fa4       ?_GhostSendHeartbeat@@3P6AXPAUsGhostLocal@@PAUsGhostPos@@@ZA 10029fa4     Main.obj
 0003:00000fa8       ?_GetGhostType@@3P6AHH@ZA  10029fa8     Main.obj
 0003:00000fac       ?_GhostRecvPacket@@3P6AXHHHPAUsGhostHeartbeat@@PAUsGhostMoCap@@@ZA 10029fac     Main.obj
 0003:00000fb0       ?_IsLocalGhost@@3P6AHH@ZA  10029fb0     Main.obj
 0003:00000fb4       ?_IsRemoteGhost@@3P6AHH@ZA 10029fb4     Main.obj
 0003:00000fb8       ?_ChooseCapture@@3P6APADPAUsGhostRemote@@H@ZA 10029fb8     Main.obj
 0003:00000fbc       ?_IsNewPacketNeeded@@3P6AHPAUsGhostLocal@@PAUsGhostPos@@@ZA 10029fbc     Main.obj
 0003:00000fc0       ?_GhostJumpOff@@3P6AXH@ZA  10029fc0     Main.obj
 0003:00000fc4       ?LoadRemoteGhosts@@3P6AJPAVTagFileRead@@K@ZA 10029fc4     Main.obj
 0003:00000fc8       ?__GhostBuildMotionCoord@@3P6AXPAUsGhostRemote@@@ZA 10029fc8     Main.obj
 0003:00000fcc       ?__GhostConfigureRemoteModels@@3P6AXPAUsGhostRemote@@@ZA 10029fcc     Main.obj
 0003:00000fd0       ?_ReAimGhostPhysics@@3P6AXPAUsGhostRemote@@M@ZA 10029fd0     Main.obj
 0003:00000fd4       ?_AimGhostHead@@3P6AXPAUsGhostRemote@@@ZA 10029fd4     Main.obj
 0003:00000fd8       ?_UpdateGhostPrediction@@3P6AXPAUsGhostRemote@@M@ZA 10029fd8     Main.obj
 0003:00000fdc       ?_GhostAllowedToBuildModels@@3P6AHPAUsGhostRemote@@@ZA 10029fdc     Main.obj
 0003:00000fe0       ?_GhostPerFrameModeUpdate@@3P6AXPAUsGhostRemote@@@ZA 10029fe0     Main.obj
 0003:00000fe4       ?_MocapEval@@3P6AXPAUsGhostRemote@@M@ZA 10029fe4     Main.obj
 0003:00000fe8       ?_MocapRunMe@@3P6AXPAUsGhostRemote@@PAD@ZA 10029fe8     Main.obj
 0003:00000fec       ?__GhostGravRemote@@3P6AKHAAUmxs_vector@@K@ZA 10029fec     Main.obj
 0003:00000ff0       ?__GhostApproxPhys@@3P6AXHAAUmxs_vector@@PAUsGhostPos@@MK@ZA 10029ff0     Main.obj
 0003:00000ff4       ?__is_zero_vec@@3P6AHAAUmxs_vector@@@ZA 10029ff4     Main.obj
 0003:00000ff8       ?__GhostBleedVelocity@@3P6AXHPAUsGhostPos@@KKM@ZA 10029ff8     Main.obj
 0003:00000ffc       ?_AnalyzeVelocity@@3P6AXPAUsGhostRemote@@PAW4eGhostMotionSpeed@@PAH@ZA 10029ffc     Main.obj
 0003:00001000       ?_GhostAllowedToSleep@@3P6AHPAUsGhostRemote@@@ZA 1002a000     Main.obj
 0003:00001004       ?__GhostPhysSleep@@3P6AXPAUsGhostRemote@@@ZA 1002a004     Main.obj
 0003:00001008       ?__GhostSetupInitialPhysRemote@@3P6AXPAUsGhostRemote@@@ZA 1002a008     Main.obj
 0003:0000100c       ?_BuildTagBasedPlan@@3P6APAUIMotionPlan@@PAUsGhostRemote@@PAD@ZA 1002a00c     Main.obj
 0003:00001010       ?_BuildSchemaOffsetPlan@@3P6APAUIMotionPlan@@PAUsGhostRemote@@HH@ZA 1002a010     Main.obj
 0003:00001014       ?_FrobExecute@@3P6AXPAUsFrobActivate@@@ZA 1002a014     Main.obj
 0003:00001018       ?_FrobInstantExecute@@3P6AXPAUsFrobActivate@@@ZA 1002a018     Main.obj
 0003:0000101c       ?_FrobHandler@@3P6A?AW4eFrobHandler@@H@ZA 1002a01c     Main.obj
 0003:00001020       ?_net_damage_filter@@3P6GJHHPAUsDamage@@PAX@ZA 1002a020     Main.obj
 0003:00001024       ?_GetRealCulprit@@3P6AHH@ZA 1002a024     Main.obj
 0003:00001028       ?HandleFrobRequest@@3P6AXKKKKKKK@ZA 1002a028     Main.obj
 0003:0000102c       ?HandleRegSphere@@3P6AXHHKMPAUmxs_vector@@K@ZA 1002a02c     Main.obj
 0003:00001030       ?HandleDamage@@3P6AXHHH@ZA 1002a030     Main.obj
 0003:00001034       ?HandleCreateQuestData@@3P6AXPADHHK@ZA 1002a034     Main.obj
 0003:00001038       ?HandleSetQuestData@@3P6AXPADHK@ZA 1002a038     Main.obj
 0003:0000103c       ?HandleHaltSound@@3P6AXHH@ZA 1002a03c     Main.obj
 0003:00001040       ?HandleFrobPickup@@3P6AXKK@ZA 1002a040     Main.obj
 0003:00001044       ?HandlePlayerInfo@@3P6AXHPAD0HPAUINetManager@@@ZA 1002a044     Main.obj
 0003:00001048       ?HandleGhostFullHB@@3P6AXHHHPAUsGhostHeartbeat@@H@ZA 1002a048     Main.obj
 0003:0000104c       ?HandleSimpleSoundVec@@3P6AXHPAUmxs_vector@@HHPAUsfx_parm@@H@ZA 1002a04c     Main.obj
 0003:00001050       ?HandleSoundVec@@3P6AXHPAUmxs_vector@@HHPAUsfx_parm@@H@ZA 1002a050     Main.obj
 0003:00001054       ?HandleUseWeapon@@3P6AXH@ZA 1002a054     Main.obj
 0003:00001058       ?HandleDropItem@@3P6AXXZA  1002a058     Main.obj
 0003:0000105c       ?_r3_start_object_angles@@3P6AXPAUmxs_vector@@PAFH@ZA 1002a05c     Main.obj
 0003:00001060       ?_kb_next@@3P6A?AU_kbs_event@@XZA 1002a060     Main.obj
 0003:00001064       ?_kb_cook_real@@3P6AFAAU_kbs_event@@AAFAAEH@ZA 1002a064     Main.obj
 0003:00001068       ?CollideEvent@@3P6AHHHHMPAVcPhysClsn@@@ZA 1002a068     Main.obj
 0003:0000106c       ?CollideEventRaw@@3P6AHHHHMPAVcPhysClsn@@@ZA 1002a06c     Main.obj
 0003:00001070       ?_count_all_loot@@3P6AHH@ZA 1002a070     Main.obj
 0003:00001074       ?SlayReactionHandler@@3P6GKPAUsReactionEvent@@PBUsReactionParam@@PAX@ZA 1002a074     Main.obj
 0003:00001078       ?KnockoutReactionHandler@@3P6GKPAUsReactionEvent@@PBUsReactionParam@@PAX@ZA 1002a078     Main.obj
 0003:0000107c       ?AddMetaPropReactionHandler@@3P6GKPAUsReactionEvent@@PBUsReactionParam@@PAX@ZA 1002a07c     Main.obj
 0003:00001080       ?FrobObjectReactionHandler@@3P6GKPAUsReactionEvent@@PBUsReactionParam@@PAX@ZA 1002a080     Main.obj
 0003:00001084       ?OldPlayerCreateHook@@3P6AXHH@ZA 1002a084     Main.obj
 0003:00001088       ?PlayerFactoryHook@@3P6AHXZA 1002a088     Main.obj
 0003:0000108c       ?FrobItem@@3P6AXH@ZA       1002a08c     Main.obj
 0003:00001090       ?DarkReleaseBlood@@3P6AXPAUsDamageMsg@@@ZA 1002a090     Main.obj
 0003:00001094       ?darkSendFrobPickup@@3P6AXHH@ZA 1002a094     Main.obj
 0003:00001098       ?SetTotalLootQuestData@@3P6AXH@ZA 1002a098     Main.obj
 0003:0000109c       ?DarkCombatDamageListener@@3P6GKPBUsDamageMsg@@PAX@ZA 1002a09c     Main.obj
 0003:000010a0       ?darkInvTakeObjFromWorld@@3P6AHHH@ZA 1002a0a0     Main.obj
 0003:000010a4       ?SendProjectilePacket@@3P6AXHHKMPAUmxs_vector@@PAUmxs_angvec@@0@ZA 1002a0a4     Main.obj
 0003:000010a8       ?HandleFireProjectile@@3P6AXHHKMPAUmxs_vector@@PAUmxs_angvec@@0@ZA 1002a0a8     Main.obj
 0003:000010ac       ?PlaySoundObj@@3P6AHPBDHH@ZA 1002a0ac     Main.obj
 0003:000010b0       ?CreateProjectile@@3P6AHHHKMPAUmxs_vector@@PAUmxs_angvec@@0@ZA 1002a0b0     Main.obj
 0003:000010b4       ?CollisionResolver@@3P6AXPBUtSpringInfo@@K@ZA 1002a0b4     Main.obj
 0003:000010b8       ?PlaySchemaPlayer@@3P6AHPBD@ZA 1002a0b8     Main.obj
 0003:000010bc       ?RemoveRelationByID@@3P6AXHF@ZA 1002a0bc     Main.obj
 0003:000010c0       ?FindGroundTextureLoc@@3P6AHPAUmxs_vector@@00@ZA 1002a0c0     Main.obj
 0003:000010c4       ?sub_560650@@3P6AHHH@ZA    1002a0c4     Main.obj
 0003:000010c8       ?sub_56E0C0@@3P6AHPAK@ZA   1002a0c8     Main.obj
 0003:000010cc       ?unnamed_4AFF10@@3P6AHPAXHH@ZA 1002a0cc     Main.obj
 0003:000010d0       ?GameModeEnterUnpause@@3P6AXXZA 1002a0d0     Main.obj
 0003:000010d4       ?GetGoalState@@3P6AHPAUIQuestData@@H@ZA 1002a0d4     Main.obj
 0003:000010d8       ?GoalFiction@@3P6A?AVcAnsiStr@@H@ZA 1002a0d8     Main.obj
 0003:000010dc       ?GoalDescription@@3P6A?AVcAnsiStr@@H@ZA 1002a0dc     Main.obj
 0003:000010e0       ?GoalStatus@@3P6APAUIDataSource@@H@ZA 1002a0e0     Main.obj
 0003:000010e4       ?cStoredProperty_Set@@3P6GHPAUIProperty@@HPAX@ZA 1002a0e4     Main.obj
 0003:000010e8       ?cStoredProperty_GetInt@@3P6GHPAUIProperty@@HPAH@ZA 1002a0e8     Main.obj
 0003:000010ec       ?cStoredProperty_GetVoid@@3P6GHPAUIProperty@@HPAPAX@ZA 1002a0ec     Main.obj
 0003:000010f0       ?cStoredProperty_SendPropertyMsg@@3P6GHPAUsNetMsg_Generic@@HKK@ZA 1002a0f0     Main.obj
 0003:000010f4       ?cStoredProperty_ReceivePropertyMsg@@3P6GXPBUsNetMsg_Generic@@KKH@ZA 1002a0f4     Main.obj
 0003:000010f8       ?cStoredProperty_OnListenMsg@@3P6IXKHKHK@ZA 1002a0f8     Main.obj
 0003:000010fc       ?FromString@cTagSetFns@@3P6IHPAVcTagSet@@HPBD@ZA 1002a0fc     Main.obj
 0003:00001100       ?HandleRemap@cObjectNetworkingFns@@3P6IXPAUIObjectNetworking@@HEIPAUsSingleRemap@@@ZA 1002a100     Main.obj
 0003:00001104       ?HandleEndCreate@cObjectNetworkingFns@@3P6IXPAUIObjectNetworking@@HH@ZA 1002a104     Main.obj
 0003:00001108       ?HandleBeginCreate@cObjectNetworkingFns@@3P6IHPAUIObjectNetworking@@HHHH@ZA 1002a108     Main.obj
 0003:0000110c       ?ClearProxyEntry@cObjectNetworkingFns@@3P6IXPAUIObjectNetworking@@HH@ZA 1002a10c     Main.obj
 0003:00001110       ?ScanNext@cHashSetBaseFns@@3P6IPAUtHashSetNode__@@PAVcHashSet@@HPAUtHashSetHandle@@@ZA 1002a110     Main.obj
 0003:00001114       ?FindIndex@cHashSetBaseFns@@3P6I?AUtHashSetHandle@@PAVcHashSet@@HPAUtHashSetKey__@@@ZA 1002a114     Main.obj
 0003:00001118       ?_ctor@cDarkPanelFns@@3P6IXPAVcDarkPanel@@HPBUsDarkPanelDesc@@PBD@ZA 1002a118     Main.obj
 0003:0000111c       ?_dtor@cDarkPanelFns@@3P6IXPAVcDarkPanel@@H@ZA 1002a11c     Main.obj
 0003:00001120       ?InitUI@cDarkPanelFns@@3P6IXPAVcDarkPanel@@H@ZA 1002a120     Main.obj
 0003:00001124       ?TermUI@cDarkPanelFns@@3P6IXPAVcDarkPanel@@H@ZA 1002a124     Main.obj
 0003:00001128       ?Select@cInventory@@3P6GJPAUIInventory@@H@ZA 1002a128     Main.obj
 0003:0000112c       ?ClearSelection@cInventory@@3P6GJPAUIInventory@@W4eWhichInvObj@@@ZA 1002a12c     Main.obj
 0003:00001130       ?IsObjSavePartition@cObjectSystem@@3P6GHPAUIObjectSystem@@HK@ZA 1002a130     Main.obj
 0003:00001134       ?Unlock@cObjectSystem@@3P6GJPAUIObjectSystem@@@ZA 1002a134     Main.obj
 0003:00001138       ?ClearTables@cObjectNetworking@@3P6GXPAUIObjectNetworking@@@ZA 1002a138     Main.obj
 0003:0000113c       ?ObjRegisterProxy@cObjectNetworking@@3P6GXPAUIObjectNetworking@@HFH@ZA 1002a13c     Main.obj
 0003:00001140       ?ObjGetProxy@cObjectNetworking@@3P6GHPAUIObjectNetworking@@HF@ZA 1002a140     Main.obj
 0003:00001144       ?ObjIsProxy@cObjectNetworking@@3P6GHPAUIObjectNetworking@@H@ZA 1002a144     Main.obj
 0003:00001148       ?ObjDeleteProxy@cObjectNetworking@@3P6GXPAUIObjectNetworking@@H@ZA 1002a148     Main.obj
 0003:0000114c       ?NotifyObjRemapped@cObjectNetworking@@3P6GXPAUIObjectNetworking@@HH@ZA 1002a14c     Main.obj
 0003:00001150       ?StartBeginCreate@cObjectNetworking@@3P6GXPAUIObjectNetworking@@HH@ZA 1002a150     Main.obj
 0003:00001154       ?FinishBeginCreate@cObjectNetworking@@3P6GXPAUIObjectNetworking@@H@ZA 1002a154     Main.obj
 0003:00001158       ?FinishEndCreate@cObjectNetworking@@3P6GXPAUIObjectNetworking@@H@ZA 1002a158     Main.obj
 0003:0000115c       ?ObjGiveTo@cObjectNetworking@@3P6GXPAUIObjectNetworking@@HHH@ZA 1002a15c     Main.obj
 0003:00001160       ?ObjTakeOver@cObjectNetworking@@3P6GXPAUIObjectNetworking@@H@ZA 1002a160     Main.obj
 0003:00001164       ?ObjGiveWithoutObjID@cObjectNetworking@@3P6GXPAUIObjectNetworking@@HH@ZA 1002a164     Main.obj
 0003:00001168       ?ObjHostInfo@cObjectNetworking@@3P6GXPAUIObjectNetworking@@HPAHPAF@ZA 1002a168     Main.obj
 0003:0000116c       ?StartDestroy@cObjectNetworking@@3P6GXPAUIObjectNetworking@@H@ZA 1002a16c     Main.obj
 0003:00001170       ?StartEndCreate@cObjectNetworking@@3P6GXPAUIObjectNetworking@@H@ZA 1002a170     Main.obj
 0003:00001174       ?Add@cContainSys@@3P6GJPAUIContainSys@@HHHI@ZA 1002a174     Main.obj
 0003:00001178       ?CreatePlan@cGroundLocoManeuverFactory@@3P6GPAVcMotionPlan@@PBVcMotionSchema@@AAUsMcMotorState@@AAUsMcMoveState@@AAUsMcMoveParams@@PAVIMotor@@PAVcMotionCoordinator@@@ZA 1002a178     Main.obj
 0003:0000117c       ?EndMission@cDarkGameSrv@@3P6GJK@ZA 1002a17c     Main.obj
 0003:00001180       ?FadeToBlack@cDarkGameSrv@@3P6GJKM@ZA 1002a180     Main.obj
 0003:00001184       ?ReadBook@cDarkUISrv@@3P6GJKPBD0@ZA 1002a184     Main.obj
 0003:00001188       ?Init@cNetManager@@3P6GJPAUINetManager@@@ZA 1002a188     Main.obj
 0003:0000118c       ?GetPlayerAddress@cNetManager@@3P6GPBDPAUINetManager@@H@ZA 1002a18c     Main.obj
 0003:00001190       ?EnumPlayersCallback@cNetManager@@3P6GHKKPBUDPNAME@@KPAX@ZA 1002a190     Main.obj
 0003:00001194       ?InitExistingPlayer@cNetManager@@3P6GHKKPBUDPNAME@@KPAX@ZA 1002a194     Main.obj
 0003:00001198       ?_DestroyNetPlayerCallback@cNetManager@@3P6GHKKPBUDPNAME@@KPAX@ZA 1002a198     Main.obj
 0003:0000119c       ?Leave@cNetManager@@3P6GXPAUINetManager@@@ZA 1002a19c     Main.obj
 0003:000011a0       ?gm_PlayerDPID@cNetManager@@3PAKA 1002a1a0     Main.obj
 0003:000011a4       ?gm_bSynchronizing@cNetManager@@3PAHA 1002a1a4     Main.obj
 0003:000011a8       ?gm_Net@cNetManager@@3PAKA 1002a1a8     Main.obj
 0003:000011ac       ?gm_TheNetManager@cNetManager@@3PAKA 1002a1ac     Main.obj
 0003:000011b0       ?gm_DefaultHostPlayer@cNetManager@@3PAKA 1002a1b0     Main.obj
 0003:000011b4       ?Host@cNet@@3P6GHPAUINet@@PAD1@ZA 1002a1b4     Main.obj
 0003:000011b8       ?SimpleCreatePlayer@cNet@@3P6GJPAUINet@@PAD@ZA 1002a1b8     Main.obj
 0003:000011bc       ?Join@cNet@@3P6GHPAUINet@@PBD11@ZA 1002a1bc     Main.obj
 0003:000011c0       ?EnterCallback@cPropSndInstHighFns@@3P6IHPAVcPropSndInstHigh@@HPBVcRoom@@PBVcRoomPortal@@ABUmxs_vector@@M@ZA 1002a1c0     Main.obj
 0003:000011c4       ?SpeechEndCallback@cAIConverse@@3P6AXHHH@ZA 1002a1c4     Main.obj
 0003:000011c8       ?EnactProxyJointScanAction@cAIBehaviorSet@@3P6GXPAUIAIBehaviorSet@@PAUIAI@@PAX@ZA 1002a1c8     Main.obj
 0003:000011cc       ?OnButtonList@cDebrief@@3P6IXPAVcDarkPanel@@HGH@ZA 1002a1cc     Main.obj
 0003:000011d0       ?StartPicking@cPickLockSrv@@3P6GHKHHH@ZA 1002a1d0     Main.obj
 0003:000011d4       ?FinishPicking@cPickLockSrv@@3P6GHKH@ZA 1002a1d4     Main.obj
 0003:000011d8       ?OnMouse@cDefaultInputDevicesSink@@3P6GJKPAU_lgMouseEvent@@@ZA 1002a1d8     Main.obj
 0003:000011dc       ?GetVelocity@cPhysModelFns@@3P6IABUmxs_vector@@PAVcPhysModel@@HH@ZA 1002a1dc     Main.obj
 0003:000011e0       ?IsLocationControlled@cPhysModelFns@@3P6IHPAVcPhysModel@@H@ZA 1002a1e0     Main.obj
 0003:000011e4       ?OnLoopMsg@cLoadingFns@@3P6IXPAVcLoading@@HHPAUtLoopMessageData__@@@ZA 1002a1e4     Main.obj
 0003:000011e8       ?DoFileLoad@cLoadingFns@@3P6IXPAVcLoading@@HPAUITagFile@@@ZA 1002a1e8     Main.obj
 0003:000011ec       ?AllocBuffer@cAnsiStrFns@@3P6IXPAVcAnsiStr@@HH@ZA 1002a1ec     Main.obj
 0003:000011f0       ?Append@cAnsiStrFns@@3P6IXPAVcAnsiStr@@HHPBD@ZA 1002a1f0     Main.obj
 0003:000011f4       ?InstallOnDeathCallback@cPlayerModeFns@@3P6IXPAVcPlayerMode@@HPAX@ZA 1002a1f4     Main.obj
 0003:000011f8       ?SendSpew@cNetMsgFns@@3P6IXPAVcNetMsg@@HPAD@ZA 1002a1f8     Main.obj
 0003:000011fc       ?ReceiveSpew@cNetMsgFns@@3P6IXPAVcNetMsg@@HH@ZA 1002a1fc     Main.obj
 0003:00001200       ?HandleMsg@cNetMsgFns@@3P6IXPAVcNetMsg@@HPBUsNetMsg_Generic@@KH@ZA 1002a200     Main.obj
 0003:00001204       ?MarshalArguments@cNetMsgFns@@3P6IHPAVcNetMsg@@HPADPAHPAI@ZA 1002a204     Main.obj
 0003:00001208       ?cNetManager_LoopFunc@@3P6GHPAXW4eLoopMsgType@@PAUtLoopMessageData__@@@ZA 1002a208     Main.obj
 0003:0000120c       ?cNetManager_SynchReady@@3P6IXPAUINetManager@@H@ZA 1002a20c     Main.obj
 0003:00001210       ?StartAttack@cBowSrv@@3P6GJPAUIBowSrv@@@ZA 1002a210     Main.obj
 0003:00001214       ?FinishAttack@cBowSrv@@3P6GJPAUIBowSrv@@@ZA 1002a214     Main.obj
 0003:00001218       ?TransferAI@cAIManager@@3P6GHPAUIAIManager@@HH@ZA 1002a218     Main.obj
 0003:0000121c       ?CreateAI@cAIManager@@3P6GHPAUIAIManager@@HPBD@ZA 1002a21c     Main.obj
 0003:00001220       ?StartConversation@cAIManager@@3P6GHPAUIAIManager@@H@ZA 1002a220     Main.obj
 0003:00001224       ?MakeFullAI@cAIManager@@3P6GJPAUIAIManager@@HPBUsAINetTransfer@@@ZA 1002a224     Main.obj
 0003:00001228       ?IsValidTarget@cAICombat@@3P6GHH@ZA 1002a228     Main.obj
 0003:0000122c       ?TeleportObject@cGameTools@@3P6GJKHPBUmxs_vector@@PBUmxs_angvec@@H@ZA 1002a22c     Main.obj
 0003:00001230       ?DoFileOp@cSaveFilePanelFns@@3P6IXPAKHH@ZA 1002a230     Main.obj
 0003:00001234       ?GetAwarenessLink@cAISensesFns@@3P6IJPAUIAISenses@@HHPAPAUsAIAwareness@@@ZA 1002a234     Main.obj
 0003:00001238       ?SetAwareness@cAISensesFns@@3P6IXPAUIAISenses@@HHJPBUsAIAwareness@@@ZA 1002a238     Main.obj
 0003:0000123c       ?React@cReactions@@3P6GJPAUIReactions@@KPAUsReactionEvent@@PBUsReactionParam@@@ZA 1002a23c     Main.obj
 0003:00001240       ?AddModule@cScriptMan@@3P6GJKPBD@ZA 1002a240     Main.obj
 0003:00001244       ?SendMessageA@cScriptMan@@3P6GJKPAUsScrMsg@@PAUsMultiParm@@@ZA 1002a244     Main.obj
 0003:00001248       ?TryToUseKey@cKeySys@@3P6GHKHHW4eKeyUse@@@ZA 1002a248     Main.obj
 0003:0000124c       ?SendMessageA@cBaseDamageModelFns@@3P6IKPAVcBaseDamageModel@@HPBUsDamageMsg@@@ZA 1002a24c     Main.obj
 0003:00001250       ?DamageObject@cSimpleDamageModelFns@@3P6GKKHHPAUsDamage@@PAUsChainedEvent@@H@ZA 1002a250     Main.obj
 0003:00001254       ?IDFromName@cNameMapFns@@3P6IHPAVcNameMap@@HPBULabel@@@ZA 1002a254     Main.obj
 0003:00001258       ?NameFromID@cNameMapFns@@3P6IPAULabel@@PAVcNameMap@@HH@ZA 1002a258     Main.obj
 0003:0000125c       ?Constructor@sSimMsgFns@@3P6IPAUsSimMsg@@PAU2@HHH@ZA 1002a25c     Main.obj
 0003:00001260       ?Destructor@sSimMsgFns@@3P6IXPAUsSimMsg@@H@ZA 1002a260     Main.obj
 0003:00001264       ?Constructor@sScrMsgFns@@3P6IPAUsScrMsg@@PAU2@H@ZA 1002a264     Main.obj
 0003:00001268       ?Destructor@sScrMsgFns@@3P6IXPAUsScrMsg@@H@ZA 1002a268     Main.obj
 0003:0000126c       ?g_pPropMan@@3V?$GlobalPointer@UIPropertyManager@@@@A 1002a26c     Main.obj
 0003:00001270       ?g_pReactions@@3V?$GlobalPointer@UIReactions@@@@A 1002a270     Main.obj
 0003:00001274       ?g_pNetMan@@3V?$GlobalPointer@UINetManager@@@@A 1002a274     Main.obj
 0003:00001278       ?g_pNet@@3V?$GlobalPointer@UINet@@@@A 1002a278     Main.obj
 0003:0000127c       ?g_pObjSys@@3V?$GlobalPointer@UIObjectSystem@@@@A 1002a27c     Main.obj
 0003:00001280       ?g_pObjNet@@3V?$GlobalPointer@UIObjectNetworking@@@@A 1002a280     Main.obj
 0003:00001284       ?g_pInputBinder@@3V?$GlobalPointer@UIInputBinder@@@@A 1002a284     Main.obj
 0003:00001288       ?g_pAIMan@@3V?$GlobalPointer@UIAIManager@@@@A 1002a288     Main.obj
 0003:0000128c       ?g_pContainSys@@3V?$GlobalPointer@UIContainSys@@@@A 1002a28c     Main.obj
 0003:00001290       ?g_pTraitMan@@3V?$GlobalPointer@UITraitManager@@@@A 1002a290     Main.obj
 0003:00001294       ?g_pInventory@@3V?$GlobalPointer@UIInventory@@@@A 1002a294     Main.obj
 0003:00001298       ?g_pLinkMan@@3V?$GlobalPointer@UILinkManager@@@@A 1002a298     Main.obj
 0003:0000129c       ?g_pPlayerMode@@3V?$GlobalPointer@VcPlayerMode@@@@A 1002a29c     Main.obj
 0003:000012a0       ?g_pWinAppOps@@3V?$GlobalPointer@VcWinAppOperations@cWindowsApplication@@@@A 1002a2a0     Main.obj
 0003:000012a4       ?g_PhysModels@@3V?$GlobalPointer@VcPhysModels@@@@A 1002a2a4     Main.obj
 0003:000012a8       ?g_pMalloc@@3V?$GlobalPointer@UIMalloc@@@@A 1002a2a8     Main.obj
 0003:000012ac       ?g_pScriptMan@@3V?$GlobalPointer@UIScriptMan@@@@A 1002a2ac     Main.obj
 0003:000012b0       ?g_pMotionSet@@3V?$GlobalPointer@UIMotionSet@@@@A 1002a2b0     Main.obj
 0003:000012b4       ?g_pLootProp@@3V?$GlobalPointer@UIGenericProperty@@@@A 1002a2b4     Main.obj
 0003:000012b8       ?g_pBloodCauseProp@@3V?$GlobalPointer@UIBoolProperty@@@@A 1002a2b8     Main.obj
 0003:000012bc       ?g_pBloodTypeProp@@3V?$GlobalPointer@UIStringProperty@@@@A 1002a2bc     Main.obj
 0003:000012c0       ?g_pPickCfgProperty@@3V?$GlobalPointer@UIGenericProperty@@@@A 1002a2c0     Main.obj
 0003:000012c4       ?g_pPickStateProperty@@3V?$GlobalPointer@UIGenericProperty@@@@A 1002a2c4     Main.obj
 0003:000012c8       ?g_pAIVisibilityProperty@@3V?$GlobalPointer@UIGenericProperty@@@@A 1002a2c8     Main.obj
 0003:000012cc       ?pFrobInfoProp@@3V?$GlobalPointer@UIGenericProperty@@@@A 1002a2cc     Main.obj
 0003:000012d0       ?g_pESndClassProp@@3V?$GlobalPointer@UIGenericProperty@@@@A 1002a2d0     Main.obj
 0003:000012d4       ?tweq_models_prop@@3V?$GlobalPointer@UIGenericProperty@@@@A 1002a2d4     Main.obj
 0003:000012d8       ?g_pAIProperty@@3V?$GlobalPointer@UIGenericProperty@@@@A 1002a2d8     Main.obj
 0003:000012dc       ?g_pAIFrustratedProperty@@3V?$GlobalPointer@UIGenericProperty@@@@A 1002a2dc     Main.obj
 0003:000012e0       ?gFrobHandlerProp@@3V?$GlobalPointer@UIIntProperty@@@@A 1002a2e0     Main.obj
 0003:000012e4       ?gStackCountProp@@3V?$GlobalPointer@UIIntProperty@@@@A 1002a2e4     Main.obj
 0003:000012e8       ?gWeaponExposureProp@@3V?$GlobalPointer@UIIntProperty@@@@A 1002a2e8     Main.obj
 0003:000012ec       ?g_pPrjSoundProp@@3V?$GlobalPointer@UIStringProperty@@@@A 1002a2ec     Main.obj
 0003:000012f0       ?actorTagListProp@@3V?$GlobalPointer@UIStringProperty@@@@A 1002a2f0     Main.obj
 0003:000012f4       ?modelnameprop@@3V?$GlobalPointer@UIStringProperty@@@@A 1002a2f4     Main.obj
 0003:000012f8       ?g_pLocalCopyProp@@3V?$GlobalPointer@UIBoolProperty@@@@A 1002a2f8     Main.obj
 0003:000012fc       ?g_pAINoGhostProperty@@3V?$GlobalPointer@UIBoolProperty@@@@A 1002a2fc     Main.obj
 0003:00001300       ?g_pAINoHandoffProperty@@3V?$GlobalPointer@UIBoolProperty@@@@A 1002a300     Main.obj
 0003:00001304       ?pLockedProp@@3V?$GlobalPointer@UIBoolProperty@@@@A 1002a304     Main.obj
 0003:00001308       ?pBeingTakenProp@@3V?$GlobalPointer@UIBoolProperty@@@@A 1002a308     Main.obj
 0003:0000130c       ?g_pAISeesProjectileProperty@@3V?$GlobalPointer@UIBoolProperty@@@@A 1002a30c     Main.obj
 0003:00001310       ?g_pAIIsProxyProperty@@3V?$GlobalPointer@UIBoolProperty@@@@A 1002a310     Main.obj
 0003:00001314       ?gAlphaRenderProp@@3V?$GlobalPointer@UIFloatProperty@@@@A 1002a314     Main.obj
 0003:00001318       ?gAvatarHeightOffsetProp@@3V?$GlobalPointer@UIFloatProperty@@@@A 1002a318     Main.obj
 0003:0000131c       ?g_pPickDistProp@@3V?$GlobalPointer@UIFloatProperty@@@@A 1002a31c     Main.obj
 0003:00001320       ?g_pPickBiasProp@@3V?$GlobalPointer@UIFloatProperty@@@@A 1002a320     Main.obj
 0003:00001324       ?pCreatureProp@@3V?$GlobalPointer@UIIntProperty@@@@A 1002a324     Main.obj
 0003:00001328       ?gPropHeartbeat@@3V?$GlobalPointer@UIIntProperty@@@@A 1002a328     Main.obj
 0003:0000132c       ?g_pPropSpeechVoiceIndex@@3V?$GlobalPointer@UIIntProperty@@@@A 1002a32c     Main.obj
 0003:00001330       ?g_pPropSchemaLastSample@@3V?$GlobalPointer@UIIntProperty@@@@A 1002a330     Main.obj
 0003:00001334       ?g_pPhysAttrProp@@3V?$GlobalPointer@UIGenericProperty@@@@A 1002a334     Main.obj
 0003:00001338       ?g_pPhysTypeProp@@3V?$GlobalPointer@UIGenericProperty@@@@A 1002a338     Main.obj
 0003:0000133c       ?g_pScriptProp@@3V?$GlobalPointer@UIGenericProperty@@@@A 1002a33c     Main.obj
 0003:00001340       ?g_pSpeechProp@@3V?$GlobalPointer@UIGenericProperty@@@@A 1002a340     Main.obj
 0003:00001344       ?g_pPropSpeechVoice@@3V?$GlobalPointer@UILabelProperty@@@@A 1002a344     Main.obj
 0003:00001348       ?gCombineTypeProp@@3V?$GlobalPointer@UILabelProperty@@@@A 1002a348     Main.obj
 0003:0000134c       ?g_pPhysInitVelProp@@3V?$GlobalPointer@UIVectorProperty@@@@A 1002a34c     Main.obj
 0003:00001350       ?g_pNoDropProperty@@3V?$GlobalPointer@UIBoolProperty@@@@A 1002a350     Main.obj
 0003:00001354       ?g_pAIDefensiveStatProp@@3V?$GlobalPointer@UIAIRatingProperty@@@@A 1002a354     Main.obj
 0003:00001358       ?g_pAIDodginessStatProp@@3V?$GlobalPointer@UIAIRatingProperty@@@@A 1002a358     Main.obj
 0003:0000135c       ?ppNowPickingRelation@@3V?$GlobalPointer@UIRelation@@@@A 1002a35c     Main.obj
 0003:00001360       ?ppVoiceLink@@3V?$GlobalPointer@UIRelation@@@@A 1002a360     Main.obj
 0003:00001364       ?g_pPlayerFactoryRelation@@3V?$GlobalPointer@UIRelation@@@@A 1002a364     Main.obj
 0003:00001368       ?ppFrobProxyRel@@3V?$GlobalPointer@UIRelation@@@@A 1002a368     Main.obj
 0003:0000136c       ?g_pAIProjectileRelation@@3V?$GlobalPointer@UIRelation@@@@A 1002a36c     Main.obj
 0003:00001370       ?_gContextPath@@3V?$GlobalPointer@UISearchPath@@@@A 1002a370     Main.obj
 0003:00001374       ?_grd_canvas@@3V?$GlobalPointer@Ugrd_canvas@@@@A 1002a374     Main.obj
 0003:00001378       ?gm_NetPlayerProp@cNetManager@@3V?$GlobalPointer@UINetPlayerProperty@@@@A 1002a378     Main.obj
 0003:0000137c       ?g_MultiUIButtons@@3PAPBDA 1002a37c     MultiUI.obj
 0003:00001388       ?NetworkedReactions@@3PAUNetworkableReactionInfo@@A 1002a388     NetReactions.obj
 0003:000013d0       ?g_MultiplayerPatches@@3PAUPtrPatchList@@A 1002a3d0     Patcher.obj
 0003:000015f0       ?g_StartupPatches@@3PAUPtrPatchList@@A 1002a5f0     Patcher.obj
 0003:00001c20       ?g_StartupRawPatches@@3PAURawPatchList@@A 1002ac20     Patcher.obj
 0003:00001f60       ?g_MultiplayerRawPatches@@3PAURawPatchList@@A 1002af60     Patcher.obj
 0003:00001fc8       ?g_GenOsmPatches@@3PAUPtrPatchList@@A 1002afc8     ScriptHooks.obj
 0003:000020d8       ?g_ConvictOsmPatches@@3PAUPtrPatchList@@A 1002b0d8     ScriptHooks.obj
 0003:000021a4       ?m_Rect@MapOverlay@@1URect@@A 1002b1a4     DarkOverlay.obj
 0003:000021ac       ?m_Rect@BookOverlay@@1URect@@A 1002b1ac     DarkOverlay.obj
 0003:000021b4       ?m_Rect@SimOverlay@@1URect@@A 1002b1b4     DarkOverlay.obj
 0003:000021bc       ?m_Rect@ObjectivesOverlay@@1URect@@A 1002b1bc     DarkOverlay.obj
 0003:000021c4       ?m_Rect@PlayersOverlay@@1URect@@A 1002b1c4     DarkOverlay.obj
 0003:000021cc       ?m_nullString@NString@@1PBDB 1002b1cc     Engine:NString.obj
 0003:000021d0       ?kMissingString@@3PBDB     1002b1d0     Engine:IniFile.obj
 0003:000021d4       ?g_DeltaFrame@@3VDelta@Timing@@A 1002b1d4     Engine:Timing.obj
 0003:000021f0       ?g_CRCTable@@3PAKA         1002b1f0     Engine:Crc32.obj
 0003:000026b0       ??_R0?AVtype_info@@@8      1002b6b0     MSVCRT:ti_inst.obj
 0003:000026d0       ___security_cookie         1002b6d0     MSVCRT:seccook.obj
 0003:000026d8       ?PlayerManeuverFactory@@3VcPlayerManeuverFactory@@A 1002b6d8     Motions.obj
 0003:000026dc       ?GroundActionManeuverFactory@@3VcGroundActionManeuverFactory@@A 1002b6dc     Motions.obj
 0003:000026e8       ?g_pDarkNet@@3PAUIDarkNet@@A 1002b6e8     DarkPeer.obj
 0003:000026ec       ?g_Net@@3HA                1002b6ec     DarkPeer.obj
 0003:000026f0       ?g_bNeedSnapshot@@3_NA     1002b6f0     DarkPeer.obj
 0003:000026f1       ?m_bLoadedNetCommands@CDarkPeer@@1_NA 1002b6f1     DarkPeer.obj
 0003:000026f2       ?m_bLoadedBinds@CDarkPeer@@1_NA 1002b6f2     DarkPeer.obj
 0003:000026f4       ?csReceive@@3VCCriticalSection@@A 1002b6f4     DarkPeer.obj
 0003:00002710       ?NewReceiveQueue@@3V?$SimpleQueue@UNetMessage@@@@A 1002b710     DarkPeer.obj
 0003:00002720       ?g_ConnectAttempt@@3VConnectAttempt@@A 1002b720     DarkPeer.obj
 0003:00002f68       ?Players@@3VPlayerDB@@A    1002bf68     PlayerDB.obj
 0003:00003028       ?UI@@3PAVInterfaceManager@@A 1002c028     DarkWinGui.obj
 0003:00003030       ?g_chatBox@@3U_LGadTextBox@@A 1002c030     Chat.obj
 0003:00004130       ?g_chatBoxSubroot@@3UTextboxState@@A 1002d130     Chat.obj
 0003:00004370       ?g_chatBuffer@@3PADA       1002d370     Chat.obj
 0003:00004474       ?g_giveObj@@3HA            1002d474     ClientPacketHandler.obj
 0003:00004478       ?lastReactionType@@3HA     1002d478     ClientPacketHandler.obj
 0003:0000447c       ?LoadingSaveGame@@3VcLoadingSaveGameFns@@A 1002d47c     ClientSynch.obj
 0003:00004480       ?g_bEchoDebug@@3_NA        1002d480     Config.obj
 0003:00004484       ?Cfg@@3VConfigManager@@A   1002d484     Config.obj
 0003:00004498       ?g_bNetStats@@3_NA         1002d498     Console.obj
 0003:00004499       ?g_bVisStats@@3_NA         1002d499     Console.obj
 0003:0000449a       ?g_bMiscStats@@3_NA        1002d49a     Console.obj
 0003:0000449c       ?g_TextFont@@3PAUgrs_font@@A 1002d49c     DarkUIUtils.obj
 0003:000044a0       ?g_TextFontRes@@3PAUIRes@@A 1002d4a0     DarkUIUtils.obj
 0003:000044a4       ?g_SmallFont@@3PAUgrs_font@@A 1002d4a4     DarkUIUtils.obj
 0003:000044a8       ?g_SmallFontRes@@3PAUIRes@@A 1002d4a8     DarkUIUtils.obj
 0003:000044ac       ?Debug@@3VCDebugManager@@A 1002d4ac     Debug.obj
 0003:000044cc       ?g_pDPWrapper@@3PAVCDPWrapper@@A 1002d4cc     DP4Wrapper.obj
 0003:000044d0       ?Gamesys@@3VCGamesysManager@@A 1002d4d0     Gamesys.obj
 0003:00004548       ?g_bDisableAIPrediction@@3_NA 1002d548     Ghost.obj
 0003:0000455c       ?ChNil@cAnsiStr@@2DA       1002d55c     LG.obj
 0003:00004560       ?g_LoopMsgNames@@3PAPADA   1002d560     Main.obj
 0003:00004564       ?LoopGetMessageName@@3P6GPBDH@ZA 1002d564     Main.obj
 0003:00004568       ?g_hInstDLL@@3PAUHINSTANCE__@@A 1002d568     Main.obj
 0003:0000456c       ?Log@@3VLogger@@A          1002d56c     Main.obj
 0003:00004578       ?g_CoreThread@@3VCCriticalSection@@A 1002d578     Main.obj
 0003:00004598       _g_pMultiUI                1002d598     MultiUI.obj
 0003:0000459c       ?g_pMultiNameProp@@3PAUIStringProperty@@A 1002d59c     NetProperties.obj
 0003:000045a0       ?g_pSaveMgr@@3PAVSaveManager@@A 1002d5a0     SaveManager.obj
 0003:000045b4       ?g_pBrowser@@3PAVCServerBrowser@@A 1002d5b4     ServerBrowser.obj
 0003:000045b8       ?ScriptReceiveMessage@@3P6GXPAUIRootScript@@PAUsScrMsg@@PAVcMultiParm@@W4eScrTraceAction@@@ZA 1002d5b8     ScriptHooks.obj
 0003:000045bc       ?g_pStrHash@@3PAVStringHashTable@@A 1002d5bc     StringHashTable.obj
 0003:000045c0       ?g_pOverlayMgr@@3PAVDarkOverlayManager@@A 1002d5c0     DarkOverlay.obj
 0003:000045c4       ?AppLogCallback@@3P6AXPBD@ZA 1002d5c4     Engine:Logger.obj
 0003:000045d0       ?m_DefaultBuffer@CMarshalBuffer@@1PAEA 1002d5d0     Engine:MarshalBuffer.obj
 0003:000049d0       ?g_dFrequency@Timing@@3NA  1002d9d0     Engine:Timing.obj
 0003:000049d8       ?g_Frequency@Timing@@3_JA  1002d9d8     Engine:Timing.obj
 0003:000049f0       __adjust_fdiv              1002d9f0     <common>
 0003:000049f4       __pRawDllMain              1002d9f4     <common>
 0003:000049f8       ___onexitend               1002d9f8     <common>
 0003:000049fc       ___onexitbegin             1002d9fc     <common>

 entry point at        0001:0001e0db

 Static symbols

 0001:000011ed       $L78499                    100021ed f   Net.obj
 0001:000025e0       $L81574                    100035e0 f   DarkPeer.obj
 0001:0000440f       $L85813                    1000540f f   DarkPeer.obj
 0001:000047d0       $L85873                    100057d0 f   DarkPeer.obj
 0001:0000a915       $L80156                    1000b915 f   ClientPacketHandler.obj
 0001:0000ab04       $L80202                    1000bb04 f   ClientPacketHandler.obj
 0001:0000b093       $L80409                    1000c093 f   ClientPacketHandler.obj
 0001:0000d913       $L80538                    1000e913 f   DP4Wrapper.obj
 0001:0000de8a       $L74281                    1000ee8a f   ErrorHanding.obj
 0001:0000df38       $L74303                    1000ef38 f   ErrorHanding.obj
 0001:0000dfd6       $L74319                    1000efd6 f   ErrorHanding.obj
 0001:0000e08c       $L74337                    1000f08c f   ErrorHanding.obj
 0001:0001453e       $L77624                    1001553e f   ServerBrowser.obj
 0001:000155d7       $L75926                    100165d7 f   ScriptHooks.obj
 0001:0001af2e       $L61244                    1001bf2e f i Engine:EventManager.obj
 0001:0001af3a       $L61246                    1001bf3a f i Engine:EventManager.obj
 0001:0001c680       ?GetExceptionDescription@@YAPBDK@Z 1001d680 f   Engine:ExceptionHandler.obj
 0001:0001c6b0       ?hprintf@@YAXPAXPADZZ      1001d6b0 f   Engine:ExceptionHandler.obj
 0001:0001c700       ?ShowModuleInfo@@YAXPAXPAUHINSTANCE__@@@Z 1001d700 f   Engine:ExceptionHandler.obj
 0001:0001c7e0       ?RecordModuleList@@YAXPAX@Z 1001d7e0 f   Engine:ExceptionHandler.obj
 0001:0001c880       ?RecordSystemInformation@@YAXPAX@Z 1001d880 f   Engine:ExceptionHandler.obj
 0001:0001d259       $L59783                    1001e259 f   GSClient_r:GSClient_DP8.obj
 0001:0001dd39       $L61144                    1001ed39 f   GSClient_r:GSClient_DP8.obj
 0001:0001e270       _report_failure            1001f270 f   MSVCRT:secchk.obj
 0001:0001e410       $L75701                    1001f410 f   Commands.obj
 0001:0001e418       __ehhandler$?OnWinMission@@YAXXZ 1001f418 f   Commands.obj
 0001:0001e430       $L78500                    1001f430 f   Net.obj
 0001:0001e43b       __ehhandler$?Join@HookNet@@YGHPAUINet@@PBD11@Z 1001f43b f   Net.obj
 0001:0001e450       $L81506                    1001f450 f   DarkPeer.obj
 0001:0001e450       $L81517                    1001f450 f   DarkPeer.obj
 0001:0001e45c       __ehhandler$??0ConnectAttempt@@QAE@XZ 1001f45c f   DarkPeer.obj
 0001:0001e45c       __ehhandler$??1ConnectAttempt@@QAE@XZ 1001f45c f   DarkPeer.obj
 0001:0001e470       __ehhandler$?InitGlobalLink@CDarkPeer@@IAE_NXZ 1001f470 f   DarkPeer.obj
 0001:0001e480       $L81990                    1001f480 f   DarkPeer.obj
 0001:0001e488       __ehhandler$?OnEnumerationResponse@CDarkPeer@@IAEXPAU_DPNMSG_ENUM_HOSTS_RESPONSE@@@Z 1001f488 f   DarkPeer.obj
 0001:0001e4a0       $L82424                    1001f4a0 f   DarkPeer.obj
 0001:0001e4a8       __ehhandler$?HandleCreatePlayerMsg@CDarkPeer@@IAEXPAU_DPNMSG_CREATE_PLAYER@@@Z 1001f4a8 f   DarkPeer.obj
 0001:0001e4c0       $L83186                    1001f4c0 f   DarkPeer.obj
 0001:0001e4c0       $L82841                    1001f4c0 f   DarkPeer.obj
 0001:0001e4c9       $L83196                    1001f4c9 f   DarkPeer.obj
 0001:0001e4c9       $L82861                    1001f4c9 f   DarkPeer.obj
 0001:0001e4d2       __ehhandler$?erase@?$_Tree@V?$_Tmap_traits@KPAUDP4Data@@U?$less@K@std@@V?$allocator@U?$pair@$$CBKPAUDP4Data@@@std@@@3@$0A@@std@@@std@@QAE?AViterator@12@V312@@Z 1001f4d2 f   DarkPeer.obj
 0001:0001e4d2       __ehhandler$?_Insert@?$_Tree@V?$_Tmap_traits@KPAUDP4Data@@U?$less@K@std@@V?$allocator@U?$pair@$$CBKPAUDP4Data@@@std@@@3@$0A@@std@@@std@@IAE?AViterator@12@_NPAU_Node@?$_Tree_nod@V?$_Tmap_traits@KPAUDP4Data@@U?$less@K@std@@V?$allocator@U?$pair@$$CBKPAUDP4Data@@@std@@@3@$0A@@std@@@2@ABU?$pair@$$CBKPAUDP4Data@@@2@@Z 1001f4d2 f   DarkPeer.obj
 0001:0001e4e0       $L83119                    1001f4e0 f   DarkPeer.obj
 0001:0001e4e0       $L81445                    1001f4e0 f   DarkPeer.obj
 0001:0001e4e9       __ehhandler$??1logic_error@std@@UAE@XZ 1001f4e9 f   DarkPeer.obj
 0001:0001e4e9       __ehhandler$??0logic_error@std@@QAE@ABV01@@Z 1001f4e9 f   DarkPeer.obj
 0001:0001e500       $L85814                    1001f500 f   DarkPeer.obj
 0001:0001e50b       __ehhandler$?InitClient@CDarkPeer@@IAEXXZ 1001f50b f   DarkPeer.obj
 0001:0001e520       $L85874                    1001f520 f   DarkPeer.obj
 0001:0001e52b       __ehhandler$?InitServer@CDarkPeer@@IAEXXZ 1001f52b f   DarkPeer.obj
 0001:0001e540       $L85243                    1001f540 f   DarkPeer.obj
 0001:0001e540       $L85928                    1001f540 f   DarkPeer.obj
 0001:0001e548       $L85244                    1001f548 f   DarkPeer.obj
 0001:0001e548       $L85929                    1001f548 f   DarkPeer.obj
 0001:0001e553       $L85930                    1001f553 f   DarkPeer.obj
 0001:0001e553       $L85245                    1001f553 f   DarkPeer.obj
 0001:0001e55e       $L85931                    1001f55e f   DarkPeer.obj
 0001:0001e55e       $L85246                    1001f55e f   DarkPeer.obj
 0001:0001e569       __ehhandler$??1CDarkPeer@@UAE@XZ 1001f569 f   DarkPeer.obj
 0001:0001e569       __ehhandler$??0CDarkPeer@@QAE@W4NetState@@@Z 1001f569 f   DarkPeer.obj
 0001:0001e580       $L78544                    1001f580 f   DarkSessionManager.obj
 0001:0001e580       $L78566                    1001f580 f   DarkSessionManager.obj
 0001:0001e588       __ehhandler$?SetApplicationDesc@CDarkSessionManager@@QAEXPBU_DPN_APPLICATION_DESC@@@Z 1001f588 f   DarkSessionManager.obj
 0001:0001e588       __ehhandler$?SetSessionInfo@CDarkSessionManager@@QAEXPBU_DPN_APPLICATION_DESC@@@Z 1001f588 f   DarkSessionManager.obj
 0001:0001e5a0       $L78604                    1001f5a0 f   DarkSessionManager.obj
 0001:0001e5ab       $L78605                    1001f5ab f   DarkSessionManager.obj
 0001:0001e5b6       __ehhandler$??0CDarkSessionManager@@QAE@PAUIDirectPlay8Peer@@@Z 1001f5b6 f   DarkSessionManager.obj
 0001:0001e5c0       $L78625                    1001f5c0 f   DarkSessionManager.obj
 0001:0001e5cb       __ehhandler$??1CDarkSessionManager@@UAE@XZ 1001f5cb f   DarkSessionManager.obj
 0001:0001e5e0       $L74366                    1001f5e0 f   PlayerDB.obj
 0001:0001e5f3       __ehhandler$??0PlayerDB@@QAE@XZ 1001f5f3 f   PlayerDB.obj
 0001:0001e600       $L75383                    1001f600 f   ConnectDialog.obj
 0001:0001e609       __ehhandler$?DisplayPage@CConnectDialog@@QAEXXZ 1001f609 f   ConnectDialog.obj
 0001:0001e620       $L77807                    1001f620 f   ConsoleGUI.obj
 0001:0001e629       $L77827                    1001f629 f   ConsoleGUI.obj
 0001:0001e632       __ehhandler$?_Incsize@?$list@PAVHistoryItem@@V?$allocator@PAVHistoryItem@@@std@@@std@@IAEXI@Z 1001f632 f   ConsoleGUI.obj
 0001:0001e640       $L78327                    1001f640 f   ConsoleGUI.obj
 0001:0001e64b       __ehhandler$??1HistoryManager@@QAE@XZ 1001f64b f   ConsoleGUI.obj
 0001:0001e660       $L78735                    1001f660 f   ConsoleGUI.obj
 0001:0001e66b       $L78736                    1001f66b f   ConsoleGUI.obj
 0001:0001e676       __ehhandler$??0CConsoleBase@@QAE@PAUHINSTANCE__@@HHHP6GHPAUHWND__@@IIJ@Z@Z 1001f676 f   ConsoleGUI.obj
 0001:0001e680       $L79034                    1001f680 f   ConsoleGUI.obj
 0001:0001e68b       __ehhandler$?AddLine@HistoryManager@@QAEXPBD@Z 1001f68b f   ConsoleGUI.obj
 0001:0001e6a0       $L76667                    1001f6a0 f   DarkWinGui.obj
 0001:0001e6ab       $L76668                    1001f6ab f   DarkWinGui.obj
 0001:0001e6b4       __ehhandler$?DialogProc@CThiefConsole@@QAGHPAUHWND__@@IIJ@Z 1001f6b4 f   DarkWinGui.obj
 0001:0001e6c0       $L76779                    1001f6c0 f   DarkWinGui.obj
 0001:0001e6cb       $L76780                    1001f6cb f   DarkWinGui.obj
 0001:0001e6d6       $L76781                    1001f6d6 f   DarkWinGui.obj
 0001:0001e6e1       $L76783                    1001f6e1 f   DarkWinGui.obj
 0001:0001e6ec       __ehhandler$?CreateChildWindow@InterfaceManager@@UAEXH@Z 1001f6ec f   DarkWinGui.obj
 0001:0001e700       $L77106                    1001f700 f   HostDialog.obj
 0001:0001e708       $L77107                    1001f708 f   HostDialog.obj
 0001:0001e710       __ehhandler$?GetMissionFlags@CHostDialog@@QAEKH@Z 1001f710 f   HostDialog.obj
 0001:0001e720       $L76661                    1001f720 f   Client.obj
 0001:0001e728       __ehhandler$?DebugDrawVisibility@CClient@@QAEXXZ 1001f728 f   Client.obj
 0001:0001e740       $L76695                    1001f740 f   Client.obj
 0001:0001e748       __ehhandler$?DebugDrawNetStats@CClient@@QAEXXZ 1001f748 f   Client.obj
 0001:0001e760       $L76726                    1001f760 f   Client.obj
 0001:0001e768       __ehhandler$?DebugDrawMiscStats@CClient@@QAEXXZ 1001f768 f   Client.obj
 0001:0001e780       $L80010                    1001f780 f   ClientPacketHandler.obj
 0001:0001e788       __ehhandler$?HandleMissionStart@PacketHandler@@IAEXXZ 1001f788 f   ClientPacketHandler.obj
 0001:0001e7a0       $L80087                    1001f7a0 f   ClientPacketHandler.obj
 0001:0001e7a0       $L80062                    1001f7a0 f   ClientPacketHandler.obj
 0001:0001e7a8       __ehhandler$?HandleCrcRequest@PacketHandler@@IAEXXZ 1001f7a8 f   ClientPacketHandler.obj
 0001:0001e7a8       __ehhandler$?HandleCrcResponse@PacketHandler@@IAEXXZ 1001f7a8 f   ClientPacketHandler.obj
 0001:0001e7c0       __ehhandler$?HandleSpeech@PacketHandler@@IAEXXZ 1001f7c0 f   ClientPacketHandler.obj
 0001:0001e7d0       __ehhandler$?HandleGenericReaction@PacketHandler@@IAEXXZ 1001f7d0 f   ClientPacketHandler.obj
 0001:0001e7e0       $L80243                    1001f7e0 f   ClientPacketHandler.obj
 0001:0001e7e8       __ehhandler$?HandleTransferAI@PacketHandler@@IAEXXZ 1001f7e8 f   ClientPacketHandler.obj
 0001:0001e800       $L80342                    1001f800 f   ClientPacketHandler.obj
 0001:0001e80b       __ehhandler$?HandleCreatePlayer@PacketHandler@@IAEXXZ 1001f80b f   ClientPacketHandler.obj
 0001:0001e820       __ehhandler$?HandleScriptMsg@PacketHandler@@IAEXXZ 1001f820 f   ClientPacketHandler.obj
 0001:0001e830       $L74792                    1001f830 f   ClientSynch.obj
 0001:0001e838       __ehhandler$?OnLoopMsg@HookLoading@@YIXPAVcLoading@@HHPAUtLoopMessageData__@@@Z 1001f838 f   ClientSynch.obj
 0001:0001e850       $L78316                    1001f850 f   Console.obj
 0001:0001e85c       $L78318                    1001f85c f   Console.obj
 0001:0001e868       $L78320                    1001f868 f   Console.obj
 0001:0001e874       $L78322                    1001f874 f   Console.obj
 0001:0001e880       $L78324                    1001f880 f   Console.obj
 0001:0001e88c       $L78326                    1001f88c f   Console.obj
 0001:0001e898       $L78328                    1001f898 f   Console.obj
 0001:0001e8a4       __ehhandler$?CmdTeleport@@YAXPAD@Z 1001f8a4 f   Console.obj
 0001:0001e8b0       $L78539                    1001f8b0 f   Console.obj
 0001:0001e8b8       __ehhandler$?CmdQuestGet@@YAXPBD@Z 1001f8b8 f   Console.obj
 0001:0001e8d0       $L70821                    1001f8d0 f   DarkStat.obj
 0001:0001e8d8       __ehhandler$?DarkStatIntSet@@YAXPADH@Z 1001f8d8 f   DarkStat.obj
 0001:0001e8f0       $L74309                    1001f8f0 f   DarkUIUtils.obj
 0001:0001e8f8       __ehhandler$?DarkUIUtilsInit@@YAXXZ 1001f8f8 f   DarkUIUtils.obj
 0001:0001e910       $L80539                    1001f910 f   DP4Wrapper.obj
 0001:0001e91b       __ehhandler$?Open@CDPWrapper@@UAGJPAUDPSESSIONDESC2@@K@Z 1001f91b f   DP4Wrapper.obj
 0001:0001e930       __ehhandler$?CollisionResolverHook@@YGXPBUtSpringInfo@@K@Z 1001f930 f   ErrorHanding.obj
 0001:0001e940       __ehhandler$?LoopSampleCallbackHook@@YAXKH@Z 1001f940 f   ErrorHanding.obj
 0001:0001e950       __ehhandler$?PropSndEnterCBHook@@YIHPAVcPropSndInstHigh@@HPBVcRoom@@PBVcRoomPortal@@ABUmxs_vector@@M@Z 1001f950 f   ErrorHanding.obj
 0001:0001e960       __ehhandler$?SpeechEndCallbackHook@@YAXHHH@Z 1001f960 f   ErrorHanding.obj
 0001:0001e970       $L78192                    1001f970 f   Gamesys.obj
 0001:0001e970       $L77847                    1001f970 f   Gamesys.obj
 0001:0001e979       $L77867                    1001f979 f   Gamesys.obj
 0001:0001e979       $L78202                    1001f979 f   Gamesys.obj
 0001:0001e982       __ehhandler$?erase@?$_Tree@V?$_Tmap_traits@HHU?$less@H@std@@V?$allocator@U?$pair@$$CBHH@std@@@2@$0A@@std@@@std@@QAE?AViterator@12@V312@@Z 1001f982 f   Gamesys.obj
 0001:0001e982       __ehhandler$?_Insert@?$_Tree@V?$_Tmap_traits@HHU?$less@H@std@@V?$allocator@U?$pair@$$CBHH@std@@@2@$0A@@std@@@std@@IAE?AViterator@12@_NPAU_Node@?$_Tree_nod@V?$_Tmap_traits@HHU?$less@H@std@@V?$allocator@U?$pair@$$CBHH@std@@@2@$0A@@std@@@2@ABU?$pair@$$CBHH@2@@Z 1001f982 f   Gamesys.obj
 0001:0001e990       $L80388                    1001f990 f   Gamesys.obj
 0001:0001e99b       __ehhandler$?CreateProjectilePickups@CGamesysManager@@QAEXXZ 1001f99b f   Gamesys.obj
 0001:0001e9b0       $L76555                    1001f9b0 f   MessageManager.obj
 0001:0001e9b9       $L76575                    1001f9b9 f   MessageManager.obj
 0001:0001e9c2       __ehhandler$?_Incsize@?$list@PAVMessage@@V?$allocator@PAVMessage@@@std@@@std@@IAEXI@Z 1001f9c2 f   MessageManager.obj
 0001:0001e9d0       $L76940                    1001f9d0 f   MessageManager.obj
 0001:0001e9db       $L76941                    1001f9db f   MessageManager.obj
 0001:0001e9e6       __ehhandler$??1MessageMgr@@UAE@XZ 1001f9e6 f   MessageManager.obj
 0001:0001e9f0       $L77163                    1001f9f0 f   MessageManager.obj
 0001:0001e9f8       __ehhandler$?Update@MessageMgr@@QAEXXZ 1001f9f8 f   MessageManager.obj
 0001:0001ea10       $L77474                    1001fa10 f   MessageManager.obj
 0001:0001ea1b       __ehhandler$??0MessageMgr@@QAE@XZ 1001fa1b f   MessageManager.obj
 0001:0001ea30       $L77582                    1001fa30 f   MessageManager.obj
 0001:0001ea3b       __ehhandler$?Get@MessageMgr@@SAPAV1@XZ 1001fa3b f   MessageManager.obj
 0001:0001ea50       $L77597                    1001fa50 f   MessageManager.obj
 0001:0001ea5b       __ehhandler$?AddLine@MessageMgr@@QAEX_NPBD@Z 1001fa5b f   MessageManager.obj
 0001:0001ea70       $L75069                    1001fa70 f   SaveManager.obj
 0001:0001ea7b       __ehhandler$?SaveManagerInit@@YAXXZ 1001fa7b f   SaveManager.obj
 0001:0001ea90       $L74546                    1001fa90 f   Tools.obj
 0001:0001ea98       $L74547                    1001fa98 f   Tools.obj
 0001:0001eab1       __ehhandler$?TimeString@@YA?AVNString@@H@Z 1001fab1 f   Tools.obj
 0001:0001eac0       $L74683                    1001fac0 f   Tools.obj
 0001:0001eac8       __ehhandler$?GetMissionName@@YA?AVcAnsiStr@@H@Z 1001fac8 f   Tools.obj
 0001:0001eae0       $L76828                    1001fae0 f   ServerBrowser.obj
 0001:0001eaeb       __ehhandler$?HandlePingResponse@CServerBrowser@@UAEXPAX@Z 1001faeb f   ServerBrowser.obj
 0001:0001eb00       $L76854                    1001fb00 f   ServerBrowser.obj
 0001:0001eb08       __ehhandler$?UpdateServerCount@CServerBrowser@@QAEXXZ 1001fb08 f   ServerBrowser.obj
 0001:0001eb20       $L77625                    1001fb20 f   ServerBrowser.obj
 0001:0001eb2b       $L77626                    1001fb2b f   ServerBrowser.obj
 0001:0001eb36       __ehhandler$??0CServerBrowser@@QAE@XZ 1001fb36 f   ServerBrowser.obj
 0001:0001eb40       $L77781                    1001fb40 f   ServerBrowser.obj
 0001:0001eb4b       $L77782                    1001fb4b f   ServerBrowser.obj
 0001:0001eb56       __ehhandler$??1CServerBrowser@@UAE@XZ 1001fb56 f   ServerBrowser.obj
 0001:0001eb60       $L75915                    1001fb60 f   ServerList.obj
 0001:0001eb69       $L75935                    1001fb69 f   ServerList.obj
 0001:0001eb72       __ehhandler$?_Incsize@?$list@PAVCServerListEntry@@V?$allocator@PAVCServerListEntry@@@std@@@std@@IAEXI@Z 1001fb72 f   ServerList.obj
 0001:0001eb80       $L76527                    1001fb80 f   ServerList.obj
 0001:0001eb8b       __ehhandler$?AddServer@CServerList@@QAEPAVCServerListEntry@@PBD00GGEE@Z 1001fb8b f   ServerList.obj
 0001:0001eba0       __ehhandler$?HookCollisionStickReceiveMessage@@YGXPAVCollisionStickScript@@PAUsScrMsg@@PAVcMultiParm@@W4eScrTraceAction@@@Z 1001fba0 f   ScriptHooks.obj
 0001:0001ebb0       $L65504                    1001fbb0 f   StringHashTable.obj
 0001:0001ebbb       __ehhandler$?StringHashInit@@YAXXZ 1001fbbb f   StringHashTable.obj
 0001:0001ebd0       $L77619                    1001fbd0 f   DarkOverlay.obj
 0001:0001ebd9       $L77623                    1001fbd9 f   DarkOverlay.obj
 0001:0001ebe2       __ehhandler$?_Xlen@?$vector@PAVDialogElement@@V?$allocator@PAVDialogElement@@@std@@@std@@IBEXXZ 1001fbe2 f   DarkOverlay.obj
 0001:0001ebf0       $L77702                    1001fbf0 f   DarkOverlay.obj
 0001:0001ebf8       __ehhandler$?LoadPCX@@YAPAUIRes@@PBD0_N@Z 1001fbf8 f   DarkOverlay.obj
 0001:0001ec10       $L77833                    1001fc10 f   DarkOverlay.obj
 0001:0001ec1b       __ehhandler$?UpdatePlayers@PlayersOverlay@@QAEXXZ 1001fc1b f   DarkOverlay.obj
 0001:0001ec30       $L78055                    1001fc30 f   DarkOverlay.obj
 0001:0001ec38       __ehhandler$?LoadBook@BookOverlay@@QAEXPBD0@Z 1001fc38 f   DarkOverlay.obj
 0001:0001ec50       $L78137                    1001fc50 f   DarkOverlay.obj
 0001:0001ec58       __ehhandler$?Draw@SimOverlay@@UAEXXZ 1001fc58 f   DarkOverlay.obj
 0001:0001ec70       $L78228                    1001fc70 f   DarkOverlay.obj
 0001:0001ec78       __ehhandler$?Init@ObjectivesOverlay@@UAE_NXZ 1001fc78 f   DarkOverlay.obj
 0001:0001ec90       $L78279                    1001fc90 f   DarkOverlay.obj
 0001:0001ec98       __ehhandler$?DrawGoalStatus@ObjectivesOverlay@@IAEXHPAUgrs_font@@H@Z 1001fc98 f   DarkOverlay.obj
 0001:0001ecb0       $L78347                    1001fcb0 f   DarkOverlay.obj
 0001:0001ecbb       $L78348                    1001fcbb f   DarkOverlay.obj
 0001:0001ecc6       __ehhandler$?Draw@ObjectivesOverlay@@UAEXXZ 1001fcc6 f   DarkOverlay.obj
 0001:0001ecd0       $L78464                    1001fcd0 f   DarkOverlay.obj
 0001:0001ecd8       $L78465                    1001fcd8 f   DarkOverlay.obj
 0001:0001ece0       __ehhandler$?UpdateSettings@StagingOverlay@@IAEXXZ 1001fce0 f   DarkOverlay.obj
 0001:0001ecf0       $L79667                    1001fcf0 f   DarkOverlay.obj
 0001:0001ecfb       __ehhandler$??0DarkOverlay@@QAE@PBD@Z 1001fcfb f   DarkOverlay.obj
 0001:0001ed10       $L79895                    1001fd10 f   DarkOverlay.obj
 0001:0001ed18       $L79896                    1001fd18 f   DarkOverlay.obj
 0001:0001ed23       __ehhandler$??0MapOverlay@@QAE@PBD@Z 1001fd23 f   DarkOverlay.obj
 0001:0001ed30       $L80061                    1001fd30 f   DarkOverlay.obj
 0001:0001ed38       $L80062                    1001fd38 f   DarkOverlay.obj
 0001:0001ed43       __ehhandler$??0ObjectivesOverlay@@QAE@PBD@Z 1001fd43 f   DarkOverlay.obj
 0001:0001ed50       $L80940                    1001fd50 f   DarkOverlay.obj
 0001:0001ed50       $L81778                    1001fd50 f   DarkOverlay.obj
 0001:0001ed50       $L80671                    1001fd50 f   DarkOverlay.obj
 0001:0001ed50       $L80402                    1001fd50 f   DarkOverlay.obj
 0001:0001ed5b       __ehhandler$?OverlayInit@@YAXXZ 1001fd5b f   DarkOverlay.obj
 0001:0001ed5b       __ehhandler$?AddText@DarkOverlay@@QAEPAVElement_Text@@PBDMMKKPAUgrs_font@@@Z 1001fd5b f   DarkOverlay.obj
 0001:0001ed5b       __ehhandler$?AddImage@DarkOverlay@@QAEPAVElement_Image@@PBD0MMKP6AXPAVDialogElement@@UPoint@@@Z@Z 1001fd5b f   DarkOverlay.obj
 0001:0001ed5b       __ehhandler$?AddButton@DarkOverlay@@QAEPAVElement_Button@@PBDMMKKPAUgrs_font@@P6AXPAVDialogElement@@UPoint@@@Z@Z 1001fd5b f   DarkOverlay.obj
 0001:0001ed70       $L81497                    1001fd70 f   DarkOverlay.obj
 0001:0001ed7b       $L81498                    1001fd7b f   DarkOverlay.obj
 0001:0001ed86       $L81499                    1001fd86 f   DarkOverlay.obj
 0001:0001ed91       $L81500                    1001fd91 f   DarkOverlay.obj
 0001:0001ed9c       $L81501                    1001fd9c f   DarkOverlay.obj
 0001:0001eda7       $L81502                    1001fda7 f   DarkOverlay.obj
 0001:0001edb2       __ehhandler$??0DarkOverlayManager@@QAE@XZ 1001fdb2 f   DarkOverlay.obj
 0001:0001edc0       $L79915                    1001fdc0 f   DarkOverlay.obj
 0001:0001edc0       $L80034                    1001fdc0 f   DarkOverlay.obj
 0001:0001edc0       $L80098                    1001fdc0 f   DarkOverlay.obj
 0001:0001edc0       $L79991                    1001fdc0 f   DarkOverlay.obj
 0001:0001edc0       $L81674                    1001fdc0 f   DarkOverlay.obj
 0001:0001edc8       __ehhandler$??1ObjectivesOverlay@@UAE@XZ 1001fdc8 f   DarkOverlay.obj
 0001:0001edc8       __ehhandler$??1MapOverlay@@UAE@XZ 1001fdc8 f   DarkOverlay.obj
 0001:0001edc8       __ehhandler$??0SimOverlay@@QAE@PBD@Z 1001fdc8 f   DarkOverlay.obj
 0001:0001edc8       __ehhandler$??1SimOverlay@@UAE@XZ 1001fdc8 f   DarkOverlay.obj
 0001:0001edc8       __ehhandler$??1BookOverlay@@UAE@XZ 1001fdc8 f   DarkOverlay.obj
 0001:0001ede0       $L81732                    1001fde0 f   DarkOverlay.obj
 0001:0001ede0       $L81614                    1001fde0 f   DarkOverlay.obj
 0001:0001ede8       $L81733                    1001fde8 f   DarkOverlay.obj
 0001:0001ede8       $L81615                    1001fde8 f   DarkOverlay.obj
 0001:0001edf0       $L81734                    1001fdf0 f   DarkOverlay.obj
 0001:0001edf0       $L81616                    1001fdf0 f   DarkOverlay.obj
 0001:0001edf8       $L81617                    1001fdf8 f   DarkOverlay.obj
 0001:0001edf8       $L81735                    1001fdf8 f   DarkOverlay.obj
 0001:0001ee00       $L81736                    1001fe00 f   DarkOverlay.obj
 0001:0001ee00       $L81618                    1001fe00 f   DarkOverlay.obj
 0001:0001ee08       __ehhandler$?Init@PlayersOverlay@@UAE_NXZ 1001fe08 f   DarkOverlay.obj
 0001:0001ee08       __ehhandler$?Init@StagingOverlay@@UAE_NXZ 1001fe08 f   DarkOverlay.obj
 0001:0001ee20       $L75412                    1001fe20 f   DialogElement.obj
 0001:0001ee28       __ehhandler$??1Element_Text@@UAE@XZ 1001fe28 f   DialogElement.obj
 0001:0001ee40       $L75439                    1001fe40 f   DialogElement.obj
 0001:0001ee48       $L75440                    1001fe48 f   DialogElement.obj
 0001:0001ee53       __ehhandler$??1Element_Image@@UAE@XZ 1001fe53 f   DialogElement.obj
 0001:0001ee60       $L75566                    1001fe60 f   DialogElement.obj
 0001:0001ee68       $L75567                    1001fe68 f   DialogElement.obj
 0001:0001ee73       $L75568                    1001fe73 f   DialogElement.obj
 0001:0001ee7e       __ehhandler$??0Element_Image@@QAE@PAUIDarkOverlay@@PBD1MMKP6AXPAVDialogElement@@UPoint@@@Z@Z 1001fe7e f   DialogElement.obj
 0001:0001ee90       $L75694                    1001fe90 f   DialogElement.obj
 0001:0001ee98       $L75695                    1001fe98 f   DialogElement.obj
 0001:0001eea3       $L75696                    1001fea3 f   DialogElement.obj
 0001:0001eeab       __ehhandler$??0Element_Text@@QAE@PAUIDarkOverlay@@PBDMMKKPAUgrs_font@@@Z 1001feab f   DialogElement.obj
 0001:0001eec0       $L61406                    1001fec0 f   Engine:ConfigManager.obj
 0001:0001eec0       $L61362                    1001fec0 f   Engine:ConfigManager.obj
 0001:0001eec0       $L61341                    1001fec0 f   Engine:ConfigManager.obj
 0001:0001eec0       $L61379                    1001fec0 f   Engine:ConfigManager.obj
 0001:0001eecb       __ehhandler$?SetIniFile@ConfigManager@@QAEXPBD@Z 1001fecb f   Engine:ConfigManager.obj
 0001:0001eecb       __ehhandler$?CreateFloatVar@ConfigManager@@IAEPAVConfigVar@@PBD@Z 1001fecb f   Engine:ConfigManager.obj
 0001:0001eecb       __ehhandler$?CreateIntVar@ConfigManager@@IAEPAVConfigVar@@PBD@Z 1001fecb f   Engine:ConfigManager.obj
 0001:0001eecb       __ehhandler$?CreateStringVar@ConfigManager@@IAEPAVConfigVar@@PBD@Z 1001fecb f   Engine:ConfigManager.obj
 0001:0001eee0       $L61812                    1001fee0 f   Engine:ConfigManager.obj
 0001:0001eee9       $L61832                    1001fee9 f   Engine:ConfigManager.obj
 0001:0001eef2       __ehhandler$?_Incsize@?$list@PAVConfigVar@@V?$allocator@PAVConfigVar@@@std@@@std@@IAEXI@Z 1001fef2 f   Engine:ConfigManager.obj
 0001:0001ef00       $L59919                    1001ff00 f   Engine:Utilities.obj
 0001:0001ef09       $L59920                    1001ff09 f   Engine:Utilities.obj
 0001:0001ef12       $L59921                    1001ff12 f   Engine:Utilities.obj
 0001:0001ef2c       __ehhandler$?GetParam@@YA?AV?$basic_string@DU?$char_traits@D@std@@V?$allocator@D@2@@std@@V12@DI@Z 1001ff2c f   Engine:Utilities.obj
 0001:0001ef40       $L60765                    1001ff40 f   Engine:EventManager.obj
 0001:0001ef49       $L60769                    1001ff49 f   Engine:EventManager.obj
 0001:0001ef52       __ehhandler$?_Xlen@?$vector@VEventListener@@V?$allocator@VEventListener@@@std@@@std@@IBEXXZ 1001ff52 f   Engine:EventManager.obj
 0001:0001ef60       __ehhandler$?_Insert_n@?$vector@VEventListener@@V?$allocator@VEventListener@@@std@@@std@@IAEXViterator@12@IABVEventListener@@@Z 1001ff60 f   Engine:EventManager.obj
 0001:0001ef70       $L62308                    1001ff70 f   Engine:EventManager.obj
 0001:0001ef7b       __ehhandler$?Initialize@EventManager@@SAXXZ 1001ff7b f   Engine:EventManager.obj
 0001:0001ef90       $L59582                    1001ff90 f   Engine:EngError.obj
 0001:0001ef9c       __ehhandler$?ErrorMessageBox@@YAXPBD@Z 1001ff9c f   Engine:EngError.obj
 0001:0001efb0       $L59329                    1001ffb0 f   GSClient_r:GSClient.obj
 0001:0001efbb       __ehhandler$?GS_CreateDP8Client@@YAPAUIGSClient@@XZ 1001ffbb f   GSClient_r:GSClient.obj
 0001:0001efd0       __ehhandler$?PingServer@GSClient_DP8@@UAE_NPBDGH@Z 1001ffd0 f   GSClient_r:GSClient_DP8.obj
 0001:0001efe0       $L59898                    1001ffe0 f   GSClient_r:GSClient_DP8.obj
 0001:0001efe9       $L59902                    1001ffe9 f   GSClient_r:GSClient_DP8.obj
 0001:0001eff2       __ehhandler$?_Xlen@?$deque@PAUNetMessage@@V?$allocator@PAUNetMessage@@@std@@@std@@IBEXXZ 1001fff2 f   GSClient_r:GSClient_DP8.obj
 0001:0001f000       $L61042                    10020000 f   GSClient_r:GSClient_DP8.obj
 0001:0001f008       $L61043                    10020008 f   GSClient_r:GSClient_DP8.obj
 0001:0001f013       $L61044                    10020013 f   GSClient_r:GSClient_DP8.obj
 0001:0001f01e       $L61045                    1002001e f   GSClient_r:GSClient_DP8.obj
 0001:0001f029       $L61046                    10020029 f   GSClient_r:GSClient_DP8.obj
 0001:0001f037       __ehhandler$??1GSClient_DP8@@UAE@XZ 10020037 f   GSClient_r:GSClient_DP8.obj
 0001:0001f050       $L61145                    10020050 f   GSClient_r:GSClient_DP8.obj
 0001:0001f058       $L61146                    10020058 f   GSClient_r:GSClient_DP8.obj
 0001:0001f063       $L61147                    10020063 f   GSClient_r:GSClient_DP8.obj
 0001:0001f06e       $L61148                    1002006e f   GSClient_r:GSClient_DP8.obj
 0001:0001f079       $L61149                    10020079 f   GSClient_r:GSClient_DP8.obj
 0001:0001f087       __ehhandler$??0GSClient_DP8@@QAE@XZ 10020087 f   GSClient_r:GSClient_DP8.obj
 0001:0001f0a0       _$E1                       100200a0 f   DarkPeer.obj
 0001:0001f0d0       _$E4                       100200d0 f   DarkPeer.obj
 0001:0001f0e0       _$E7                       100200e0 f   DarkPeer.obj
 0001:0001f100       _$E1                       10020100 f   PlayerDB.obj
 0001:0001f120       _$E1                       10020120 f   Config.obj
 0001:0001f140       _$E1                       10020140 f   Gamesys.obj
 0001:0001f160       _$E137                     10020160 f   Main.obj
 0001:0001f180       _$E140                     10020180 f   Main.obj
 0001:0001f1b0       _$E1                       100201b0 f   NetReactions.obj
 0001:0001f1e0       _$E2                       100201e0 f   DarkPeer.obj
 0001:0001f1f0       _$E8                       100201f0 f   DarkPeer.obj
 0001:0001f200       _$E5                       10020200 f   DarkPeer.obj
 0001:0001f210       _$E2                       10020210 f   PlayerDB.obj
 0001:0001f220       _$E2                       10020220 f   Config.obj
 0001:0001f230       _$E2                       10020230 f   Gamesys.obj
 0001:0001f240       _$E138                     10020240 f   Main.obj
 0001:0001f250       _$E141                     10020250 f   Main.obj
