 ThiefMP

 Timestamp is 4d1022ba (Mon Dec 20 22:44:58 2010)

 Preferred load address is 10000000

 Start         Length     Name                   Class
 0001:00000000 0004ce3eH .text                   CODE
 0001:0004ce40 0000166fH .text$x                 CODE
 0001:0004e4b0 00000b26H .text$yc                CODE
 0001:0004efe0 00000116H .text$yd                CODE
 0002:00000000 0000040cH .idata$5                DATA
 0002:00000410 0000ca34H .rdata                  DATA
 0002:0000ce44 0000003dH .rdata$debug            DATA
 0002:0000ce84 00000044H .rdata$r                DATA
 0002:0000cec8 00000004H .rtc$IAA                DATA
 0002:0000cecc 0000016cH .rtc$IMZ                DATA
 0002:0000d038 00000004H .rtc$IZZ                DATA
 0002:0000d03c 00000004H .rtc$TAA                DATA
 0002:0000d040 0000016cH .rtc$TMZ                DATA
 0002:0000d1ac 00000004H .rtc$TZZ                DATA
 0002:0000d1b0 0000263cH .xdata$x                DATA
 0002:0000f7ec 0000008cH .idata$2                DATA
 0002:0000f878 00000014H .idata$3                DATA
 0002:0000f88c 0000040cH .idata$4                DATA
 0002:0000fc98 00002286H .idata$6                DATA
 0002:00011f1e 00000000H .edata                  DATA
 0003:00000000 00000004H .CRT$XCA                DATA
 0003:00000004 00000004H .CRT$XCAA               DATA
 0003:00000008 00000144H .CRT$XCU                DATA
 0003:0000014c 00000004H .CRT$XCZ                DATA
 0003:00000150 00000004H .CRT$XIA                DATA
 0003:00000154 00000004H .CRT$XIZ                DATA
 0003:00000160 000026b4H .data                   DATA
 0003:00002818 000024fcH .bss                    DATA
 0004:00000000 00000250H .rsrc$01                DATA
 0004:00000250 00001628H .rsrc$02                DATA

  Address         Publics by Value              Rva+Base     Lib:Object

 0000:00000000       __except_list              00000000     <absolute>
 0000:00000000       ___safe_se_handler_count   00000000     <absolute>
 0000:00000000       ___safe_se_handler_table   00000000     <absolute>
 0000:00009876       __ldused                   00009876     <absolute>
 0000:00009876       __fltused                  00009876     <absolute>
 0001:00000000       _cDynArray_ctor            10001000 f   sshock2.obj
 0001:00000010       _cTag_ctor                 10001010 f   sshock2.obj
 0001:00000023       _cDABase_dtor1             10001023 f   sshock2.obj
 0001:00000037       _DarkPlayerActionToSchemaIdx 10001037 f   sshock2.obj
 0001:0000020f       _ShockPlayerActionToSchemaIdx 1000120f f   sshock2.obj
 0001:000003fe       _ShockSetMode              100013fe f   sshock2.obj
 0001:0000062f       _cPhysModels_Get           1000162f f   sshock2.obj
 0001:000006e0       _PlayerAction_GetTagName   100016e0 f   sshock2.obj
 0001:00000710       _PlayerAction_GetAnimName  10001710 f   sshock2.obj
 0001:00000780       ?TransferAI@HookAIManager@@YGHPAUIAIManager@@HH@Z 10001780 f   AIManager.obj
 0001:000007f0       ?CreateAI@HookAIManager@@YGHPAUIAIManager@@HPBD@Z 100017f0 f   AIManager.obj
 0001:00000830       ?StartConversation@HookAIManager@@YGHPAUIAIManager@@H@Z 10001830 f   AIManager.obj
 0001:00000960       ?MakeProxyAI@HookAINetManager@@YGJPAUIAINetManager@@HH@Z 10001960 f   AIManager.obj
 0001:00000cd0       ??0CNetMsg_TransferAI@@QAE@XZ 10001cd0 f i AIManager.obj
 0001:00000cf0       ?IsFlagSet@CDebugManager@@QAEII@Z 10001cf0 f i AIManager.obj
 0001:00000d10       ??C?$GlobalPointer@UINetManager@@@@QBEPAUINetManager@@XZ 10001d10 f i AIManager.obj
 0001:00000d30       ??C?$GlobalPointer@UIObjectNetworking@@@@QBEPAUIObjectNetworking@@XZ 10001d30 f i AIManager.obj
 0001:00000d50       ??C?$GlobalPointer@UIAIManager@@@@QBEPAUIAIManager@@XZ 10001d50 f i AIManager.obj
 0001:00000d70       ??C?$GlobalPointer@UITraitManager@@@@QBEPAUITraitManager@@XZ 10001d70 f i AIManager.obj
 0001:00000d90       ??C?$GlobalPointer@UIGenericProperty@@@@QBEPAUIGenericProperty@@XZ 10001d90 f i AIManager.obj
 0001:00000db0       ??C?$GlobalPointer@UIBoolProperty@@@@QBEPAUIBoolProperty@@XZ 10001db0 f i AIManager.obj
 0001:00000dd0       ?OnDropItem@@YAXXZ         10001dd0 f   Commands.obj
 0001:00000f60       ?OnUseWeapon@@YAXH@Z       10001f60 f   Commands.obj
 0001:00001070       ?OnWinMission@@YAXXZ       10002070 f   Commands.obj
 0001:00001190       ?OnSimMenu@@YAXXZ          10002190 f   Commands.obj
 0001:000011e0       ?OnObjectives@@YAXXZ       100021e0 f   Commands.obj
 0001:00001230       ?OnAutomap@@YAXXZ          10002230 f   Commands.obj
 0001:00001280       ?OverlayFilter@@YA_NXZ     10002280 f   Commands.obj
 0001:000012a0       ?PatchCommands@@YAX_N@Z    100022a0 f   Commands.obj
 0001:00001430       ??C?$GlobalPointer@UIContainSys@@@@QBEPAUIContainSys@@XZ 10002430 f i Commands.obj
 0001:00001450       ??C?$GlobalPointer@UIInventory@@@@QBEPAUIInventory@@XZ 10002450 f i Commands.obj
 0001:00001470       ??0?$IPtr@UIQuestData@@@@QAE@PAX@Z 10002470 f i Commands.obj
 0001:00001490       ??1?$IPtr@UIQuestData@@@@QAE@XZ 10002490 f i Commands.obj
 0001:000014d0       ??C?$IPtr@UIQuestData@@@@QBEPAUIQuestData@@XZ 100024d0 f i Commands.obj
 0001:000014f0       ?ApplyFilters@cBaseDamageModel@@QAEKHHPAUsDamage@@@Z 100024f0 f   Damage.obj
 0001:000015a0       ?AlreadySentMsg@cBaseDamageModel@@QAEHKH@Z 100025a0 f   Damage.obj
 0001:00001640       ?ApplyResult@cBaseDamageModel@@QAEKHHKPAUsChainedEvent@@@Z 10002640 f   Damage.obj
 0001:00001730       ?SendMessageA@cBaseDamageModel@@QAEKPBUsDamageMsg@@@Z 10002730 f   Damage.obj
 0001:00001750       ?DoMultiDamage@@YA_NHHPAUsDamage@@PAUsChainedEvent@@@Z 10002750 f   Damage.obj
 0001:00001790       ?OnDamageObject@HookSimpleDamageModel2@@QAGKHHPAUsDamage@@PAUsChainedEvent@@H@Z 10002790 f   Damage.obj
 0001:00001910       ?HookDarkCombatDamageListener@@YGKPBUsDamageMsg@@PAX@Z 10002910 f   Damage.obj
 0001:00001940       ?DarkDamageListener@@YGKPBUsDamageMsg@@PAX@Z 10002940 f   Damage.obj
 0001:00001af0       ?DamageObject@HookSimpleDamageModel@@YGJKHHPAUsDamage@@PAUsChainedEvent@@H@Z 10002af0 f   Damage.obj
 0001:00001be0       ??A?$cDynArray@UDamageFilterEntry@@@@QAEAAUDamageFilterEntry@@I@Z 10002be0 f i Damage.obj
 0001:00001c00       ?Size@?$cDynArray@UDamageFilterEntry@@@@QAEKXZ 10002c00 f i Damage.obj
 0001:00001c20       ?EndMission@HookDarkGameSrv@@YGJK@Z 10002c20 f   DarkGameSrv.obj
 0001:00001cb0       ?FadeToBlack@HookDarkGameSrv@@YGJKM@Z 10002cb0 f   DarkGameSrv.obj
 0001:00001d30       ?SlotFileName@HookDarkFilePanel@@YGPBDH@Z 10002d30 f   FilePanel.obj
 0001:00001df0       ?DoFileOp@HookSaveFilePanel@@YIXPAKHH@Z 10002df0 f   FilePanel.obj
 0001:00001ea0       ?ReceiveAIHeartbeat@HookGhostReceive@@YAXHHPAUsGhostHeartbeat@@@Z 10002ea0 f   GhostReceive.obj
 0001:00001eb0       ?ReceiveFullHeartbeat@HookGhostReceive@@YAXHHHPAUsGhostHeartbeat@@PAUsGhostMoCap@@@Z 10002eb0 f   GhostReceive.obj
 0001:00001ef0       ?ReceiveRotHeartbeat@HookGhostReceive@@YAXHHPAUsGhostHeartbeat@@@Z 10002ef0 f   GhostReceive.obj
 0001:00001f00       ?CreatePlan@HookGroundActionManeuverFactory@@YGPAVcMotionPlan@@PBVcMotionSchema@@AAUsMcMotorState@@AAUsMcMoveState@@AAUsMcMoveParams@@PAVIMotor@@PAVcMotionCoordinator@@@Z 10002f00 f   Motions.obj
 0001:00001ff0       ?CreatePlan@HookPlayerManeuverFactory@@YGPAVcMotionPlan@@PBVcMotionSchema@@AAUsMcMotorState@@AAUsMcMoveState@@AAUsMcMoveParams@@PAVIMotor@@PAVcMotionCoordinator@@@Z 10002ff0 f   Motions.obj
 0001:00002070       ?CreatePlan@HookGroundLocoManeuverFactory@@YGPAVcMotionPlan@@PBVcMotionSchema@@AAUsMcMotorState@@AAUsMcMoveState@@AAUsMcMoveParams@@PAVIMotor@@PAVcMotionCoordinator@@@Z 10003070 f   Motions.obj
 0001:000020f0       ?GetObjID@cCreature@@QAEHXZ 100030f0 f i Motions.obj
 0001:00002110       ?Host@HookNet@@YGHPAUINet@@PAD1@Z 10003110 f   Net.obj
 0001:000021e0       ?Join@HookNet@@YGHPAUINet@@PBD11@Z 100031e0 f   Net.obj
 0001:00002350       ?SimpleCreatePlayer@HookNet@@YGJPAUINet@@PAD@Z 10003350 f   Net.obj
 0001:000023a0       ?GetMessageA@DPlayException@@QAEPBDXZ 100033a0 f i Net.obj
 0001:000023c0       ?GetCode@DPlayException@@QAEJXZ 100033c0 f i Net.obj
 0001:000023e0       ?SendCreatePlayerNetMsg@HookNetManager@@YGXXZ 100033e0 f   NetManager.obj
 0001:000023f0       ?Leave@HookNetManager@@YGXPAUINetManager@@@Z 100033f0 f   NetManager.obj
 0001:00002480       ?EnumPlayersCallback@HookNetManager@@YGHKKPBUDPNAME@@KPAX@Z 10003480 f   NetManager.obj
 0001:00002500       ?InitExistingPlayer@HookNetManager@@YGHKKPBUDPNAME@@KPAX@Z 10003500 f   NetManager.obj
 0001:00002560       ?_DestroyNetPlayerCallback@HookNetManager@@YGHKKPBUDPNAME@@KPAX@Z 10003560 f   NetManager.obj
 0001:000025c0       ?GetPlayerAddress@HookNetManager@@YGPBDKH@Z 100035c0 f   NetManager.obj
 0001:000025d0       ?SuspendMessaging@HookNetManager@@YGXPAUINetManager@@@Z 100035d0 f   NetManager.obj
 0001:000025f0       ?ResumeMessaging@HookNetManager@@YGXPAUINetManager@@@Z 100035f0 f   NetManager.obj
 0001:00002610       ?MyAvatarArchetype@HookDarkNetServices@@YGHK@Z 10003610 f   NetManager.obj
 0001:00002790       ?NetDisconnectListener@@YAXKKPAX@Z 10003790 f   NetManager.obj
 0001:00002940       ?NetDisconnectListenerInit@@YAXXZ 10003940 f   NetManager.obj
 0001:000029a0       ??C?$GlobalPointer@UIObjectSystem@@@@QBEPAUIObjectSystem@@XZ 100039a0 f i NetManager.obj
 0001:000029c0       ?HandleMsg@HookNetMsg@@YIXPAVcNetMsg@@HPBUsNetMsg_Generic@@KH@Z 100039c0 f   NetMsg.obj
 0001:00002a40       ?MarshalArguments@HookNetMsg@@YIHPAVcNetMsg@@HPADPAHPAI@Z 10003a40 f   NetMsg.obj
 0001:00002ad0       ?ObjectIsVisible@@YAHH@Z   10003ad0 f   Objects.obj
 0001:00002b40       ?ClearTables@HookObjectNetworking@@YGXPAUIObjectNetworking@@@Z 10003b40 f   Objects.obj
 0001:00002b70       ?ObjRegisterProxy@HookObjectNetworking@@YGXPAUIObjectNetworking@@HFH@Z 10003b70 f   Objects.obj
 0001:00002ba0       ?ObjGetProxy@HookObjectNetworking@@YGHPAUIObjectNetworking@@HF@Z 10003ba0 f   Objects.obj
 0001:00002bd0       ?ObjDeleteProxy@HookObjectNetworking@@YGXPAUIObjectNetworking@@H@Z 10003bd0 f   Objects.obj
 0001:00002c00       ?ObjIsProxy@HookObjectNetworking@@YGHPAUIObjectNetworking@@H@Z 10003c00 f   Objects.obj
 0001:00002c30       ?ObjHostInfo@HookObjectNetworking@@YGXPAUIObjectNetworking@@HPAHPAF@Z 10003c30 f   Objects.obj
 0001:00002c60       ?ObjTakeOver@HookObjectNetworking@@YGXPAUIObjectNetworking@@H@Z 10003c60 f   Objects.obj
 0001:00002cc0       ?ObjGiveTo@HookObjectNetworking@@YGXPAUIObjectNetworking@@HHH@Z 10003cc0 f   Objects.obj
 0001:00002d20       ?ObjGiveWithoutObjID@HookObjectNetworking@@YGXPAUIObjectNetworking@@HH@Z 10003d20 f   Objects.obj
 0001:00002da0       ?StartBeginCreate@HookObjectNetworking@@YGXPAUIObjectNetworking@@HH@Z 10003da0 f   Objects.obj
 0001:00002dd0       ?FinishBeginCreate@HookObjectNetworking@@YGXPAUIObjectNetworking@@H@Z 10003dd0 f   Objects.obj
 0001:00002e30       ?StartEndCreate@HookObjectNetworking@@YGXPAUIObjectNetworking@@H@Z 10003e30 f   Objects.obj
 0001:00002e60       ?FinishEndCreate@HookObjectNetworking@@YGXPAUIObjectNetworking@@H@Z 10003e60 f   Objects.obj
 0001:00002e90       ?StartDestroy@HookObjectNetworking@@YGXPAUIObjectNetworking@@H@Z 10003e90 f   Objects.obj
 0001:00002ef0       ?NotifyObjRemapped@HookObjectNetworking@@YGXPAUIObjectNetworking@@HH@Z 10003ef0 f   Objects.obj
 0001:00002f40       ?Add@HookContainSys@@YGJPAUIContainSys@@HHII@Z 10003f40 f   Objects.obj
 0001:00003130       ?Select@HookInventory@@YGJPAUIInventory@@H@Z 10004130 f   Objects.obj
 0001:000032d0       ?ClearSelection@HookInventory@@YGJPAUIInventory@@W4eWhichInvObj@@@Z 100042d0 f   Objects.obj
 0001:000033d0       ?Unlock@HookObjectSystem@@YGJPAUIObjectSystem@@@Z 100043d0 f   Objects.obj
 0001:00003410       ??0CNetMsg_GiveObject@@QAE@XZ 10004410 f i Objects.obj
 0001:00003430       ?HookFrobRequest@@YAXHHHHHHH@Z 10004430 f   Packets.obj
 0001:000034b0       ?HookFrobPickup@@YAXHH@Z   100044b0 f   Packets.obj
 0001:00003510       ?HookRegSphere@@YAXHHKMPAUmxs_vector@@K@Z 10004510 f   Packets.obj
 0001:00003550       ?HookHandleCreateQuestData@@YAXPADHHK@Z 10004550 f   Packets.obj
 0001:000035b0       ?HookHandleSetQuestData@@YAXPADHK@Z 100045b0 f   Packets.obj
 0001:00003610       ?HookHandleHaltSound@@YAXHH@Z 10004610 f   Packets.obj
 0001:00003620       ?HookHandleRequestDestroy@@YAXH@Z 10004620 f   Packets.obj
 0001:000036e0       ?HookHandleFinishSynch@@YAXPAUINetManager@@@Z 100046e0 f   Packets.obj
 0001:00003730       ?HookSynchReady@@YAXXZ     10004730 f   Packets.obj
 0001:00003790       ?HookHandlePlayerInfo@@YAXHPAD0HPAUINetManager@@@Z 10004790 f   Packets.obj
 0001:00003830       ?HookHandleFireProjectile@@YAXHHKMPAUmxs_vector@@PAUmxs_angvec@@0@Z 10004830 f   Packets.obj
 0001:000038f0       ?HookHandleRemap@@YAXEIPAUsSingleRemap@@@Z 100048f0 f   Packets.obj
 0001:00003950       ?HookHandleBeginCreate@@YAXHHH@Z 10004950 f   Packets.obj
 0001:00003a10       ?HookHandleEndCreate@@YAXH@Z 10004a10 f   Packets.obj
 0001:00003a80       ?HookHandleFrobPickup@@YAXHH@Z 10004a80 f   Packets.obj
 0001:00003e80       ??B?$GlobalPointer@UINetManager@@@@QBEPAUINetManager@@XZ 10004e80 f i Packets.obj
 0001:00003ea0       ??B?$GlobalPointer@UIObjectNetworking@@@@QBEPAUIObjectNetworking@@XZ 10004ea0 f i Packets.obj
 0001:00003ec0       ?EnactProxyJointScanAction@HookAIBehaviorSet@@YGXPAUIAIBehaviorSet@@PAUIAI@@PAX@Z 10004ec0 f   ProxyActions.obj
 0001:00003f10       ?OnReact@HookReactions@@QAGXKPAUsReactionEvent@@PAUsReactionParam@@@Z 10004f10 f   Reactions.obj
 0001:00003fd0       ?OnStartAttack@HookBowSrv@@QAGJXZ 10004fd0 f   ScriptService.obj
 0001:00004020       ?OnFinishAttack@HookBowSrv@@QAGJXZ 10005020 f   ScriptService.obj
 0001:00004060       ?StartPicking@HookPickLockSrv@@YGHKHHH@Z 10005060 f   ScriptService.obj
 0001:00004100       ?FinishPicking@HookPickLockSrv@@YGHKH@Z 10005100 f   ScriptService.obj
 0001:00004130       ?MPrint@HookDebugScrSrv@@YGJPAKAAVcScrStr@@1111111@Z 10005130 f   ScriptService.obj
 0001:00004190       ?SendPropertyMsg@HookStoredProperty@@YGHPAUsNetMsg_Generic@@HHK@Z 10005190 f   StoredProperty.obj
 0001:00004290       ?ReceivePropertyMsg@HookStoredProperty@@YGXPBUsNetMsg_Generic@@KKH@Z 10005290 f   StoredProperty.obj
 0001:000042f0       ??A?$map@PADHU?$less@PAD@std@@V?$allocator@U?$pair@QADH@std@@@2@@std@@QAEAAHABQAD@Z 100052f0 f i StoredProperty.obj
 0001:000043e0       ?_Key@?$_Tree@V?$_Tmap_traits@PADHU?$less@PAD@std@@V?$allocator@U?$pair@QADH@std@@@2@$0A@@std@@@std@@KAABQADPAU_Node@?$_Tree_nod@V?$_Tmap_traits@PADHU?$less@PAD@std@@V?$allocator@U?$pair@QADH@std@@@2@$0A@@std@@@2@@Z 100053e0 f i StoredProperty.obj
 0001:00004410       ?end@?$_Tree@V?$_Tmap_traits@PADHU?$less@PAD@std@@V?$allocator@U?$pair@QADH@std@@@2@$0A@@std@@@std@@QAE?AViterator@12@XZ 10005410 f i StoredProperty.obj
 0001:00004440       ?insert@?$_Tree@V?$_Tmap_traits@PADHU?$less@PAD@std@@V?$allocator@U?$pair@QADH@std@@@2@$0A@@std@@@std@@QAE?AViterator@12@V312@ABU?$pair@QADH@2@@Z 10005440 f i StoredProperty.obj
 0001:00004a50       ?lower_bound@?$_Tree@V?$_Tmap_traits@PADHU?$less@PAD@std@@V?$allocator@U?$pair@QADH@std@@@2@$0A@@std@@@std@@QAE?AViterator@12@ABQAD@Z 10005a50 f i StoredProperty.obj
 0001:00004a90       ??R?$less@PAD@std@@QBE_NABQAD0@Z 10005a90 f i StoredProperty.obj
 0001:00004ac0       ??Diterator@?$_Tree@V?$_Tmap_traits@PADHU?$less@PAD@std@@V?$allocator@U?$pair@QADH@std@@@2@$0A@@std@@@std@@QBEAAU?$pair@QADH@2@XZ 10005ac0 f i StoredProperty.obj
 0001:00004af0       ??8const_iterator@?$_Tree@V?$_Tmap_traits@PADHU?$less@PAD@std@@V?$allocator@U?$pair@QADH@std@@@2@$0A@@std@@@std@@QBE_NABV012@@Z 10005af0 f i StoredProperty.obj
 0001:00004b20       ?_Mynode@const_iterator@?$_Tree@V?$_Tmap_traits@PADHU?$less@PAD@std@@V?$allocator@U?$pair@QADH@std@@@2@$0A@@std@@@std@@QBEPAU_Node@?$_Tree_nod@V?$_Tmap_traits@PADHU?$less@PAD@std@@V?$allocator@U?$pair@QADH@std@@@2@$0A@@std@@@3@XZ 10005b20 f i StoredProperty.obj
 0001:00004b40       ??0?$pair@QADH@std@@QAE@ABQADABH@Z 10005b40 f i StoredProperty.obj
 0001:00004b70       ?_Isnil@?$_Tree@V?$_Tmap_traits@PADHU?$less@PAD@std@@V?$allocator@U?$pair@QADH@std@@@2@$0A@@std@@@std@@KAAADPAU_Node@?$_Tree_nod@V?$_Tmap_traits@PADHU?$less@PAD@std@@V?$allocator@U?$pair@QADH@std@@@2@$0A@@std@@@2@@Z 10005b70 f i StoredProperty.obj
 0001:00004b80       ?_Right@?$_Tree@V?$_Tmap_traits@PADHU?$less@PAD@std@@V?$allocator@U?$pair@QADH@std@@@2@$0A@@std@@@std@@KAAAPAU_Node@?$_Tree_nod@V?$_Tmap_traits@PADHU?$less@PAD@std@@V?$allocator@U?$pair@QADH@std@@@2@$0A@@std@@@2@PAU342@@Z 10005b80 f i StoredProperty.obj
 0001:00004b90       ?_Myval@?$_Tree@V?$_Tmap_traits@PADHU?$less@PAD@std@@V?$allocator@U?$pair@QADH@std@@@2@$0A@@std@@@std@@KAAAU?$pair@QADH@2@PAU_Node@?$_Tree_nod@V?$_Tmap_traits@PADHU?$less@PAD@std@@V?$allocator@U?$pair@QADH@std@@@2@$0A@@std@@@2@@Z 10005b90 f i StoredProperty.obj
 0001:00004ba0       ?begin@?$_Tree@V?$_Tmap_traits@PADHU?$less@PAD@std@@V?$allocator@U?$pair@QADH@std@@@2@$0A@@std@@@std@@QAE?AViterator@12@XZ 10005ba0 f i StoredProperty.obj
 0001:00004be0       ?size@?$_Tree@V?$_Tmap_traits@PADHU?$less@PAD@std@@V?$allocator@U?$pair@QADH@std@@@2@$0A@@std@@@std@@QBEIXZ 10005be0 f i StoredProperty.obj
 0001:00004c00       ?insert@?$_Tree@V?$_Tmap_traits@PADHU?$less@PAD@std@@V?$allocator@U?$pair@QADH@std@@@2@$0A@@std@@@std@@QAE?AU?$pair@Viterator@?$_Tree@V?$_Tmap_traits@PADHU?$less@PAD@std@@V?$allocator@U?$pair@QADH@std@@@2@$0A@@std@@@std@@_N@2@ABU?$pair@QADH@2@@Z 10005c00 f i StoredProperty.obj
 0001:00004e00       ?_Left@?$_Tree@V?$_Tmap_traits@PADHU?$less@PAD@std@@V?$allocator@U?$pair@QADH@std@@@2@$0A@@std@@@std@@KAAAPAU_Node@?$_Tree_nod@V?$_Tmap_traits@PADHU?$less@PAD@std@@V?$allocator@U?$pair@QADH@std@@@2@$0A@@std@@@2@PAU342@@Z 10005e00 f i StoredProperty.obj
 0001:00004e10       ?_Insert@?$_Tree@V?$_Tmap_traits@PADHU?$less@PAD@std@@V?$allocator@U?$pair@QADH@std@@@2@$0A@@std@@@std@@IAE?AViterator@12@_NPAU_Node@?$_Tree_nod@V?$_Tmap_traits@PADHU?$less@PAD@std@@V?$allocator@U?$pair@QADH@std@@@2@$0A@@std@@@2@ABU?$pair@QADH@2@@Z 10005e10 f i StoredProperty.obj
 0001:00005290       ??0length_error@std@@QAE@ABV?$basic_string@DU?$char_traits@D@std@@V?$allocator@D@2@@1@@Z 10006290 f i StoredProperty.obj
 0001:000052d0       ??0logic_error@std@@QAE@ABV?$basic_string@DU?$char_traits@D@std@@V?$allocator@D@2@@1@@Z 100062d0 f i StoredProperty.obj
 0001:00005360       ?what@logic_error@std@@UBEPBDXZ 10006360 f i StoredProperty.obj
 0001:000053a0       ??_Elogic_error@std@@UAEPAXI@Z 100063a0 f i StoredProperty.obj
 0001:000053a0       ??_Glogic_error@std@@UAEPAXI@Z 100063a0 f i StoredProperty.obj
 0001:000053e0       ??1logic_error@std@@UAE@XZ 100063e0 f i StoredProperty.obj
 0001:00005460       ??1length_error@std@@UAE@XZ 10006460 f i StoredProperty.obj
 0001:00005490       ??_Glength_error@std@@UAEPAXI@Z 10006490 f i StoredProperty.obj
 0001:00005490       ??_Elength_error@std@@UAEPAXI@Z 10006490 f i StoredProperty.obj
 0001:000054d0       ?_Parent@?$_Tree@V?$_Tmap_traits@PADHU?$less@PAD@std@@V?$allocator@U?$pair@QADH@std@@@2@$0A@@std@@@std@@KAAAPAU_Node@?$_Tree_nod@V?$_Tmap_traits@PADHU?$less@PAD@std@@V?$allocator@U?$pair@QADH@std@@@2@$0A@@std@@@2@PAU342@@Z 100064d0 f i StoredProperty.obj
 0001:000054e0       ?_Lbound@?$_Tree@V?$_Tmap_traits@PADHU?$less@PAD@std@@V?$allocator@U?$pair@QADH@std@@@2@$0A@@std@@@std@@IBEPAU_Node@?$_Tree_nod@V?$_Tmap_traits@PADHU?$less@PAD@std@@V?$allocator@U?$pair@QADH@std@@@2@$0A@@std@@@2@ABQAD@Z 100064e0 f i StoredProperty.obj
 0001:00005590       ?_Rmost@?$_Tree@V?$_Tmap_traits@PADHU?$less@PAD@std@@V?$allocator@U?$pair@QADH@std@@@2@$0A@@std@@@std@@IAEAAPAU_Node@?$_Tree_nod@V?$_Tmap_traits@PADHU?$less@PAD@std@@V?$allocator@U?$pair@QADH@std@@@2@$0A@@std@@@2@XZ 10006590 f i StoredProperty.obj
 0001:000055c0       ?_Kfn@?$_Tmap_traits@PADHU?$less@PAD@std@@V?$allocator@U?$pair@QADH@std@@@2@$0A@@std@@SAABQADABU?$pair@QADH@2@@Z 100065c0 f i StoredProperty.obj
 0001:000055d0       ??0iterator@?$_Tree@V?$_Tmap_traits@PADHU?$less@PAD@std@@V?$allocator@U?$pair@QADH@std@@@2@$0A@@std@@@std@@QAE@XZ 100065d0 f i StoredProperty.obj
 0001:00005600       ??0iterator@?$_Tree@V?$_Tmap_traits@PADHU?$less@PAD@std@@V?$allocator@U?$pair@QADH@std@@@2@$0A@@std@@@std@@QAE@PAU_Node@?$_Tree_nod@V?$_Tmap_traits@PADHU?$less@PAD@std@@V?$allocator@U?$pair@QADH@std@@@2@$0A@@std@@@2@@Z 10006600 f i StoredProperty.obj
 0001:00005630       ??Eiterator@?$_Tree@V?$_Tmap_traits@PADHU?$less@PAD@std@@V?$allocator@U?$pair@QADH@std@@@2@$0A@@std@@@std@@QAEAAV012@XZ 10006630 f i StoredProperty.obj
 0001:00005660       ??Fiterator@?$_Tree@V?$_Tmap_traits@PADHU?$less@PAD@std@@V?$allocator@U?$pair@QADH@std@@@2@$0A@@std@@@std@@QAEAAV012@XZ 10006660 f i StoredProperty.obj
 0001:00005690       ??Dconst_iterator@?$_Tree@V?$_Tmap_traits@PADHU?$less@PAD@std@@V?$allocator@U?$pair@QADH@std@@@2@$0A@@std@@@std@@QBEABU?$pair@QADH@2@XZ 10006690 f i StoredProperty.obj
 0001:000056c0       ??0length_error@std@@QAE@ABV01@@Z 100066c0 f i StoredProperty.obj
 0001:00005700       ??0logic_error@std@@QAE@ABV01@@Z 10006700 f i StoredProperty.obj
 0001:00005790       ?_Color@?$_Tree@V?$_Tmap_traits@PADHU?$less@PAD@std@@V?$allocator@U?$pair@QADH@std@@@2@$0A@@std@@@std@@KAAADPAU_Node@?$_Tree_nod@V?$_Tmap_traits@PADHU?$less@PAD@std@@V?$allocator@U?$pair@QADH@std@@@2@$0A@@std@@@2@@Z 10006790 f i StoredProperty.obj
 0001:000057a0       ?max_size@?$_Tree@V?$_Tmap_traits@PADHU?$less@PAD@std@@V?$allocator@U?$pair@QADH@std@@@2@$0A@@std@@@std@@QBEIXZ 100067a0 f i StoredProperty.obj
 0001:000057d0       ?_Lmost@?$_Tree@V?$_Tmap_traits@PADHU?$less@PAD@std@@V?$allocator@U?$pair@QADH@std@@@2@$0A@@std@@@std@@IAEAAPAU_Node@?$_Tree_nod@V?$_Tmap_traits@PADHU?$less@PAD@std@@V?$allocator@U?$pair@QADH@std@@@2@$0A@@std@@@2@XZ 100067d0 f i StoredProperty.obj
 0001:00005800       ?_Lrotate@?$_Tree@V?$_Tmap_traits@PADHU?$less@PAD@std@@V?$allocator@U?$pair@QADH@std@@@2@$0A@@std@@@std@@IAEXPAU_Node@?$_Tree_nod@V?$_Tmap_traits@PADHU?$less@PAD@std@@V?$allocator@U?$pair@QADH@std@@@2@$0A@@std@@@2@@Z 10006800 f i StoredProperty.obj
 0001:00005950       ?_Root@?$_Tree@V?$_Tmap_traits@PADHU?$less@PAD@std@@V?$allocator@U?$pair@QADH@std@@@2@$0A@@std@@@std@@IAEAAPAU_Node@?$_Tree_nod@V?$_Tmap_traits@PADHU?$less@PAD@std@@V?$allocator@U?$pair@QADH@std@@@2@$0A@@std@@@2@XZ 10006950 f i StoredProperty.obj
 0001:00005980       ?_Root@?$_Tree@V?$_Tmap_traits@PADHU?$less@PAD@std@@V?$allocator@U?$pair@QADH@std@@@2@$0A@@std@@@std@@IBEAAPAU_Node@?$_Tree_nod@V?$_Tmap_traits@PADHU?$less@PAD@std@@V?$allocator@U?$pair@QADH@std@@@2@$0A@@std@@@2@XZ 10006980 f i StoredProperty.obj
 0001:000059b0       ?_Rrotate@?$_Tree@V?$_Tmap_traits@PADHU?$less@PAD@std@@V?$allocator@U?$pair@QADH@std@@@2@$0A@@std@@@std@@IAEXPAU_Node@?$_Tree_nod@V?$_Tmap_traits@PADHU?$less@PAD@std@@V?$allocator@U?$pair@QADH@std@@@2@$0A@@std@@@2@@Z 100069b0 f i StoredProperty.obj
 0001:00005b00       ?_Buynode@?$_Tree@V?$_Tmap_traits@PADHU?$less@PAD@std@@V?$allocator@U?$pair@QADH@std@@@2@$0A@@std@@@std@@IAEPAU_Node@?$_Tree_nod@V?$_Tmap_traits@PADHU?$less@PAD@std@@V?$allocator@U?$pair@QADH@std@@@2@$0A@@std@@@2@PAU342@00ABU?$pair@QADH@2@D@Z 10006b00 f i StoredProperty.obj
 0001:00005bf0       ??2@YAPAXIPAX@Z            10006bf0 f i StoredProperty.obj
 0001:00005c00       ??3@YAXPAX0@Z              10006c00 f i StoredProperty.obj
 0001:00005c10       ?deallocate@?$allocator@U_Node@?$_Tree_nod@V?$_Tmap_traits@PADHU?$less@PAD@std@@V?$allocator@U?$pair@QADH@std@@@2@$0A@@std@@@std@@@std@@QAEXPAU_Node@?$_Tree_nod@V?$_Tmap_traits@PADHU?$less@PAD@std@@V?$allocator@U?$pair@QADH@std@@@2@$0A@@std@@@2@I@Z 10006c10 f i StoredProperty.obj
 0001:00005c40       ??0const_iterator@?$_Tree@V?$_Tmap_traits@PADHU?$less@PAD@std@@V?$allocator@U?$pair@QADH@std@@@2@$0A@@std@@@std@@QAE@XZ 10006c40 f i StoredProperty.obj
 0001:00005c60       ??0const_iterator@?$_Tree@V?$_Tmap_traits@PADHU?$less@PAD@std@@V?$allocator@U?$pair@QADH@std@@@2@$0A@@std@@@std@@QAE@PAU_Node@?$_Tree_nod@V?$_Tmap_traits@PADHU?$less@PAD@std@@V?$allocator@U?$pair@QADH@std@@@2@$0A@@std@@@2@@Z 10006c60 f i StoredProperty.obj
 0001:00005c80       ??Econst_iterator@?$_Tree@V?$_Tmap_traits@PADHU?$less@PAD@std@@V?$allocator@U?$pair@QADH@std@@@2@$0A@@std@@@std@@QAEAAV012@XZ 10006c80 f i StoredProperty.obj
 0001:00005cb0       ??Fconst_iterator@?$_Tree@V?$_Tmap_traits@PADHU?$less@PAD@std@@V?$allocator@U?$pair@QADH@std@@@2@$0A@@std@@@std@@QAEAAV012@XZ 10006cb0 f i StoredProperty.obj
 0001:00005ce0       ??0?$pair@Viterator@?$_Tree@V?$_Tmap_traits@PADHU?$less@PAD@std@@V?$allocator@U?$pair@QADH@std@@@2@$0A@@std@@@std@@_N@std@@QAE@ABViterator@?$_Tree@V?$_Tmap_traits@PADHU?$less@PAD@std@@V?$allocator@U?$pair@QADH@std@@@2@$0A@@std@@@1@AB_N@Z 10006ce0 f i StoredProperty.obj
 0001:00005d10       ?max_size@?$allocator@U?$pair@QADH@std@@@std@@QBEIXZ 10006d10 f i StoredProperty.obj
 0001:00005d60       ?allocate@?$allocator@U_Node@?$_Tree_nod@V?$_Tmap_traits@PADHU?$less@PAD@std@@V?$allocator@U?$pair@QADH@std@@@2@$0A@@std@@@std@@@std@@QAEPAU_Node@?$_Tree_nod@V?$_Tmap_traits@PADHU?$less@PAD@std@@V?$allocator@U?$pair@QADH@std@@@2@$0A@@std@@@2@I@Z 10006d60 f i StoredProperty.obj
 0001:00005d90       ?_Dec@const_iterator@?$_Tree@V?$_Tmap_traits@PADHU?$less@PAD@std@@V?$allocator@U?$pair@QADH@std@@@2@$0A@@std@@@std@@QAEXXZ 10006d90 f i StoredProperty.obj
 0001:00005e90       ?_Max@?$_Tree@V?$_Tmap_traits@PADHU?$less@PAD@std@@V?$allocator@U?$pair@QADH@std@@@2@$0A@@std@@@std@@KAPAU_Node@?$_Tree_nod@V?$_Tmap_traits@PADHU?$less@PAD@std@@V?$allocator@U?$pair@QADH@std@@@2@$0A@@std@@@2@PAU342@@Z 10006e90 f i StoredProperty.obj
 0001:00005ed0       ?_Inc@const_iterator@?$_Tree@V?$_Tmap_traits@PADHU?$less@PAD@std@@V?$allocator@U?$pair@QADH@std@@@2@$0A@@std@@@std@@QAEXXZ 10006ed0 f i StoredProperty.obj
 0001:00005fa0       ?_Min@?$_Tree@V?$_Tmap_traits@PADHU?$less@PAD@std@@V?$allocator@U?$pair@QADH@std@@@2@$0A@@std@@@std@@KAPAU_Node@?$_Tree_nod@V?$_Tmap_traits@PADHU?$less@PAD@std@@V?$allocator@U?$pair@QADH@std@@@2@$0A@@std@@@2@PAU342@@Z 10006fa0 f i StoredProperty.obj
 0001:00005fe0       ??0_Node@?$_Tree_nod@V?$_Tmap_traits@PADHU?$less@PAD@std@@V?$allocator@U?$pair@QADH@std@@@2@$0A@@std@@@std@@QAE@PAU012@00ABU?$pair@QADH@2@D@Z 10006fe0 f i StoredProperty.obj
 0001:00006040       ??$_Allocate@U_Node@?$_Tree_nod@V?$_Tmap_traits@PADHU?$less@PAD@std@@V?$allocator@U?$pair@QADH@std@@@2@$0A@@std@@@std@@@std@@YAPAU_Node@?$_Tree_nod@V?$_Tmap_traits@PADHU?$less@PAD@std@@V?$allocator@U?$pair@QADH@std@@@2@$0A@@std@@@0@IPAU120@@Z 10007040 f i StoredProperty.obj
 0001:00006060       ??0?$map@PADHU?$less@PAD@std@@V?$allocator@U?$pair@QADH@std@@@2@@std@@QAE@XZ 10007060 f i StoredProperty.obj
 0001:000060a0       ??0?$_Tree@V?$_Tmap_traits@PADHU?$less@PAD@std@@V?$allocator@U?$pair@QADH@std@@@2@$0A@@std@@@std@@QAE@ABU?$less@PAD@1@ABV?$allocator@U?$pair@QADH@std@@@1@@Z 100070a0 f i StoredProperty.obj
 0001:000060f0       ??0?$allocator@U?$pair@QADH@std@@@std@@QAE@XZ 100070f0 f i StoredProperty.obj
 0001:00006110       ?_Init@?$_Tree@V?$_Tmap_traits@PADHU?$less@PAD@std@@V?$allocator@U?$pair@QADH@std@@@2@$0A@@std@@@std@@IAEXXZ 10007110 f i StoredProperty.obj
 0001:00006190       ??0?$_Tree_val@V?$_Tmap_traits@PADHU?$less@PAD@std@@V?$allocator@U?$pair@QADH@std@@@2@$0A@@std@@@std@@IAE@ABU?$less@PAD@1@V?$allocator@U?$pair@QADH@std@@@1@@Z 10007190 f i StoredProperty.obj
 0001:000061f0       ??0?$allocator@U?$pair@QADH@std@@@std@@QAE@ABV01@@Z 100071f0 f i StoredProperty.obj
 0001:00006210       ?_Buynode@?$_Tree@V?$_Tmap_traits@PADHU?$less@PAD@std@@V?$allocator@U?$pair@QADH@std@@@2@$0A@@std@@@std@@IAEPAU_Node@?$_Tree_nod@V?$_Tmap_traits@PADHU?$less@PAD@std@@V?$allocator@U?$pair@QADH@std@@@2@$0A@@std@@@2@XZ 10007210 f i StoredProperty.obj
 0001:000063a0       ?destroy@?$allocator@PAU_Node@?$_Tree_nod@V?$_Tmap_traits@PADHU?$less@PAD@std@@V?$allocator@U?$pair@QADH@std@@@2@$0A@@std@@@std@@@std@@QAEXPAPAU_Node@?$_Tree_nod@V?$_Tmap_traits@PADHU?$less@PAD@std@@V?$allocator@U?$pair@QADH@std@@@2@$0A@@std@@@2@@Z 100073a0 f i StoredProperty.obj
 0001:000063d0       ??0?$_Tree_ptr@V?$_Tmap_traits@PADHU?$less@PAD@std@@V?$allocator@U?$pair@QADH@std@@@2@$0A@@std@@@std@@IAE@ABU?$less@PAD@1@V?$allocator@U?$pair@QADH@std@@@1@@Z 100073d0 f i StoredProperty.obj
 0001:00006430       ??0?$_Tree_nod@V?$_Tmap_traits@PADHU?$less@PAD@std@@V?$allocator@U?$pair@QADH@std@@@2@$0A@@std@@@std@@IAE@ABU?$less@PAD@1@V?$allocator@U?$pair@QADH@std@@@1@@Z 10007430 f i StoredProperty.obj
 0001:00006470       ?construct@?$allocator@PAU_Node@?$_Tree_nod@V?$_Tmap_traits@PADHU?$less@PAD@std@@V?$allocator@U?$pair@QADH@std@@@2@$0A@@std@@@std@@@std@@QAEXPAPAU_Node@?$_Tree_nod@V?$_Tmap_traits@PADHU?$less@PAD@std@@V?$allocator@U?$pair@QADH@std@@@2@$0A@@std@@@2@ABQAU342@@Z 10007470 f i StoredProperty.obj
 0001:000064a0       ??0?$_Tmap_traits@PADHU?$less@PAD@std@@V?$allocator@U?$pair@QADH@std@@@2@$0A@@std@@QAE@U?$less@PAD@1@@Z 100074a0 f i StoredProperty.obj
 0001:000064c0       ??$_Destroy@PAU_Node@?$_Tree_nod@V?$_Tmap_traits@PADHU?$less@PAD@std@@V?$allocator@U?$pair@QADH@std@@@2@$0A@@std@@@std@@@std@@YAXPAPAU_Node@?$_Tree_nod@V?$_Tmap_traits@PADHU?$less@PAD@std@@V?$allocator@U?$pair@QADH@std@@@2@$0A@@std@@@0@@Z 100074c0 f i StoredProperty.obj
 0001:000064d0       ??$?0U?$pair@QADH@std@@@?$allocator@PAU_Node@?$_Tree_nod@V?$_Tmap_traits@PADHU?$less@PAD@std@@V?$allocator@U?$pair@QADH@std@@@2@$0A@@std@@@std@@@std@@QAE@ABV?$allocator@U?$pair@QADH@std@@@1@@Z 100074d0 f i StoredProperty.obj
 0001:000064f0       ??$?0U?$pair@QADH@std@@@?$allocator@U_Node@?$_Tree_nod@V?$_Tmap_traits@PADHU?$less@PAD@std@@V?$allocator@U?$pair@QADH@std@@@2@$0A@@std@@@std@@@std@@QAE@ABV?$allocator@U?$pair@QADH@std@@@1@@Z 100074f0 f i StoredProperty.obj
 0001:00006510       ??$_Construct@PAU_Node@?$_Tree_nod@V?$_Tmap_traits@PADHU?$less@PAD@std@@V?$allocator@U?$pair@QADH@std@@@2@$0A@@std@@@std@@PAU123@@std@@YAXPAPAU_Node@?$_Tree_nod@V?$_Tmap_traits@PADHU?$less@PAD@std@@V?$allocator@U?$pair@QADH@std@@@2@$0A@@std@@@0@ABQAU120@@Z 10007510 f i StoredProperty.obj
 0001:00006570       ??1?$map@PADHU?$less@PAD@std@@V?$allocator@U?$pair@QADH@std@@@2@@std@@QAE@XZ 10007570 f i StoredProperty.obj
 0001:000065a0       ??1?$_Tree@V?$_Tmap_traits@PADHU?$less@PAD@std@@V?$allocator@U?$pair@QADH@std@@@2@$0A@@std@@@std@@QAE@XZ 100075a0 f i StoredProperty.obj
 0001:000065d0       ?_Tidy@?$_Tree@V?$_Tmap_traits@PADHU?$less@PAD@std@@V?$allocator@U?$pair@QADH@std@@@2@$0A@@std@@@std@@IAEXXZ 100075d0 f i StoredProperty.obj
 0001:000066a0       ?erase@?$_Tree@V?$_Tmap_traits@PADHU?$less@PAD@std@@V?$allocator@U?$pair@QADH@std@@@2@$0A@@std@@@std@@QAE?AViterator@12@V312@0@Z 100076a0 f i StoredProperty.obj
 0001:00006760       ?erase@?$_Tree@V?$_Tmap_traits@PADHU?$less@PAD@std@@V?$allocator@U?$pair@QADH@std@@@2@$0A@@std@@@std@@QAE?AViterator@12@V312@@Z 10007760 f i StoredProperty.obj
 0001:00006f40       ??0out_of_range@std@@QAE@ABV?$basic_string@DU?$char_traits@D@std@@V?$allocator@D@2@@1@@Z 10007f40 f i StoredProperty.obj
 0001:00006f80       ??1out_of_range@std@@UAE@XZ 10007f80 f i StoredProperty.obj
 0001:00006fb0       ??_Gout_of_range@std@@UAEPAXI@Z 10007fb0 f i StoredProperty.obj
 0001:00006fb0       ??_Eout_of_range@std@@UAEPAXI@Z 10007fb0 f i StoredProperty.obj
 0001:00006ff0       ?clear@?$_Tree@V?$_Tmap_traits@PADHU?$less@PAD@std@@V?$allocator@U?$pair@QADH@std@@@2@$0A@@std@@@std@@QAEXXZ 10007ff0 f i StoredProperty.obj
 0001:00007060       ??Eiterator@?$_Tree@V?$_Tmap_traits@PADHU?$less@PAD@std@@V?$allocator@U?$pair@QADH@std@@@2@$0A@@std@@@std@@QAE?AV012@H@Z 10008060 f i StoredProperty.obj
 0001:000070d0       ??9const_iterator@?$_Tree@V?$_Tmap_traits@PADHU?$less@PAD@std@@V?$allocator@U?$pair@QADH@std@@@2@$0A@@std@@@std@@QBE_NABV012@@Z 100080d0 f i StoredProperty.obj
 0001:00007110       ??0out_of_range@std@@QAE@ABV01@@Z 10008110 f i StoredProperty.obj
 0001:00007150       ?_Erase@?$_Tree@V?$_Tmap_traits@PADHU?$less@PAD@std@@V?$allocator@U?$pair@QADH@std@@@2@$0A@@std@@@std@@IAEXPAU_Node@?$_Tree_nod@V?$_Tmap_traits@PADHU?$less@PAD@std@@V?$allocator@U?$pair@QADH@std@@@2@$0A@@std@@@2@@Z 10008150 f i StoredProperty.obj
 0001:000071f0       ?destroy@?$allocator@U_Node@?$_Tree_nod@V?$_Tmap_traits@PADHU?$less@PAD@std@@V?$allocator@U?$pair@QADH@std@@@2@$0A@@std@@@std@@@std@@QAEXPAU_Node@?$_Tree_nod@V?$_Tmap_traits@PADHU?$less@PAD@std@@V?$allocator@U?$pair@QADH@std@@@2@$0A@@std@@@2@@Z 100081f0 f i StoredProperty.obj
 0001:00007220       ??$swap@D@std@@YAXAAD0@Z   10008220 f i StoredProperty.obj
 0001:00007250       ??$_Destroy@U_Node@?$_Tree_nod@V?$_Tmap_traits@PADHU?$less@PAD@std@@V?$allocator@U?$pair@QADH@std@@@2@$0A@@std@@@std@@@std@@YAXPAU_Node@?$_Tree_nod@V?$_Tmap_traits@PADHU?$less@PAD@std@@V?$allocator@U?$pair@QADH@std@@@2@$0A@@std@@@0@@Z 10008250 f i StoredProperty.obj
 0001:00007260       ??0CDarkPeer@@QAE@W4NetState@@@Z 10008260 f   DarkPeer.obj
 0001:000074d0       ??1CDarkPeer@@UAE@XZ       100084d0 f   DarkPeer.obj
 0001:00007700       ?CancelEnumeration@CDarkPeer@@UAEXXZ 10008700 f   DarkPeer.obj
 0001:00007760       ?CancelAllEnumerations@CDarkPeer@@UAEXXZ 10008760 f   DarkPeer.obj
 0001:000077b0       ?Close@CDarkPeer@@UAEXXZ   100087b0 f   DarkPeer.obj
 0001:00007820       ?CrashCleanup@CDarkPeer@@UAEXXZ 10008820 f   DarkPeer.obj
 0001:000078a0       ?ConnectToServer@CDarkPeer@@UAE_NPBD0@Z 100088a0 f   DarkPeer.obj
 0001:00007920       ?DestroyPeer@CDarkPeer@@UAE_NKPBXK@Z 10008920 f   DarkPeer.obj
 0001:00007980       ?EnumHosts@CDarkPeer@@UAEXPBD0@Z 10008980 f   DarkPeer.obj
 0001:00007bc0       ?OnEnumerationResponse@CDarkPeer@@IAEXPAU_DPNMSG_ENUM_HOSTS_RESPONSE@@@Z 10008bc0 f   DarkPeer.obj
 0001:00007ea0       ?GetSendQueueStats@CDarkPeer@@UAE_NAAUQueueStats@@@Z 10008ea0 f   DarkPeer.obj
 0001:00007ee0       ?GetSendQueues@CDarkPeer@@UAEXXZ 10008ee0 f   DarkPeer.obj
 0001:00008080       ?GetHostConnectionInfo@CDarkPeer@@UAEJPAU_DPN_CONNECTION_INFO@@@Z 10009080 f   DarkPeer.obj
 0001:000080c0       ?GetConnectionInfo@CDarkPeer@@UAEJKPAU_DPN_CONNECTION_INFO@@@Z 100090c0 f   DarkPeer.obj
 0001:00008120       ?GetPeer@CDarkPeer@@UAEPAUIDirectPlay8Peer@@XZ 10009120 f   DarkPeer.obj
 0001:00008140       ?GetLocalID@CDarkPeer@@UAEKXZ 10009140 f   DarkPeer.obj
 0001:00008160       ?InitClient@CDarkPeer@@IAEXXZ 10009160 f   DarkPeer.obj
 0001:00008650       ?InitGlobalLink@CDarkPeer@@IAE_NXZ 10009650 f   DarkPeer.obj
 0001:00008830       ?InitServer@CDarkPeer@@IAEXXZ 10009830 f   DarkPeer.obj
 0001:00008ff0       ?GetConnectEventHandle@CDarkPeer@@UAEPAXXZ 10009ff0 f   DarkPeer.obj
 0001:00009010       ?GetPeerInfo@CDarkPeer@@UAEPAU_DPN_PLAYER_INFO@@K@Z 1000a010 f   DarkPeer.obj
 0001:00009140       ?HandleCreatePlayerMsg@CDarkPeer@@IAEXPAU_DPNMSG_CREATE_PLAYER@@@Z 1000a140 f   DarkPeer.obj
 0001:000095b0       ?StaticMessageHandler@CDarkPeer@@KGJPAXK0@Z 1000a5b0 f   DarkPeer.obj
 0001:000095f0       ?MessageHandler@CDarkPeer@@IAEJPAXK0@Z 1000a5f0 f   DarkPeer.obj
 0001:00009bc0       ?HandleNewPacket@CDarkPeer@@IAEXPAEKK@Z 1000abc0 f   DarkPeer.obj
 0001:00009cb0       ?SendToHost@CDarkPeer@@UAEXPAXKK@Z 1000acb0 f   DarkPeer.obj
 0001:00009d60       ?SendToAll@CDarkPeer@@UAEXPAXKKK@Z 1000ad60 f   DarkPeer.obj
 0001:00009db0       ?Send@CDarkPeer@@UAEXKPAXKKK@Z 1000adb0 f   DarkPeer.obj
 0001:00009f70       ?SendOP@CDarkPeer@@UAEXKPAXKKK@Z 1000af70 f   DarkPeer.obj
 0001:0000a110       ?SendChat@CDarkPeer@@UAEX_NPBD@Z 1000b110 f   DarkPeer.obj
 0001:0000a270       ?HandleGameModeEntry@CDarkPeer@@IAEXXZ 1000b270 f   DarkPeer.obj
 0001:0000a3c0       ?HandleMissionLoaded@CDarkPeer@@IAEXXZ 1000b3c0 f   DarkPeer.obj
 0001:0000a400       ?Update@CDarkPeer@@UAEXXZ  1000b400 f   DarkPeer.obj
 0001:0000a450       ?EventHandler@CDarkPeer@@UAEXHPAX@Z 1000b450 f   DarkPeer.obj
 0001:0000a4a0       ?SetPlayerInfo@CDarkPeer@@UAEJXZ 1000b4a0 f   DarkPeer.obj
 0001:0000a5c0       ?Shutdown@CDarkPeer@@UAEXXZ 1000b5c0 f   DarkPeer.obj
 0001:0000a730       ?GetSessionManager@CDarkPeer@@UAEPAVCDarkSessionManager@@XZ 1000b730 f   DarkPeer.obj
 0001:0000a750       ?GetSessionInfo@CDarkPeer@@UBEABUSessionInfo@@XZ 1000b750 f   DarkPeer.obj
 0001:0000a780       ?GetOldPlayerData@CDarkPeer@@UAEAAV?$map@KPAUDP4Data@@U?$less@K@std@@V?$allocator@U?$pair@$$CBKPAUDP4Data@@@std@@@3@@std@@XZ 1000b780 f   DarkPeer.obj
 0001:0000a7a0       ?ReceivedPlayers@CDarkPeer@@UBE_NXZ 1000b7a0 f   DarkPeer.obj
 0001:0000a7c0       ?SetReceivedPlayers@CDarkPeer@@UAEX_N@Z 1000b7c0 f   DarkPeer.obj
 0001:0000a7e0       ?PopQueuedMessage@CDarkPeer@@UAEPAUNetMessage@@XZ 1000b7e0 f   DarkPeer.obj
 0001:0000a840       ?SendHeartbeat@CDarkPeer@@UAEXXZ 1000b840 f   DarkPeer.obj
 0001:0000a870       ?Start@ConnectAttempt@@QAEXIPBDPBG@Z 1000b870 f   DarkPeer.obj
 0001:0000a930       ?Clear@ConnectAttempt@@QAEXXZ 1000b930 f   DarkPeer.obj
 0001:0000a980       ?GetPassword@ConnectAttempt@@QBEPBGXZ 1000b980 f   DarkPeer.obj
 0001:0000a9e0       ?GetPort@ConnectAttempt@@QBEIXZ 1000b9e0 f   DarkPeer.obj
 0001:0000aa00       ?GetPlayers@@YAXQAH@Z      1000ba00 f   DarkPeer.obj
 0001:0000ab00       ??0CCriticalSection@@QAE@PBD@Z 1000bb00 f i DarkPeer.obj
 0001:0000ab40       ??1CCriticalSection@@QAE@XZ 1000bb40 f i DarkPeer.obj
 0001:0000ab80       ??1IDarkNet@@UAE@XZ        1000bb80 f i DarkPeer.obj
 0001:0000aba0       ??_GIDarkNet@@UAEPAXI@Z    1000bba0 f i DarkPeer.obj
 0001:0000aba0       ??_EIDarkNet@@UAEPAXI@Z    1000bba0 f i DarkPeer.obj
 0001:0000abe0       ??_GCDarkPeer@@UAEPAXI@Z   1000bbe0 f i DarkPeer.obj
 0001:0000abe0       ??_ECDarkPeer@@UAEPAXI@Z   1000bbe0 f i DarkPeer.obj
 0001:0000ac20       ??0IDarkNet@@QAE@XZ        1000bc20 f i DarkPeer.obj
 0001:0000ac40       ??0IEventListener@@QAE@XZ  1000bc40 f i DarkPeer.obj
 0001:0000ac60       ??1?$map@KPAUDP4Data@@U?$less@K@std@@V?$allocator@U?$pair@$$CBKPAUDP4Data@@@std@@@3@@std@@QAE@XZ 1000bc60 f i DarkPeer.obj
 0001:0000ac90       ?IsActive@ConnectAttempt@@QAE_NXZ 1000bc90 f i DarkPeer.obj
 0001:0000acb0       ??0DPlayException@@QAE@PBDJ@Z 1000bcb0 f i DarkPeer.obj
 0001:0000ace0       ??0InitInfo@IGSClient@@QAE@XZ 1000bce0 f i DarkPeer.obj
 0001:0000ad60       ?Lock@CCriticalSection@@QAEXXZ 1000bd60 f i DarkPeer.obj
 0001:0000adc0       ?Unlock@CCriticalSection@@QAEXXZ 1000bdc0 f i DarkPeer.obj
 0001:0000ae20       ??0CNetMsg_StartMission@@QAE@XZ 1000be20 f i DarkPeer.obj
 0001:0000ae40       ??0NetMessage@@QAE@XZ      1000be40 f i DarkPeer.obj
 0001:0000ae80       ??0CNetMsg_Chat@@QAE@XZ    1000be80 f i DarkPeer.obj
 0001:0000aea0       ??0CNetMsg_CrcRequest@@QAE@XZ 1000bea0 f i DarkPeer.obj
 0001:0000aec0       ??C?$GlobalPointer@UIInputBinder@@@@QBEPAUIInputBinder@@XZ 1000bec0 f i DarkPeer.obj
 0001:0000aee0       ??0?$map@KPAUDP4Data@@U?$less@K@std@@V?$allocator@U?$pair@$$CBKPAUDP4Data@@@std@@@3@@std@@QAE@XZ 1000bee0 f i DarkPeer.obj
 0001:0000af20       ??A?$map@KPAUDP4Data@@U?$less@K@std@@V?$allocator@U?$pair@$$CBKPAUDP4Data@@@std@@@3@@std@@QAEAAPAUDP4Data@@ABK@Z 1000bf20 f i DarkPeer.obj
 0001:0000b010       ??1?$_Tree@V?$_Tmap_traits@KPAUDP4Data@@U?$less@K@std@@V?$allocator@U?$pair@$$CBKPAUDP4Data@@@std@@@3@$0A@@std@@@std@@QAE@XZ 1000c010 f i DarkPeer.obj
 0001:0000b040       ?begin@?$_Tree@V?$_Tmap_traits@KPAUDP4Data@@U?$less@K@std@@V?$allocator@U?$pair@$$CBKPAUDP4Data@@@std@@@3@$0A@@std@@@std@@QAE?AViterator@12@XZ 1000c040 f i DarkPeer.obj
 0001:0000b080       ?end@?$_Tree@V?$_Tmap_traits@KPAUDP4Data@@U?$less@K@std@@V?$allocator@U?$pair@$$CBKPAUDP4Data@@@std@@@3@$0A@@std@@@std@@QAE?AViterator@12@XZ 1000c080 f i DarkPeer.obj
 0001:0000b0b0       ??0?$SimpleQueue@UNetMessage@@@@QAE@XZ 1000c0b0 f i DarkPeer.obj
 0001:0000b0f0       ??1?$SimpleQueue@UNetMessage@@@@QAE@XZ 1000c0f0 f i DarkPeer.obj
 0001:0000b120       ?Clear@?$SimpleQueue@UNetMessage@@@@QAEXXZ 1000c120 f i DarkPeer.obj
 0001:0000b1c0       ?Push@?$SimpleQueue@UNetMessage@@@@QAEXPAUNetMessage@@@Z 1000c1c0 f i DarkPeer.obj
 0001:0000b2f0       ?Pop@?$SimpleQueue@UNetMessage@@@@QAEPAUNetMessage@@XZ 1000c2f0 f i DarkPeer.obj
 0001:0000b380       ?GetSize@?$SimpleQueue@UNetMessage@@@@QAEHXZ 1000c380 f i DarkPeer.obj
 0001:0000b3a0       ??Citerator@?$_Tree@V?$_Tmap_traits@KPAUDP4Data@@U?$less@K@std@@V?$allocator@U?$pair@$$CBKPAUDP4Data@@@std@@@3@$0A@@std@@@std@@QBEPAU?$pair@$$CBKPAUDP4Data@@@2@XZ 1000c3a0 f i DarkPeer.obj
 0001:0000b3d0       ??Eiterator@?$_Tree@V?$_Tmap_traits@KPAUDP4Data@@U?$less@K@std@@V?$allocator@U?$pair@$$CBKPAUDP4Data@@@std@@@3@$0A@@std@@@std@@QAE?AV012@H@Z 1000c3d0 f i DarkPeer.obj
 0001:0000b440       ??9const_iterator@?$_Tree@V?$_Tmap_traits@KPAUDP4Data@@U?$less@K@std@@V?$allocator@U?$pair@$$CBKPAUDP4Data@@@std@@@3@$0A@@std@@@std@@QBE_NABV012@@Z 1000c440 f i DarkPeer.obj
 0001:0000b480       ?_Key@?$_Tree@V?$_Tmap_traits@KPAUDP4Data@@U?$less@K@std@@V?$allocator@U?$pair@$$CBKPAUDP4Data@@@std@@@3@$0A@@std@@@std@@KAABKPAU_Node@?$_Tree_nod@V?$_Tmap_traits@KPAUDP4Data@@U?$less@K@std@@V?$allocator@U?$pair@$$CBKPAUDP4Data@@@std@@@3@$0A@@std@@@2@@Z 1000c480 f i DarkPeer.obj
 0001:0000b4b0       ??0?$_Tree@V?$_Tmap_traits@KPAUDP4Data@@U?$less@K@std@@V?$allocator@U?$pair@$$CBKPAUDP4Data@@@std@@@3@$0A@@std@@@std@@QAE@ABU?$less@K@1@ABV?$allocator@U?$pair@$$CBKPAUDP4Data@@@std@@@1@@Z 1000c4b0 f i DarkPeer.obj
 0001:0000b500       ?insert@?$_Tree@V?$_Tmap_traits@KPAUDP4Data@@U?$less@K@std@@V?$allocator@U?$pair@$$CBKPAUDP4Data@@@std@@@3@$0A@@std@@@std@@QAE?AViterator@12@V312@ABU?$pair@$$CBKPAUDP4Data@@@2@@Z 1000c500 f i DarkPeer.obj
 0001:0000bb10       ?Str@NString@@QBEPBDXZ     1000cb10 f i DarkPeer.obj
 0001:0000bb30       ?lower_bound@?$_Tree@V?$_Tmap_traits@KPAUDP4Data@@U?$less@K@std@@V?$allocator@U?$pair@$$CBKPAUDP4Data@@@std@@@3@$0A@@std@@@std@@QAE?AViterator@12@ABK@Z 1000cb30 f i DarkPeer.obj
 0001:0000bb70       ?_Lmost@?$_Tree@V?$_Tmap_traits@KPAUDP4Data@@U?$less@K@std@@V?$allocator@U?$pair@$$CBKPAUDP4Data@@@std@@@3@$0A@@std@@@std@@IAEAAPAU_Node@?$_Tree_nod@V?$_Tmap_traits@KPAUDP4Data@@U?$less@K@std@@V?$allocator@U?$pair@$$CBKPAUDP4Data@@@std@@@3@$0A@@std@@@2@XZ 1000cb70 f i DarkPeer.obj
 0001:0000bba0       ?_Tidy@?$_Tree@V?$_Tmap_traits@KPAUDP4Data@@U?$less@K@std@@V?$allocator@U?$pair@$$CBKPAUDP4Data@@@std@@@3@$0A@@std@@@std@@IAEXXZ 1000cba0 f i DarkPeer.obj
 0001:0000bc70       ??0?$allocator@U?$pair@$$CBKPAUDP4Data@@@std@@@std@@QAE@XZ 1000cc70 f i DarkPeer.obj
 0001:0000bc90       ??R?$less@K@std@@QBE_NABK0@Z 1000cc90 f i DarkPeer.obj
 0001:0000bcc0       ??0iterator@?$_Tree@V?$_Tmap_traits@KPAUDP4Data@@U?$less@K@std@@V?$allocator@U?$pair@$$CBKPAUDP4Data@@@std@@@3@$0A@@std@@@std@@QAE@PAU_Node@?$_Tree_nod@V?$_Tmap_traits@KPAUDP4Data@@U?$less@K@std@@V?$allocator@U?$pair@$$CBKPAUDP4Data@@@std@@@3@$0A@@std@@@2@@Z 1000ccc0 f i DarkPeer.obj
 0001:0000bcf0       ??Diterator@?$_Tree@V?$_Tmap_traits@KPAUDP4Data@@U?$less@K@std@@V?$allocator@U?$pair@$$CBKPAUDP4Data@@@std@@@3@$0A@@std@@@std@@QBEAAU?$pair@$$CBKPAUDP4Data@@@2@XZ 1000ccf0 f i DarkPeer.obj
 0001:0000bd20       ??Eiterator@?$_Tree@V?$_Tmap_traits@KPAUDP4Data@@U?$less@K@std@@V?$allocator@U?$pair@$$CBKPAUDP4Data@@@std@@@3@$0A@@std@@@std@@QAEAAV012@XZ 1000cd20 f i DarkPeer.obj
 0001:0000bd50       ??8const_iterator@?$_Tree@V?$_Tmap_traits@KPAUDP4Data@@U?$less@K@std@@V?$allocator@U?$pair@$$CBKPAUDP4Data@@@std@@@3@$0A@@std@@@std@@QBE_NABV012@@Z 1000cd50 f i DarkPeer.obj
 0001:0000bd80       ?_Mynode@const_iterator@?$_Tree@V?$_Tmap_traits@KPAUDP4Data@@U?$less@K@std@@V?$allocator@U?$pair@$$CBKPAUDP4Data@@@std@@@3@$0A@@std@@@std@@QBEPAU_Node@?$_Tree_nod@V?$_Tmap_traits@KPAUDP4Data@@U?$less@K@std@@V?$allocator@U?$pair@$$CBKPAUDP4Data@@@std@@@3@$0A@@std@@@3@XZ 1000cd80 f i DarkPeer.obj
 0001:0000bda0       ??0?$pair@$$CBKPAUDP4Data@@@std@@QAE@ABKABQAUDP4Data@@@Z 1000cda0 f i DarkPeer.obj
 0001:0000bdd0       ??0Element@?$SimpleQueue@UNetMessage@@@@QAE@PAUNetMessage@@@Z 1000cdd0 f i DarkPeer.obj
 0001:0000be00       ?_Isnil@?$_Tree@V?$_Tmap_traits@KPAUDP4Data@@U?$less@K@std@@V?$allocator@U?$pair@$$CBKPAUDP4Data@@@std@@@3@$0A@@std@@@std@@KAAADPAU_Node@?$_Tree_nod@V?$_Tmap_traits@KPAUDP4Data@@U?$less@K@std@@V?$allocator@U?$pair@$$CBKPAUDP4Data@@@std@@@3@$0A@@std@@@2@@Z 1000ce00 f i DarkPeer.obj
 0001:0000be10       ?_Left@?$_Tree@V?$_Tmap_traits@KPAUDP4Data@@U?$less@K@std@@V?$allocator@U?$pair@$$CBKPAUDP4Data@@@std@@@3@$0A@@std@@@std@@KAAAPAU_Node@?$_Tree_nod@V?$_Tmap_traits@KPAUDP4Data@@U?$less@K@std@@V?$allocator@U?$pair@$$CBKPAUDP4Data@@@std@@@3@$0A@@std@@@2@PAU342@@Z 1000ce10 f i DarkPeer.obj
 0001:0000be20       ?_Parent@?$_Tree@V?$_Tmap_traits@KPAUDP4Data@@U?$less@K@std@@V?$allocator@U?$pair@$$CBKPAUDP4Data@@@std@@@3@$0A@@std@@@std@@KAAAPAU_Node@?$_Tree_nod@V?$_Tmap_traits@KPAUDP4Data@@U?$less@K@std@@V?$allocator@U?$pair@$$CBKPAUDP4Data@@@std@@@3@$0A@@std@@@2@PAU342@@Z 1000ce20 f i DarkPeer.obj
 0001:0000be30       ?_Right@?$_Tree@V?$_Tmap_traits@KPAUDP4Data@@U?$less@K@std@@V?$allocator@U?$pair@$$CBKPAUDP4Data@@@std@@@3@$0A@@std@@@std@@KAAAPAU_Node@?$_Tree_nod@V?$_Tmap_traits@KPAUDP4Data@@U?$less@K@std@@V?$allocator@U?$pair@$$CBKPAUDP4Data@@@std@@@3@$0A@@std@@@2@PAU342@@Z 1000ce30 f i DarkPeer.obj
 0001:0000be40       ?_Myval@?$_Tree@V?$_Tmap_traits@KPAUDP4Data@@U?$less@K@std@@V?$allocator@U?$pair@$$CBKPAUDP4Data@@@std@@@3@$0A@@std@@@std@@KAAAU?$pair@$$CBKPAUDP4Data@@@2@PAU_Node@?$_Tree_nod@V?$_Tmap_traits@KPAUDP4Data@@U?$less@K@std@@V?$allocator@U?$pair@$$CBKPAUDP4Data@@@std@@@3@$0A@@std@@@2@@Z 1000ce40 f i DarkPeer.obj
 0001:0000be50       ?size@?$_Tree@V?$_Tmap_traits@KPAUDP4Data@@U?$less@K@std@@V?$allocator@U?$pair@$$CBKPAUDP4Data@@@std@@@3@$0A@@std@@@std@@QBEIXZ 1000ce50 f i DarkPeer.obj
 0001:0000be70       ?insert@?$_Tree@V?$_Tmap_traits@KPAUDP4Data@@U?$less@K@std@@V?$allocator@U?$pair@$$CBKPAUDP4Data@@@std@@@3@$0A@@std@@@std@@QAE?AU?$pair@Viterator@?$_Tree@V?$_Tmap_traits@KPAUDP4Data@@U?$less@K@std@@V?$allocator@U?$pair@$$CBKPAUDP4Data@@@std@@@3@$0A@@std@@@std@@_N@2@ABU?$pair@$$CBKPAUDP4Data@@@2@@Z 1000ce70 f i DarkPeer.obj
 0001:0000c070       ?erase@?$_Tree@V?$_Tmap_traits@KPAUDP4Data@@U?$less@K@std@@V?$allocator@U?$pair@$$CBKPAUDP4Data@@@std@@@3@$0A@@std@@@std@@QAE?AViterator@12@V312@0@Z 1000d070 f i DarkPeer.obj
 0001:0000c130       ?_Init@?$_Tree@V?$_Tmap_traits@KPAUDP4Data@@U?$less@K@std@@V?$allocator@U?$pair@$$CBKPAUDP4Data@@@std@@@3@$0A@@std@@@std@@IAEXXZ 1000d130 f i DarkPeer.obj
 0001:0000c1b0       ?_Insert@?$_Tree@V?$_Tmap_traits@KPAUDP4Data@@U?$less@K@std@@V?$allocator@U?$pair@$$CBKPAUDP4Data@@@std@@@3@$0A@@std@@@std@@IAE?AViterator@12@_NPAU_Node@?$_Tree_nod@V?$_Tmap_traits@KPAUDP4Data@@U?$less@K@std@@V?$allocator@U?$pair@$$CBKPAUDP4Data@@@std@@@3@$0A@@std@@@2@ABU?$pair@$$CBKPAUDP4Data@@@2@@Z 1000d1b0 f i DarkPeer.obj
 0001:0000c630       ?_Lbound@?$_Tree@V?$_Tmap_traits@KPAUDP4Data@@U?$less@K@std@@V?$allocator@U?$pair@$$CBKPAUDP4Data@@@std@@@3@$0A@@std@@@std@@IBEPAU_Node@?$_Tree_nod@V?$_Tmap_traits@KPAUDP4Data@@U?$less@K@std@@V?$allocator@U?$pair@$$CBKPAUDP4Data@@@std@@@3@$0A@@std@@@2@ABK@Z 1000d630 f i DarkPeer.obj
 0001:0000c6e0       ?_Rmost@?$_Tree@V?$_Tmap_traits@KPAUDP4Data@@U?$less@K@std@@V?$allocator@U?$pair@$$CBKPAUDP4Data@@@std@@@3@$0A@@std@@@std@@IAEAAPAU_Node@?$_Tree_nod@V?$_Tmap_traits@KPAUDP4Data@@U?$less@K@std@@V?$allocator@U?$pair@$$CBKPAUDP4Data@@@std@@@3@$0A@@std@@@2@XZ 1000d6e0 f i DarkPeer.obj
 0001:0000c710       ??0?$_Tree_val@V?$_Tmap_traits@KPAUDP4Data@@U?$less@K@std@@V?$allocator@U?$pair@$$CBKPAUDP4Data@@@std@@@3@$0A@@std@@@std@@IAE@ABU?$less@K@1@V?$allocator@U?$pair@$$CBKPAUDP4Data@@@std@@@1@@Z 1000d710 f i DarkPeer.obj
 0001:0000c770       ?_Kfn@?$_Tmap_traits@KPAUDP4Data@@U?$less@K@std@@V?$allocator@U?$pair@$$CBKPAUDP4Data@@@std@@@3@$0A@@std@@SAABKABU?$pair@$$CBKPAUDP4Data@@@2@@Z 1000d770 f i DarkPeer.obj
 0001:0000c780       ??0?$allocator@U?$pair@$$CBKPAUDP4Data@@@std@@@std@@QAE@ABV01@@Z 1000d780 f i DarkPeer.obj
 0001:0000c7a0       ?deallocate@?$allocator@U_Node@?$_Tree_nod@V?$_Tmap_traits@KPAUDP4Data@@U?$less@K@std@@V?$allocator@U?$pair@$$CBKPAUDP4Data@@@std@@@3@$0A@@std@@@std@@@std@@QAEXPAU_Node@?$_Tree_nod@V?$_Tmap_traits@KPAUDP4Data@@U?$less@K@std@@V?$allocator@U?$pair@$$CBKPAUDP4Data@@@std@@@3@$0A@@std@@@2@I@Z 1000d7a0 f i DarkPeer.obj
 0001:0000c7d0       ?destroy@?$allocator@PAU_Node@?$_Tree_nod@V?$_Tmap_traits@KPAUDP4Data@@U?$less@K@std@@V?$allocator@U?$pair@$$CBKPAUDP4Data@@@std@@@3@$0A@@std@@@std@@@std@@QAEXPAPAU_Node@?$_Tree_nod@V?$_Tmap_traits@KPAUDP4Data@@U?$less@K@std@@V?$allocator@U?$pair@$$CBKPAUDP4Data@@@std@@@3@$0A@@std@@@2@@Z 1000d7d0 f i DarkPeer.obj
 0001:0000c800       ??0iterator@?$_Tree@V?$_Tmap_traits@KPAUDP4Data@@U?$less@K@std@@V?$allocator@U?$pair@$$CBKPAUDP4Data@@@std@@@3@$0A@@std@@@std@@QAE@XZ 1000d800 f i DarkPeer.obj
 0001:0000c830       ??Fiterator@?$_Tree@V?$_Tmap_traits@KPAUDP4Data@@U?$less@K@std@@V?$allocator@U?$pair@$$CBKPAUDP4Data@@@std@@@3@$0A@@std@@@std@@QAEAAV012@XZ 1000d830 f i DarkPeer.obj
 0001:0000c860       ??0const_iterator@?$_Tree@V?$_Tmap_traits@KPAUDP4Data@@U?$less@K@std@@V?$allocator@U?$pair@$$CBKPAUDP4Data@@@std@@@3@$0A@@std@@@std@@QAE@PAU_Node@?$_Tree_nod@V?$_Tmap_traits@KPAUDP4Data@@U?$less@K@std@@V?$allocator@U?$pair@$$CBKPAUDP4Data@@@std@@@3@$0A@@std@@@2@@Z 1000d860 f i DarkPeer.obj
 0001:0000c880       ??Dconst_iterator@?$_Tree@V?$_Tmap_traits@KPAUDP4Data@@U?$less@K@std@@V?$allocator@U?$pair@$$CBKPAUDP4Data@@@std@@@3@$0A@@std@@@std@@QBEABU?$pair@$$CBKPAUDP4Data@@@2@XZ 1000d880 f i DarkPeer.obj
 0001:0000c8b0       ??Econst_iterator@?$_Tree@V?$_Tmap_traits@KPAUDP4Data@@U?$less@K@std@@V?$allocator@U?$pair@$$CBKPAUDP4Data@@@std@@@3@$0A@@std@@@std@@QAEAAV012@XZ 1000d8b0 f i DarkPeer.obj
 0001:0000c8e0       ?_Color@?$_Tree@V?$_Tmap_traits@KPAUDP4Data@@U?$less@K@std@@V?$allocator@U?$pair@$$CBKPAUDP4Data@@@std@@@3@$0A@@std@@@std@@KAAADPAU_Node@?$_Tree_nod@V?$_Tmap_traits@KPAUDP4Data@@U?$less@K@std@@V?$allocator@U?$pair@$$CBKPAUDP4Data@@@std@@@3@$0A@@std@@@2@@Z 1000d8e0 f i DarkPeer.obj
 0001:0000c8f0       ?max_size@?$_Tree@V?$_Tmap_traits@KPAUDP4Data@@U?$less@K@std@@V?$allocator@U?$pair@$$CBKPAUDP4Data@@@std@@@3@$0A@@std@@@std@@QBEIXZ 1000d8f0 f i DarkPeer.obj
 0001:0000c920       ?erase@?$_Tree@V?$_Tmap_traits@KPAUDP4Data@@U?$less@K@std@@V?$allocator@U?$pair@$$CBKPAUDP4Data@@@std@@@3@$0A@@std@@@std@@QAE?AViterator@12@V312@@Z 1000d920 f i DarkPeer.obj
 0001:0000d100       ?clear@?$_Tree@V?$_Tmap_traits@KPAUDP4Data@@U?$less@K@std@@V?$allocator@U?$pair@$$CBKPAUDP4Data@@@std@@@3@$0A@@std@@@std@@QAEXXZ 1000e100 f i DarkPeer.obj
 0001:0000d170       ?_Lrotate@?$_Tree@V?$_Tmap_traits@KPAUDP4Data@@U?$less@K@std@@V?$allocator@U?$pair@$$CBKPAUDP4Data@@@std@@@3@$0A@@std@@@std@@IAEXPAU_Node@?$_Tree_nod@V?$_Tmap_traits@KPAUDP4Data@@U?$less@K@std@@V?$allocator@U?$pair@$$CBKPAUDP4Data@@@std@@@3@$0A@@std@@@2@@Z 1000e170 f i DarkPeer.obj
 0001:0000d2c0       ?_Root@?$_Tree@V?$_Tmap_traits@KPAUDP4Data@@U?$less@K@std@@V?$allocator@U?$pair@$$CBKPAUDP4Data@@@std@@@3@$0A@@std@@@std@@IAEAAPAU_Node@?$_Tree_nod@V?$_Tmap_traits@KPAUDP4Data@@U?$less@K@std@@V?$allocator@U?$pair@$$CBKPAUDP4Data@@@std@@@3@$0A@@std@@@2@XZ 1000e2c0 f i DarkPeer.obj
 0001:0000d2f0       ?_Root@?$_Tree@V?$_Tmap_traits@KPAUDP4Data@@U?$less@K@std@@V?$allocator@U?$pair@$$CBKPAUDP4Data@@@std@@@3@$0A@@std@@@std@@IBEAAPAU_Node@?$_Tree_nod@V?$_Tmap_traits@KPAUDP4Data@@U?$less@K@std@@V?$allocator@U?$pair@$$CBKPAUDP4Data@@@std@@@3@$0A@@std@@@2@XZ 1000e2f0 f i DarkPeer.obj
 0001:0000d320       ?_Rrotate@?$_Tree@V?$_Tmap_traits@KPAUDP4Data@@U?$less@K@std@@V?$allocator@U?$pair@$$CBKPAUDP4Data@@@std@@@3@$0A@@std@@@std@@IAEXPAU_Node@?$_Tree_nod@V?$_Tmap_traits@KPAUDP4Data@@U?$less@K@std@@V?$allocator@U?$pair@$$CBKPAUDP4Data@@@std@@@3@$0A@@std@@@2@@Z 1000e320 f i DarkPeer.obj
 0001:0000d470       ?_Buynode@?$_Tree@V?$_Tmap_traits@KPAUDP4Data@@U?$less@K@std@@V?$allocator@U?$pair@$$CBKPAUDP4Data@@@std@@@3@$0A@@std@@@std@@IAEPAU_Node@?$_Tree_nod@V?$_Tmap_traits@KPAUDP4Data@@U?$less@K@std@@V?$allocator@U?$pair@$$CBKPAUDP4Data@@@std@@@3@$0A@@std@@@2@XZ 1000e470 f i DarkPeer.obj
 0001:0000d600       ?_Buynode@?$_Tree@V?$_Tmap_traits@KPAUDP4Data@@U?$less@K@std@@V?$allocator@U?$pair@$$CBKPAUDP4Data@@@std@@@3@$0A@@std@@@std@@IAEPAU_Node@?$_Tree_nod@V?$_Tmap_traits@KPAUDP4Data@@U?$less@K@std@@V?$allocator@U?$pair@$$CBKPAUDP4Data@@@std@@@3@$0A@@std@@@2@PAU342@00ABU?$pair@$$CBKPAUDP4Data@@@2@D@Z 1000e600 f i DarkPeer.obj
 0001:0000d6f0       ??0?$_Tree_ptr@V?$_Tmap_traits@KPAUDP4Data@@U?$less@K@std@@V?$allocator@U?$pair@$$CBKPAUDP4Data@@@std@@@3@$0A@@std@@@std@@IAE@ABU?$less@K@1@V?$allocator@U?$pair@$$CBKPAUDP4Data@@@std@@@1@@Z 1000e6f0 f i DarkPeer.obj
 0001:0000d750       ??0const_iterator@?$_Tree@V?$_Tmap_traits@KPAUDP4Data@@U?$less@K@std@@V?$allocator@U?$pair@$$CBKPAUDP4Data@@@std@@@3@$0A@@std@@@std@@QAE@XZ 1000e750 f i DarkPeer.obj
 0001:0000d770       ??Fconst_iterator@?$_Tree@V?$_Tmap_traits@KPAUDP4Data@@U?$less@K@std@@V?$allocator@U?$pair@$$CBKPAUDP4Data@@@std@@@3@$0A@@std@@@std@@QAEAAV012@XZ 1000e770 f i DarkPeer.obj
 0001:0000d7a0       ?_Inc@const_iterator@?$_Tree@V?$_Tmap_traits@KPAUDP4Data@@U?$less@K@std@@V?$allocator@U?$pair@$$CBKPAUDP4Data@@@std@@@3@$0A@@std@@@std@@QAEXXZ 1000e7a0 f i DarkPeer.obj
 0001:0000d870       ??0?$pair@Viterator@?$_Tree@V?$_Tmap_traits@KPAUDP4Data@@U?$less@K@std@@V?$allocator@U?$pair@$$CBKPAUDP4Data@@@std@@@3@$0A@@std@@@std@@_N@std@@QAE@ABViterator@?$_Tree@V?$_Tmap_traits@KPAUDP4Data@@U?$less@K@std@@V?$allocator@U?$pair@$$CBKPAUDP4Data@@@std@@@3@$0A@@std@@@1@AB_N@Z 1000e870 f i DarkPeer.obj
 0001:0000d8a0       ?_Erase@?$_Tree@V?$_Tmap_traits@KPAUDP4Data@@U?$less@K@std@@V?$allocator@U?$pair@$$CBKPAUDP4Data@@@std@@@3@$0A@@std@@@std@@IAEXPAU_Node@?$_Tree_nod@V?$_Tmap_traits@KPAUDP4Data@@U?$less@K@std@@V?$allocator@U?$pair@$$CBKPAUDP4Data@@@std@@@3@$0A@@std@@@2@@Z 1000e8a0 f i DarkPeer.obj
 0001:0000d940       ?_Max@?$_Tree@V?$_Tmap_traits@KPAUDP4Data@@U?$less@K@std@@V?$allocator@U?$pair@$$CBKPAUDP4Data@@@std@@@3@$0A@@std@@@std@@KAPAU_Node@?$_Tree_nod@V?$_Tmap_traits@KPAUDP4Data@@U?$less@K@std@@V?$allocator@U?$pair@$$CBKPAUDP4Data@@@std@@@3@$0A@@std@@@2@PAU342@@Z 1000e940 f i DarkPeer.obj
 0001:0000d980       ?_Min@?$_Tree@V?$_Tmap_traits@KPAUDP4Data@@U?$less@K@std@@V?$allocator@U?$pair@$$CBKPAUDP4Data@@@std@@@3@$0A@@std@@@std@@KAPAU_Node@?$_Tree_nod@V?$_Tmap_traits@KPAUDP4Data@@U?$less@K@std@@V?$allocator@U?$pair@$$CBKPAUDP4Data@@@std@@@3@$0A@@std@@@2@PAU342@@Z 1000e980 f i DarkPeer.obj
 0001:0000d9c0       ??0?$_Tree_nod@V?$_Tmap_traits@KPAUDP4Data@@U?$less@K@std@@V?$allocator@U?$pair@$$CBKPAUDP4Data@@@std@@@3@$0A@@std@@@std@@IAE@ABU?$less@K@1@V?$allocator@U?$pair@$$CBKPAUDP4Data@@@std@@@1@@Z 1000e9c0 f i DarkPeer.obj
 0001:0000da00       ?max_size@?$allocator@U?$pair@$$CBKPAUDP4Data@@@std@@@std@@QBEIXZ 1000ea00 f i DarkPeer.obj
 0001:0000da50       ?allocate@?$allocator@U_Node@?$_Tree_nod@V?$_Tmap_traits@KPAUDP4Data@@U?$less@K@std@@V?$allocator@U?$pair@$$CBKPAUDP4Data@@@std@@@3@$0A@@std@@@std@@@std@@QAEPAU_Node@?$_Tree_nod@V?$_Tmap_traits@KPAUDP4Data@@U?$less@K@std@@V?$allocator@U?$pair@$$CBKPAUDP4Data@@@std@@@3@$0A@@std@@@2@I@Z 1000ea50 f i DarkPeer.obj
 0001:0000da80       ?destroy@?$allocator@U_Node@?$_Tree_nod@V?$_Tmap_traits@KPAUDP4Data@@U?$less@K@std@@V?$allocator@U?$pair@$$CBKPAUDP4Data@@@std@@@3@$0A@@std@@@std@@@std@@QAEXPAU_Node@?$_Tree_nod@V?$_Tmap_traits@KPAUDP4Data@@U?$less@K@std@@V?$allocator@U?$pair@$$CBKPAUDP4Data@@@std@@@3@$0A@@std@@@2@@Z 1000ea80 f i DarkPeer.obj
 0001:0000dab0       ?construct@?$allocator@PAU_Node@?$_Tree_nod@V?$_Tmap_traits@KPAUDP4Data@@U?$less@K@std@@V?$allocator@U?$pair@$$CBKPAUDP4Data@@@std@@@3@$0A@@std@@@std@@@std@@QAEXPAPAU_Node@?$_Tree_nod@V?$_Tmap_traits@KPAUDP4Data@@U?$less@K@std@@V?$allocator@U?$pair@$$CBKPAUDP4Data@@@std@@@3@$0A@@std@@@2@ABQAU342@@Z 1000eab0 f i DarkPeer.obj
 0001:0000dae0       ?_Dec@const_iterator@?$_Tree@V?$_Tmap_traits@KPAUDP4Data@@U?$less@K@std@@V?$allocator@U?$pair@$$CBKPAUDP4Data@@@std@@@3@$0A@@std@@@std@@QAEXXZ 1000eae0 f i DarkPeer.obj
 0001:0000dbe0       ??0_Node@?$_Tree_nod@V?$_Tmap_traits@KPAUDP4Data@@U?$less@K@std@@V?$allocator@U?$pair@$$CBKPAUDP4Data@@@std@@@3@$0A@@std@@@std@@QAE@PAU012@00ABU?$pair@$$CBKPAUDP4Data@@@2@D@Z 1000ebe0 f i DarkPeer.obj
 0001:0000dc40       ??0?$_Tmap_traits@KPAUDP4Data@@U?$less@K@std@@V?$allocator@U?$pair@$$CBKPAUDP4Data@@@std@@@3@$0A@@std@@QAE@U?$less@K@1@@Z 1000ec40 f i DarkPeer.obj
 0001:0000dc60       ??$_Destroy@PAU_Node@?$_Tree_nod@V?$_Tmap_traits@KPAUDP4Data@@U?$less@K@std@@V?$allocator@U?$pair@$$CBKPAUDP4Data@@@std@@@3@$0A@@std@@@std@@@std@@YAXPAPAU_Node@?$_Tree_nod@V?$_Tmap_traits@KPAUDP4Data@@U?$less@K@std@@V?$allocator@U?$pair@$$CBKPAUDP4Data@@@std@@@3@$0A@@std@@@0@@Z 1000ec60 f i DarkPeer.obj
 0001:0000dc70       ??$?0U?$pair@$$CBKPAUDP4Data@@@std@@@?$allocator@PAU_Node@?$_Tree_nod@V?$_Tmap_traits@KPAUDP4Data@@U?$less@K@std@@V?$allocator@U?$pair@$$CBKPAUDP4Data@@@std@@@3@$0A@@std@@@std@@@std@@QAE@ABV?$allocator@U?$pair@$$CBKPAUDP4Data@@@std@@@1@@Z 1000ec70 f i DarkPeer.obj
 0001:0000dc90       ??$?0U?$pair@$$CBKPAUDP4Data@@@std@@@?$allocator@U_Node@?$_Tree_nod@V?$_Tmap_traits@KPAUDP4Data@@U?$less@K@std@@V?$allocator@U?$pair@$$CBKPAUDP4Data@@@std@@@3@$0A@@std@@@std@@@std@@QAE@ABV?$allocator@U?$pair@$$CBKPAUDP4Data@@@std@@@1@@Z 1000ec90 f i DarkPeer.obj
 0001:0000dcb0       ??$_Allocate@U_Node@?$_Tree_nod@V?$_Tmap_traits@KPAUDP4Data@@U?$less@K@std@@V?$allocator@U?$pair@$$CBKPAUDP4Data@@@std@@@3@$0A@@std@@@std@@@std@@YAPAU_Node@?$_Tree_nod@V?$_Tmap_traits@KPAUDP4Data@@U?$less@K@std@@V?$allocator@U?$pair@$$CBKPAUDP4Data@@@std@@@3@$0A@@std@@@0@IPAU120@@Z 1000ecb0 f i DarkPeer.obj
 0001:0000dcd0       ??$_Destroy@U_Node@?$_Tree_nod@V?$_Tmap_traits@KPAUDP4Data@@U?$less@K@std@@V?$allocator@U?$pair@$$CBKPAUDP4Data@@@std@@@3@$0A@@std@@@std@@@std@@YAXPAU_Node@?$_Tree_nod@V?$_Tmap_traits@KPAUDP4Data@@U?$less@K@std@@V?$allocator@U?$pair@$$CBKPAUDP4Data@@@std@@@3@$0A@@std@@@0@@Z 1000ecd0 f i DarkPeer.obj
 0001:0000dce0       ??$_Construct@PAU_Node@?$_Tree_nod@V?$_Tmap_traits@KPAUDP4Data@@U?$less@K@std@@V?$allocator@U?$pair@$$CBKPAUDP4Data@@@std@@@3@$0A@@std@@@std@@PAU123@@std@@YAXPAPAU_Node@?$_Tree_nod@V?$_Tmap_traits@KPAUDP4Data@@U?$less@K@std@@V?$allocator@U?$pair@$$CBKPAUDP4Data@@@std@@@3@$0A@@std@@@0@ABQAU120@@Z 1000ece0 f i DarkPeer.obj
 0001:0000dd40       ?EventHandler@CDarkPeer@@W3AEXHPAX@Z 1000ed40 f i DarkPeer.obj
 0001:0000dd50       ??0ConnectAttempt@@QAE@XZ  1000ed50 f i DarkPeer.obj
 0001:0000ddd0       ??1ConnectAttempt@@QAE@XZ  1000edd0 f i DarkPeer.obj
 0001:0000de50       ??0CDarkSessionManager@@QAE@PAUIDirectPlay8Peer@@@Z 1000ee50 f   DarkSessionManager.obj
 0001:0000df20       ??1CDarkSessionManager@@UAE@XZ 1000ef20 f   DarkSessionManager.obj
 0001:0000dfb0       ?SetApplicationDesc@CDarkSessionManager@@QAEXPBU_DPN_APPLICATION_DESC@@@Z 1000efb0 f   DarkSessionManager.obj
 0001:0000e050       ?GetApplicationDesc@CDarkSessionManager@@QAEPBU_DPN_APPLICATION_DESC@@XZ 1000f050 f   DarkSessionManager.obj
 0001:0000e080       ?DPGetApplicationDesc@CDarkSessionManager@@IAEXXZ 1000f080 f   DarkSessionManager.obj
 0001:0000e1f0       ?SetSessionInfo@CDarkSessionManager@@QAEXPBU_DPN_APPLICATION_DESC@@@Z 1000f1f0 f   DarkSessionManager.obj
 0001:0000e2e0       ?GetSessionInfo@CDarkSessionManager@@QBEABUSessionInfo@@XZ 1000f2e0 f   DarkSessionManager.obj
 0001:0000e300       ?GetServerName@CDarkSessionManager@@QBEPBDXZ 1000f300 f   DarkSessionManager.obj
 0001:0000e330       ?UpdateSessionInfo@CDarkSessionManager@@QAEXXZ 1000f330 f   DarkSessionManager.obj
 0001:0000e4e0       ??_ECDarkSessionManager@@UAEPAXI@Z 1000f4e0 f i DarkSessionManager.obj
 0001:0000e4e0       ??_GCDarkSessionManager@@UAEPAXI@Z 1000f4e0 f i DarkSessionManager.obj
 0001:0000e520       ??0?$IPtr@UIQuestData@@@@QAE@XZ 1000f520 f i DarkSessionManager.obj
 0001:0000e540       ??4?$IPtr@UIQuestData@@@@QAEABV0@PAX@Z 1000f540 f i DarkSessionManager.obj
 0001:0000e560       ??BNString@@QBEPBDXZ       1000f560 f i DarkSessionManager.obj
 0001:0000e590       ?Send@CMarshalled@@UAEHKK@Z 1000f590 f   Marshal.obj
 0001:0000e660       ?Rebuild@CMarshalled@@UAEXPAE@Z 1000f660 f   Marshal.obj
 0001:0000e6f0       ?CopyGlobalFromObj@CDarkMarshalBuffer@@QAEXH@Z 1000f6f0 f   Marshal.obj
 0001:0000e790       ?CopyReactionEvent@CDarkMarshalBuffer@@QAEXABUsReactionEvent@@@Z 1000f790 f   Marshal.obj
 0001:0000e7d0       ?GetReactionEvent@CDarkMarshalBuffer@@QAEXAAUsReactionEvent@@@Z 1000f7d0 f   Marshal.obj
 0001:0000e820       ?CopyMultiParm@CDarkMarshalBuffer@@QAEXABUsMultiParm@@@Z 1000f820 f   Marshal.obj
 0001:0000e860       ?CopyChainedEvent@CDarkMarshalBuffer@@QAEXABUsChainedEvent@@@Z 1000f860 f   Marshal.obj
 0001:0000e8f0       ?GetChainedEvent@CDarkMarshalBuffer@@QAEXAAUsChainedEvent@@@Z 1000f8f0 f   Marshal.obj
 0001:0000e950       ?CopyReactionParam@CDarkMarshalBuffer@@QAEXABUsReactionParam@@@Z 1000f950 f   Marshal.obj
 0001:0000e9c0       ?GetReactionParam@CDarkMarshalBuffer@@QAEXAAUsReactionParam@@@Z 1000f9c0 f   Marshal.obj
 0001:0000ea30       ?GetObjFromGlobal@CDarkMarshalBuffer@@QAEHXZ 1000fa30 f   Marshal.obj
 0001:0000eac0       ?GetMultiParm@CDarkMarshalBuffer@@QAEXAAUsMultiParm@@@Z 1000fac0 f   Marshal.obj
 0001:0000eb00       ??0CDarkMarshalBuffer@@QAE@XZ 1000fb00 f i Marshal.obj
 0001:0000eb30       ?ObjectSendData@@YAXHHPAXKK@Z 1000fb30 f   Network.obj
 0001:0000ec40       ?SendTimeLimit@@YAXXZ      1000fc40 f   Network.obj
 0001:0000ecd0       ?SendEnteredWorld@@YAXXZ   1000fcd0 f   Network.obj
 0001:0000ece0       ?SendAddLoot@@YAXHK@Z      1000fce0 f   Network.obj
 0001:0000edf0       ?SendEndMission@@YAXXZ     1000fdf0 f   Network.obj
 0001:0000eee0       ?SendPlayerAnimation@@YAXPBD0@Z 1000fee0 f   Network.obj
 0001:0000ef70       ?SendPlayerStopAnimation@@YAXXZ 1000ff70 f   Network.obj
 0001:0000efa0       ?NetSimCallback@@YAXHH@Z   1000ffa0 f   Network.obj
 0001:0000f040       ??0CNetMsg_TimeLimit@@QAE@XZ 10010040 f i Network.obj
 0001:0000f060       ??0CNetMsg_AddLoot@@QAE@XZ 10010060 f i Network.obj
 0001:0000f080       ??0CNetMsg_EndMission@@QAE@XZ 10010080 f i Network.obj
 0001:0000f0a0       ??0PlayerDB@@QAE@XZ        100100a0 f   PlayerDB.obj
 0001:0000f110       ?NameFromIndex@PlayerDB@@QAEPBDH@Z 10010110 f   PlayerDB.obj
 0001:0000f170       ?NameFromDPNID@PlayerDB@@QAEPBDK@Z 10010170 f   PlayerDB.obj
 0001:0000f1f0       ?NameFromObject@PlayerDB@@QAEPBDH@Z 100101f0 f   PlayerDB.obj
 0001:0000f290       ?ClearPlayerInfo@PlayerDB@@QAEXXZ 10010290 f   PlayerDB.obj
 0001:0000f330       ?SetPlayerInfo@PlayerDB@@QAEXHPBDH@Z 10010330 f   PlayerDB.obj
 0001:0000f3e0       ??1PlayerData@@QAE@XZ      100103e0 f i PlayerDB.obj
 0001:0000f410       ??0PlayerData@@QAE@XZ      10010410 f i PlayerDB.obj
 0001:0000f440       ??APlayerDB@@QAEAAUPlayerData@@H@Z 10010440 f i PlayerDB.obj
 0001:0000f4a0       ??1PlayerDB@@QAE@XZ        100104a0 f i PlayerDB.obj
 0001:0000f4d0       ??0CNetMsg_GenericReaction@@QAE@FPAUsReactionEvent@@PAUsReactionParam@@@Z 100104d0 f   T2GenericReaction.obj
 0001:0000f620       ?Marshal@CNetMsg_GenericReaction@@UAEXAAVCDarkMarshalBuffer@@@Z 10010620 f   T2GenericReaction.obj
 0001:0000f750       ?Unmarshal@CNetMsg_GenericReaction@@UAEXAAVCDarkMarshalBuffer@@@Z 10010750 f   T2GenericReaction.obj
 0001:0000f8b0       ??0CMarshalled@@QAE@XZ     100108b0 f i T2GenericReaction.obj
 0001:0000f8d0       ??C?$GlobalPointer@UIReactions@@@@QBEPAUIReactions@@XZ 100108d0 f i T2GenericReaction.obj
 0001:0000f8f0       ??0CNetMsg_PlayerDeath@@QAE@HH@Z 100108f0 f   T2PlayerDeath.obj
 0001:0000f940       ?Marshal@CNetMsg_PlayerDeath@@UAEXAAVCDarkMarshalBuffer@@@Z 10010940 f   T2PlayerDeath.obj
 0001:0000f990       ?Unmarshal@CNetMsg_PlayerDeath@@UAEXAAVCDarkMarshalBuffer@@@Z 10010990 f   T2PlayerDeath.obj
 0001:0000f9e0       ??0CNetMsg_ScriptMsg@@QAE@HHPBDPAUsMultiParm@@@Z 100109e0 f   T2ScriptMsg.obj
 0001:0000fa80       ?Marshal@CNetMsg_ScriptMsg@@UAEXAAVCDarkMarshalBuffer@@@Z 10010a80 f   T2ScriptMsg.obj
 0001:0000fb00       ?Unmarshal@CNetMsg_ScriptMsg@@UAEXAAVCDarkMarshalBuffer@@@Z 10010b00 f   T2ScriptMsg.obj
 0001:0000fba0       ?ScriptMessageCreate@CNetMsg_ScriptMsg@@QAEPAUsScrMsg@@XZ 10010ba0 f   T2ScriptMsg.obj
 0001:0000fc00       ?CreateFrobMsg@CNetMsg_ScriptMsg@@IAEPAUsScrMsg@@XZ 10010c00 f   T2ScriptMsg.obj
 0001:0000fcd0       ?CreateScrMsg@CNetMsg_ScriptMsg@@IAEPAUsScrMsg@@XZ 10010cd0 f   T2ScriptMsg.obj
 0001:0000fd90       ??0sMultiParm@@QAE@XZ      10010d90 f i T2ScriptMsg.obj
 0001:0000fdb0       ??0sScrMsg@@QAE@XZ         10010db0 f i T2ScriptMsg.obj
 0001:0000fe40       ??1cMultiParm@@QAE@XZ      10010e40 f i T2ScriptMsg.obj
 0001:0000fe60       ??0cMultiParm@@QAE@XZ      10010e60 f i T2ScriptMsg.obj
 0001:0000fe90       ??0sFrobMsg@@QAE@XZ        10010e90 f i T2ScriptMsg.obj
 0001:0000fed0       ??0CConnectDialog@@QAE@XZ  10010ed0 f   ConnectDialog.obj
 0001:0000ff50       ?StaticDialogProc@CConnectDialog@@SGHPAUHWND__@@IIJ@Z 10010f50 f   ConnectDialog.obj
 0001:0000ffb0       ?DialogProc@CConnectDialog@@QAGHPAUHWND__@@IIJ@Z 10010fb0 f   ConnectDialog.obj
 0001:000101a0       ?DisplayPage@CConnectDialog@@QAEXXZ 100111a0 f   ConnectDialog.obj
 0001:00010320       ?OnConnect@CConnectDialog@@QAEXXZ 10011320 f   ConnectDialog.obj
 0001:000103c0       ?OnInitDialog@CConnectDialog@@QAEXPAUHWND__@@@Z 100113c0 f   ConnectDialog.obj
 0001:000104b0       ?SaveSettings@CConnectDialog@@QAEXXZ 100114b0 f   ConnectDialog.obj
 0001:000105c0       ??0CEEditBox@EngCtrls@@QAE@XZ 100115c0 f i ConnectDialog.obj
 0001:00010600       ?GetInt@CEControl@EngCtrls@@UAEHXZ 10011600 f i ConnectDialog.obj
 0001:00010640       ??0CEControl@EngCtrls@@QAE@XZ 10011640 f i ConnectDialog.obj
 0001:00010660       ?GetHandle@CEEditBox@EngCtrls@@QAEPAUHWND__@@XZ 10011660 f i ConnectDialog.obj
 0001:00010680       ?GetText@CEEditBox@EngCtrls@@QBEHPADH@Z 10011680 f i ConnectDialog.obj
 0001:000106c0       ?GetTextLength@CEEditBox@EngCtrls@@QBEHXZ 100116c0 f i ConnectDialog.obj
 0001:00010700       ?GetHandle@CConsoleBase@@QAEPAUHWND__@@XZ 10011700 f i ConnectDialog.obj
 0001:00010720       ?SetText@CEEditBox@EngCtrls@@QAEHPBD@Z 10011720 f i ConnectDialog.obj
 0001:00010760       ??C?$GlobalPointer@VcWinAppOperations@cWindowsApplication@@@@QBEPAVcWinAppOperations@cWindowsApplication@@XZ 10011760 f i ConnectDialog.obj
 0001:00010780       ??0CConsoleBase@@QAE@PAUHINSTANCE__@@HHHP6GHPAUHWND__@@IIJ@Z@Z 10011780 f   ConsoleGUI.obj
 0001:00010940       ??1CConsoleBase@@UAE@XZ    10011940 f   ConsoleGUI.obj
 0001:000109f0       ?PostMessageA@CConsoleBase@@QAEXPBD@Z 100119f0 f   ConsoleGUI.obj
 0001:00010a60       ?FindCommand@CConsoleBase@@QAEHPBD@Z 10011a60 f   ConsoleGUI.obj
 0001:00010b40       ?ExecuteCommand@CConsoleBase@@QAEXHPBD@Z 10011b40 f   ConsoleGUI.obj
 0001:00010cc0       ?ExecuteRaw@CConsoleBase@@QAE_NPAD@Z 10011cc0 f   ConsoleGUI.obj
 0001:00010d40       ?TokenizeCommand@CConsoleBase@@QAEPADPAD@Z 10011d40 f   ConsoleGUI.obj
 0001:00010d80       ?OnEnterKey@CConsoleBase@@UAEXXZ 10011d80 f   ConsoleGUI.obj
 0001:00010ed0       ?OnUpKey@CConsoleBase@@UAEXXZ 10011ed0 f   ConsoleGUI.obj
 0001:00010f80       ?OnDownKey@CConsoleBase@@UAEXXZ 10011f80 f   ConsoleGUI.obj
 0001:00011000       ?OnInit@CConsoleBase@@UAEXXZ 10012000 f   ConsoleGUI.obj
 0001:00011050       ?Update@CConsoleBase@@QAEXXZ 10012050 f   ConsoleGUI.obj
 0001:000111b0       ?SetWindowTitle@CConsoleBase@@QAEXPBD@Z 100121b0 f   ConsoleGUI.obj
 0001:000111f0       ?SetCommands@CConsoleBase@@QAEXPAUConsoleCommand@@H@Z 100121f0 f   ConsoleGUI.obj
 0001:00011220       ?SetAcceleratorTable@CConsoleBase@@QAEXH@Z 10012220 f   ConsoleGUI.obj
 0001:00011290       ?AddLine@HistoryManager@@QAEXPBD@Z 10012290 f   ConsoleGUI.obj
 0001:00011370       ?GetLast@HistoryManager@@QAEPAVHistoryItem@@XZ 10012370 f   ConsoleGUI.obj
 0001:000113b0       ??1HistoryManager@@QAE@XZ  100123b0 f   ConsoleGUI.obj
 0001:000114d0       ?Advance@HistoryManager@@QAEX_N@Z 100124d0 f   ConsoleGUI.obj
 0001:00011650       ??0HistoryManager@@QAE@XZ  10012650 f i ConsoleGUI.obj
 0001:00011690       ?OnCharacter@CConsoleBase@@UAEXI@Z 10012690 f i ConsoleGUI.obj
 0001:000116b0       ??_GCConsoleBase@@UAEPAXI@Z 100126b0 f i ConsoleGUI.obj
 0001:000116b0       ??_ECConsoleBase@@UAEPAXI@Z 100126b0 f i ConsoleGUI.obj
 0001:000116f0       ?ClearText@CEEditBox@EngCtrls@@QAEXXZ 100126f0 f i ConsoleGUI.obj
 0001:00011720       ?SetDisplayingHistory@HistoryManager@@QAEX_N@Z 10012720 f i ConsoleGUI.obj
 0001:00011740       ?GetText@HistoryItem@@QAEPBDXZ 10012740 f i ConsoleGUI.obj
 0001:00011760       ?IsDisplayingHistory@HistoryManager@@QAE_NXZ 10012760 f i ConsoleGUI.obj
 0001:00011780       ?GetCurrentItem@HistoryManager@@QAEPAVHistoryItem@@XZ 10012780 f i ConsoleGUI.obj
 0001:000117a0       ?SetCurrentItem@HistoryManager@@QAEXPAVHistoryItem@@@Z 100127a0 f i ConsoleGUI.obj
 0001:000117c0       ??0HistoryItem@@QAE@PBD@Z  100127c0 f i ConsoleGUI.obj
 0001:00011830       ??_EHistoryItem@@UAEPAXI@Z 10012830 f i ConsoleGUI.obj
 0001:00011830       ??_GHistoryItem@@UAEPAXI@Z 10012830 f i ConsoleGUI.obj
 0001:00011870       ??1HistoryItem@@UAE@XZ     10012870 f i ConsoleGUI.obj
 0001:000118c0       ??0?$list@PAVHistoryItem@@V?$allocator@PAVHistoryItem@@@std@@@std@@QAE@XZ 100128c0 f i ConsoleGUI.obj
 0001:00011910       ??1?$list@PAVHistoryItem@@V?$allocator@PAVHistoryItem@@@std@@@std@@QAE@XZ 10012910 f i ConsoleGUI.obj
 0001:00011940       ?begin@?$list@PAVHistoryItem@@V?$allocator@PAVHistoryItem@@@std@@@std@@QAE?AViterator@12@XZ 10012940 f i ConsoleGUI.obj
 0001:00011980       ?end@?$list@PAVHistoryItem@@V?$allocator@PAVHistoryItem@@@std@@@std@@QAE?AViterator@12@XZ 10012980 f i ConsoleGUI.obj
 0001:000119b0       ?size@?$list@PAVHistoryItem@@V?$allocator@PAVHistoryItem@@@std@@@std@@QBEIXZ 100129b0 f i ConsoleGUI.obj
 0001:000119d0       ?empty@?$list@PAVHistoryItem@@V?$allocator@PAVHistoryItem@@@std@@@std@@QBE_NXZ 100129d0 f i ConsoleGUI.obj
 0001:000119f0       ?front@?$list@PAVHistoryItem@@V?$allocator@PAVHistoryItem@@@std@@@std@@QAEAAPAVHistoryItem@@XZ 100129f0 f i ConsoleGUI.obj
 0001:00011a30       ?push_back@?$list@PAVHistoryItem@@V?$allocator@PAVHistoryItem@@@std@@@std@@QAEXABQAVHistoryItem@@@Z 10012a30 f i ConsoleGUI.obj
 0001:00011a80       ?erase@?$list@PAVHistoryItem@@V?$allocator@PAVHistoryItem@@@std@@@std@@QAE?AViterator@12@V312@@Z 10012a80 f i ConsoleGUI.obj
 0001:00011b60       ??0?$SimpleQueue@D@@QAE@XZ 10012b60 f i ConsoleGUI.obj
 0001:00011ba0       ??1?$SimpleQueue@D@@QAE@XZ 10012ba0 f i ConsoleGUI.obj
 0001:00011bd0       ?Push@?$SimpleQueue@D@@QAEXPAD@Z 10012bd0 f i ConsoleGUI.obj
 0001:00011d00       ?Pop@?$SimpleQueue@D@@QAEPADXZ 10012d00 f i ConsoleGUI.obj
 0001:00011d90       ?GetSize@?$SimpleQueue@D@@QAEHXZ 10012d90 f i ConsoleGUI.obj
 0001:00011db0       ??Diterator@?$list@PAVHistoryItem@@V?$allocator@PAVHistoryItem@@@std@@@std@@QBEAAPAVHistoryItem@@XZ 10012db0 f i ConsoleGUI.obj
 0001:00011de0       ??Eiterator@?$list@PAVHistoryItem@@V?$allocator@PAVHistoryItem@@@std@@@std@@QAEAAV012@XZ 10012de0 f i ConsoleGUI.obj
 0001:00011e10       ??Eiterator@?$list@PAVHistoryItem@@V?$allocator@PAVHistoryItem@@@std@@@std@@QAE?AV012@H@Z 10012e10 f i ConsoleGUI.obj
 0001:00011e80       ??Fiterator@?$list@PAVHistoryItem@@V?$allocator@PAVHistoryItem@@@std@@@std@@QAE?AV012@H@Z 10012e80 f i ConsoleGUI.obj
 0001:00011ef0       ??9const_iterator@?$list@PAVHistoryItem@@V?$allocator@PAVHistoryItem@@@std@@@std@@QBE_NABV012@@Z 10012ef0 f i ConsoleGUI.obj
 0001:00011f30       ?_Nextnode@?$list@PAVHistoryItem@@V?$allocator@PAVHistoryItem@@@std@@@std@@KAAAPAU_Node@?$_List_nod@PAVHistoryItem@@V?$allocator@PAVHistoryItem@@@std@@@2@PAU342@@Z 10012f30 f i ConsoleGUI.obj
 0001:00011f40       ?_Prevnode@?$list@PAVHistoryItem@@V?$allocator@PAVHistoryItem@@@std@@@std@@KAAAPAU_Node@?$_List_nod@PAVHistoryItem@@V?$allocator@PAVHistoryItem@@@std@@@2@PAU342@@Z 10012f40 f i ConsoleGUI.obj
 0001:00011f50       ?_Insert@?$list@PAVHistoryItem@@V?$allocator@PAVHistoryItem@@@std@@@std@@QAEXViterator@12@ABQAVHistoryItem@@@Z 10012f50 f i ConsoleGUI.obj
 0001:00011ff0       ?_Buynode@?$list@PAVHistoryItem@@V?$allocator@PAVHistoryItem@@@std@@@std@@IAEPAU_Node@?$_List_nod@PAVHistoryItem@@V?$allocator@PAVHistoryItem@@@std@@@2@XZ 10012ff0 f i ConsoleGUI.obj
 0001:00012120       ?_Tidy@?$list@PAVHistoryItem@@V?$allocator@PAVHistoryItem@@@std@@@std@@IAEXXZ 10013120 f i ConsoleGUI.obj
 0001:000121a0       ??0?$_List_val@PAVHistoryItem@@V?$allocator@PAVHistoryItem@@@std@@@std@@IAE@V?$allocator@PAVHistoryItem@@@1@@Z 100131a0 f i ConsoleGUI.obj
 0001:000121f0       ??0?$allocator@PAVHistoryItem@@@std@@QAE@XZ 100131f0 f i ConsoleGUI.obj
 0001:00012210       ?deallocate@?$allocator@U_Node@?$_List_nod@PAVHistoryItem@@V?$allocator@PAVHistoryItem@@@std@@@std@@@std@@QAEXPAU_Node@?$_List_nod@PAVHistoryItem@@V?$allocator@PAVHistoryItem@@@std@@@2@I@Z 10013210 f i ConsoleGUI.obj
 0001:00012240       ?destroy@?$allocator@U_Node@?$_List_nod@PAVHistoryItem@@V?$allocator@PAVHistoryItem@@@std@@@std@@@std@@QAEXPAU_Node@?$_List_nod@PAVHistoryItem@@V?$allocator@PAVHistoryItem@@@std@@@2@@Z 10013240 f i ConsoleGUI.obj
 0001:00012270       ?Clear@?$SimpleQueue@D@@QAEXXZ 10013270 f i ConsoleGUI.obj
 0001:00012310       ??0iterator@?$list@PAVHistoryItem@@V?$allocator@PAVHistoryItem@@@std@@@std@@QAE@PAU_Node@?$_List_nod@PAVHistoryItem@@V?$allocator@PAVHistoryItem@@@std@@@2@@Z 10013310 f i ConsoleGUI.obj
 0001:00012340       ??Fiterator@?$list@PAVHistoryItem@@V?$allocator@PAVHistoryItem@@@std@@@std@@QAEAAV012@XZ 10013340 f i ConsoleGUI.obj
 0001:00012370       ??Dconst_iterator@?$list@PAVHistoryItem@@V?$allocator@PAVHistoryItem@@@std@@@std@@QBEABQAVHistoryItem@@XZ 10013370 f i ConsoleGUI.obj
 0001:000123a0       ??Econst_iterator@?$list@PAVHistoryItem@@V?$allocator@PAVHistoryItem@@@std@@@std@@QAEAAV012@XZ 100133a0 f i ConsoleGUI.obj
 0001:000123e0       ??8const_iterator@?$list@PAVHistoryItem@@V?$allocator@PAVHistoryItem@@@std@@@std@@QBE_NABV012@@Z 100133e0 f i ConsoleGUI.obj
 0001:00012410       ?_Mynode@const_iterator@?$list@PAVHistoryItem@@V?$allocator@PAVHistoryItem@@@std@@@std@@QBEPAU_Node@?$_List_nod@PAVHistoryItem@@V?$allocator@PAVHistoryItem@@@std@@@3@XZ 10013410 f i ConsoleGUI.obj
 0001:00012430       ??0Element@?$SimpleQueue@D@@QAE@PAD@Z 10013430 f i ConsoleGUI.obj
 0001:00012460       ?_Myval@?$list@PAVHistoryItem@@V?$allocator@PAVHistoryItem@@@std@@@std@@KAAAPAVHistoryItem@@PAU_Node@?$_List_nod@PAVHistoryItem@@V?$allocator@PAVHistoryItem@@@std@@@2@@Z 10013460 f i ConsoleGUI.obj
 0001:00012470       ?clear@?$list@PAVHistoryItem@@V?$allocator@PAVHistoryItem@@@std@@@std@@QAEXXZ 10013470 f i ConsoleGUI.obj
 0001:00012530       ?_Buynode@?$list@PAVHistoryItem@@V?$allocator@PAVHistoryItem@@@std@@@std@@IAEPAU_Node@?$_List_nod@PAVHistoryItem@@V?$allocator@PAVHistoryItem@@@std@@@2@PAU342@0ABQAVHistoryItem@@@Z 10013530 f i ConsoleGUI.obj
 0001:00012610       ?_Incsize@?$list@PAVHistoryItem@@V?$allocator@PAVHistoryItem@@@std@@@std@@IAEXI@Z 10013610 f i ConsoleGUI.obj
 0001:000126c0       ??0?$_List_ptr@PAVHistoryItem@@V?$allocator@PAVHistoryItem@@@std@@@std@@IAE@V?$allocator@PAVHistoryItem@@@1@@Z 100136c0 f i ConsoleGUI.obj
 0001:00012710       ??0?$allocator@PAVHistoryItem@@@std@@QAE@ABV01@@Z 10013710 f i ConsoleGUI.obj
 0001:00012730       ?allocate@?$allocator@U_Node@?$_List_nod@PAVHistoryItem@@V?$allocator@PAVHistoryItem@@@std@@@std@@@std@@QAEPAU_Node@?$_List_nod@PAVHistoryItem@@V?$allocator@PAVHistoryItem@@@std@@@2@I@Z 10013730 f i ConsoleGUI.obj
 0001:00012760       ?construct@?$allocator@PAU_Node@?$_List_nod@PAVHistoryItem@@V?$allocator@PAVHistoryItem@@@std@@@std@@@std@@QAEXPAPAU_Node@?$_List_nod@PAVHistoryItem@@V?$allocator@PAVHistoryItem@@@std@@@2@ABQAU342@@Z 10013760 f i ConsoleGUI.obj
 0001:00012790       ?destroy@?$allocator@PAU_Node@?$_List_nod@PAVHistoryItem@@V?$allocator@PAVHistoryItem@@@std@@@std@@@std@@QAEXPAPAU_Node@?$_List_nod@PAVHistoryItem@@V?$allocator@PAVHistoryItem@@@std@@@2@@Z 10013790 f i ConsoleGUI.obj
 0001:000127c0       ??0const_iterator@?$list@PAVHistoryItem@@V?$allocator@PAVHistoryItem@@@std@@@std@@QAE@PAU_Node@?$_List_nod@PAVHistoryItem@@V?$allocator@PAVHistoryItem@@@std@@@2@@Z 100137c0 f i ConsoleGUI.obj
 0001:000127e0       ??Fconst_iterator@?$list@PAVHistoryItem@@V?$allocator@PAVHistoryItem@@@std@@@std@@QAEAAV012@XZ 100137e0 f i ConsoleGUI.obj
 0001:00012820       ?max_size@?$list@PAVHistoryItem@@V?$allocator@PAVHistoryItem@@@std@@@std@@QBEIXZ 10013820 f i ConsoleGUI.obj
 0001:00012850       ??0?$_List_nod@PAVHistoryItem@@V?$allocator@PAVHistoryItem@@@std@@@std@@IAE@V?$allocator@PAVHistoryItem@@@1@@Z 10013850 f i ConsoleGUI.obj
 0001:00012880       ??0_Node@?$_List_nod@PAVHistoryItem@@V?$allocator@PAVHistoryItem@@@std@@@std@@QAE@PAU012@0ABQAVHistoryItem@@@Z 10013880 f i ConsoleGUI.obj
 0001:000128c0       ?max_size@?$allocator@PAVHistoryItem@@@std@@QBEIXZ 100138c0 f i ConsoleGUI.obj
 0001:00012910       ??$_Destroy@U_Node@?$_List_nod@PAVHistoryItem@@V?$allocator@PAVHistoryItem@@@std@@@std@@@std@@YAXPAU_Node@?$_List_nod@PAVHistoryItem@@V?$allocator@PAVHistoryItem@@@std@@@0@@Z 10013910 f i ConsoleGUI.obj
 0001:00012920       ??$?0PAVHistoryItem@@@?$allocator@PAU_Node@?$_List_nod@PAVHistoryItem@@V?$allocator@PAVHistoryItem@@@std@@@std@@@std@@QAE@ABV?$allocator@PAVHistoryItem@@@1@@Z 10013920 f i ConsoleGUI.obj
 0001:00012940       ??$_Allocate@U_Node@?$_List_nod@PAVHistoryItem@@V?$allocator@PAVHistoryItem@@@std@@@std@@@std@@YAPAU_Node@?$_List_nod@PAVHistoryItem@@V?$allocator@PAVHistoryItem@@@std@@@0@IPAU120@@Z 10013940 f i ConsoleGUI.obj
 0001:00012960       ??$_Construct@PAU_Node@?$_List_nod@PAVHistoryItem@@V?$allocator@PAVHistoryItem@@@std@@@std@@PAU123@@std@@YAXPAPAU_Node@?$_List_nod@PAVHistoryItem@@V?$allocator@PAVHistoryItem@@@std@@@0@ABQAU120@@Z 10013960 f i ConsoleGUI.obj
 0001:000129c0       ??$_Destroy@PAU_Node@?$_List_nod@PAVHistoryItem@@V?$allocator@PAVHistoryItem@@@std@@@std@@@std@@YAXPAPAU_Node@?$_List_nod@PAVHistoryItem@@V?$allocator@PAVHistoryItem@@@std@@@0@@Z 100139c0 f i ConsoleGUI.obj
 0001:000129d0       ??$?0PAVHistoryItem@@@?$allocator@U_Node@?$_List_nod@PAVHistoryItem@@V?$allocator@PAVHistoryItem@@@std@@@std@@@std@@QAE@ABV?$allocator@PAVHistoryItem@@@1@@Z 100139d0 f i ConsoleGUI.obj
 0001:000129f0       ??0InterfaceManager@@QAE@XZ 100139f0 f   DarkWinGui.obj
 0001:00012a60       ??1InterfaceManager@@UAE@XZ 10013a60 f   DarkWinGui.obj
 0001:00012a90       ?CreateChildWindow@InterfaceManager@@UAEXH@Z 10013a90 f   DarkWinGui.obj
 0001:00012dc0       ?Startup@InterfaceManager@@UAEXXZ 10013dc0 f   DarkWinGui.obj
 0001:00012e00       ?Shutdown@InterfaceManager@@UAEXXZ 10013e00 f   DarkWinGui.obj
 0001:00012eb0       ?Update@InterfaceManager@@UAEXXZ 10013eb0 f   DarkWinGui.obj
 0001:00012ee0       ?StaticDialogProc@CThiefConsole@@SGHPAUHWND__@@IIJ@Z 10013ee0 f   DarkWinGui.obj
 0001:00012f30       ?DialogProc@CThiefConsole@@QAGHPAUHWND__@@IIJ@Z 10013f30 f   DarkWinGui.obj
 0001:00013580       ?PromptDisconnect@@YAHXZ   10014580 f   DarkWinGui.obj
 0001:000135c0       ?WinGuiInit@@YAXXZ         100145c0 f   DarkWinGui.obj
 0001:00013690       ?WinGuiTerm@@YAXXZ         10014690 f   DarkWinGui.obj
 0001:00013720       ??_EInterfaceManager@@UAEPAXI@Z 10014720 f i DarkWinGui.obj
 0001:00013720       ??_GInterfaceManager@@UAEPAXI@Z 10014720 f i DarkWinGui.obj
 0001:00013760       ??0IInterfaceManager@@QAE@XZ 10014760 f i DarkWinGui.obj
 0001:00013780       ??0CThiefConsole@@QAE@PAUHINSTANCE__@@HHHP6GHPAUHWND__@@IIJ@Z@Z 10014780 f i DarkWinGui.obj
 0001:000137e0       ??_GCThiefConsole@@UAEPAXI@Z 100147e0 f i DarkWinGui.obj
 0001:000137e0       ??_ECThiefConsole@@UAEPAXI@Z 100147e0 f i DarkWinGui.obj
 0001:00013820       ??1CThiefConsole@@UAE@XZ   10014820 f i DarkWinGui.obj
 0001:00013850       ??0CMissionSelectDialog@@QAE@XZ 10014850 f i DarkWinGui.obj
 0001:00013880       ??0CPlayerSettingsDialog@@QAE@XZ 10014880 f i DarkWinGui.obj
 0001:000138c0       ??0CEListBox@EngCtrls@@QAE@XZ 100148c0 f i DarkWinGui.obj
 0001:000138f0       ??0CEComboBox@EngCtrls@@QAE@XZ 100148f0 f i DarkWinGui.obj
 0001:00013920       ?DbgMenuToggleEcho@@YAXXZ  10014920 f   DbgMenu.obj
 0001:00013960       ?EnableDebugMenuItems@@YAXPAUHMENU__@@@Z 10014960 f   DbgMenu.obj
 0001:00013c50       ??0CHostDialog@@QAE@XZ     10014c50 f   HostDialog.obj
 0001:00013da0       ?StaticDialogProc@CHostDialog@@SGHPAUHWND__@@IIJ@Z 10014da0 f   HostDialog.obj
 0001:00013e00       ?DialogProc@CHostDialog@@QAGHPAUHWND__@@IIJ@Z 10014e00 f   HostDialog.obj
 0001:00014040       ?DisplayPage@CHostDialog@@QAEXXZ 10015040 f   HostDialog.obj
 0001:000141e0       ?OnHost@CHostDialog@@QAEXXZ 100151e0 f   HostDialog.obj
 0001:000142b0       ?OnInitDialog@CHostDialog@@QAEXPAUHWND__@@@Z 100152b0 f   HostDialog.obj
 0001:000142f0       ?InitButtons@CHostDialog@@QAEXXZ 100152f0 f   HostDialog.obj
 0001:000148e0       ?GetMissionFlags@CHostDialog@@QAEKH@Z 100158e0 f   HostDialog.obj
 0001:00014af0       ?InitControlStates@CHostDialog@@QAEXXZ 10015af0 f   HostDialog.obj
 0001:00014e20       ?SaveSettings@CHostDialog@@QAEXXZ 10015e20 f   HostDialog.obj
 0001:00015350       ??0CEButton@EngCtrls@@QAE@XZ 10016350 f i HostDialog.obj
 0001:00015380       ?Enable@CEEditBox@EngCtrls@@QAE_N_N@Z 10016380 f i HostDialog.obj
 0001:000153d0       ?LimitText@CEEditBox@EngCtrls@@QAEXH@Z 100163d0 f i HostDialog.obj
 0001:00015420       ??0?$IPtr@UIGameStrings@@@@QAE@PAX@Z 10016420 f i HostDialog.obj
 0001:00015440       ??1?$IPtr@UIGameStrings@@@@QAE@XZ 10016440 f i HostDialog.obj
 0001:00015480       ??C?$IPtr@UIGameStrings@@@@QBEPAUIGameStrings@@XZ 10016480 f i HostDialog.obj
 0001:000154a0       ??0?$IPtr@UIStructDescTools@@@@QAE@PAX@Z 100164a0 f i HostDialog.obj
 0001:000154c0       ??1?$IPtr@UIStructDescTools@@@@QAE@XZ 100164c0 f i HostDialog.obj
 0001:00015500       ??C?$IPtr@UIStructDescTools@@@@QBEPAUIStructDescTools@@XZ 10016500 f i HostDialog.obj
 0001:00015520       ?Length@cAnsiStr@@QAEHXZ   10016520 f i HostDialog.obj
 0001:00015540       ?Destroy@cAnsiStr@@QAEXXZ  10016540 f i HostDialog.obj
 0001:000155b0       ?StaticDialogProc@CMissionSelectDialog@@SGHPAUHWND__@@IIJ@Z 100165b0 f   MissSelect.obj
 0001:00015610       ?DialogProc@CMissionSelectDialog@@QAGHPAUHWND__@@IIJ@Z 10016610 f   MissSelect.obj
 0001:00015700       ?OnInitDialog@CMissionSelectDialog@@QAEXPAUHWND__@@@Z 10016700 f   MissSelect.obj
 0001:00015900       ?DisplayPage@CMissionSelectDialog@@QAEXXZ 10016900 f   MissSelect.obj
 0001:000159e0       ?GetCurSel@CEListBox@EngCtrls@@QAEHXZ 100169e0 f i MissSelect.obj
 0001:00015a20       ?GetItemData@CEListBox@EngCtrls@@QAEJH@Z 10016a20 f i MissSelect.obj
 0001:00015a70       ?SetItemData@CEListBox@EngCtrls@@QAEJHK@Z 10016a70 f i MissSelect.obj
 0001:00015ac0       ??0cAnsiStr@@QAE@XZ        10016ac0 f i MissSelect.obj
 0001:00015b00       ??0CPasswordDialog@@QAE@XZ 10016b00 f   PasswordDialog.obj
 0001:00015b50       ?StaticDialogProc@CPasswordDialog@@SGHPAUHWND__@@IIJ@Z 10016b50 f   PasswordDialog.obj
 0001:00015bb0       ?DialogProc@CPasswordDialog@@QAGHPAUHWND__@@IIJ@Z 10016bb0 f   PasswordDialog.obj
 0001:00015ca0       ?OnInitDialog@CPasswordDialog@@QAEXPAUHWND__@@J@Z 10016ca0 f   PasswordDialog.obj
 0001:00015d10       ?DisplayPage@CPasswordDialog@@QAEXXZ 10016d10 f   PasswordDialog.obj
 0001:00015df0       ?GetSelectedServer@CServerBrowser@@QAEPAVCServerListEntry@@XZ 10016df0 f i PasswordDialog.obj
 0001:00015e10       ?StaticDialogProc@CPlayerSettingsDialog@@SGHPAUHWND__@@IIJ@Z 10016e10 f   PlayerSettings.obj
 0001:00015e70       ?DialogProc@CPlayerSettingsDialog@@QAGHPAUHWND__@@IIJ@Z 10016e70 f   PlayerSettings.obj
 0001:00015f80       ?OnInitDialog@CPlayerSettingsDialog@@QAEXPAUHWND__@@@Z 10016f80 f   PlayerSettings.obj
 0001:00015fc0       ?DisplayPage@CPlayerSettingsDialog@@QAEXXZ 10016fc0 f   PlayerSettings.obj
 0001:00016060       ?InitButtons@CPlayerSettingsDialog@@QAEXXZ 10017060 f   PlayerSettings.obj
 0001:00016130       ?InitControlStates@CPlayerSettingsDialog@@QAEXXZ 10017130 f   PlayerSettings.obj
 0001:000161e0       ?SaveSettings@CPlayerSettingsDialog@@QAEXXZ 100171e0 f   PlayerSettings.obj
 0001:00016300       ?EquipAIWeaponHook@@YGHHKK@Z 10017300 f   AI.obj
 0001:00016350       ?OnIsValidTarget@@YGHH@Z   10017350 f   AI.obj
 0001:00016410       ?SetAIAwareness@AITools@@YA_NPAUIAI@@HH@Z 10017410 f   AI.obj
 0001:00016510       ?SetAIAwareness@AITools@@YA_NHHH@Z 10017510 f   AI.obj
 0001:00016580       ?DarkChatInit@@YAXXZ       10017580 f   Chat.obj
 0001:00016670       ?DarkChatTerm@@YAXXZ       10017670 f   Chat.obj
 0001:000166c0       ?ChatboxIsOpen@@YA_NXZ     100176c0 f   Chat.obj
 0001:000166d0       ?ChatboxOpen@@YAXXZ        100176d0 f   Chat.obj
 0001:00016810       ?ChatboxClose@@YAXPAU_LGadTextBox@@@Z 10017810 f   Chat.obj
 0001:00016940       ?ChatboxCallback@@YAXPAU_LGadTextBox@@W4_LGadTextBoxEvent@@HPAX@Z 10017940 f   Chat.obj
 0001:00016a70       ?DrawPlayerNames@CClient@@QAEXXZ 10017a70 f   Client.obj
 0001:00016b80       ?DebugDrawVisibility@CClient@@QAEXXZ 10017b80 f   Client.obj
 0001:00016d40       ?DebugDrawNetStats@CClient@@QAEXXZ 10017d40 f   Client.obj
 0001:00016f70       ?DebugDrawMiscStats@CClient@@QAEXXZ 10017f70 f   Client.obj
 0001:000171a0       ?RenderOverlays@CClient@@QAEXXZ 100181a0 f   Client.obj
 0001:00017200       ?LoadMission@CClient@@QAEXH@Z 10018200 f   Client.obj
 0001:00017260       ?MissionStarted@CClient@@QAE_NXZ 10018260 f   Client.obj
 0001:00017280       ?StaticOnDeath@CClient@@SAXXZ 10018280 f   Client.obj
 0001:000172a0       ?OnDeath@CClient@@QAEXXZ   100182a0 f   Client.obj
 0001:00017430       ?OnPlayerCreate@CClient@@SAXXZ 10018430 f   Client.obj
 0001:000174b0       ?OnJump@CClient@@SAHXZ     100184b0 f   Client.obj
 0001:00017520       ?StartGameModeCallback@CClient@@SGXK@Z 10018520 f   Client.obj
 0001:00017660       ?IsSimRunning@CClient@@QAE_NXZ 10018660 f   Client.obj
 0001:00017680       ?SetSimRunning@CClient@@QAEX_N@Z 10018680 f   Client.obj
 0001:000176a0       ?RespawnPlayer@CClient@@QAEXXZ 100186a0 f   Client.obj
 0001:00017850       ?OnLoadWorld@CClient@@QAEXXZ 10018850 f   Client.obj
 0001:00017930       ?GetTimeRemaining@CClient@@QAEMXZ 10018930 f   Client.obj
 0001:00017950       ?SetTimeRemaining@CClient@@QAEXM@Z 10018950 f   Client.obj
 0001:00017990       ?IsTimeLimitSet@CClient@@QAE_NXZ 10018990 f   Client.obj
 0001:000179e0       ?StartFadeIn@CClient@@QAEXKEEE@Z 100189e0 f   Client.obj
 0001:00017a70       ?StartFadeOut@CClient@@QAEXKEEE@Z 10018a70 f   Client.obj
 0001:00017b00       ?IsClient@CClient@@QAE_NXZ 10018b00 f   Client.obj
 0001:00017b90       ?IsHost@CClient@@QAE_NXZ   10018b90 f   Client.obj
 0001:00017c20       ?GameIsEnding@CClient@@QAE_NXZ 10018c20 f   Client.obj
 0001:00017c70       ?StartEndGameTimer@CClient@@QAEXMW4EndReason@@@Z 10018c70 f   Client.obj
 0001:00017d30       ?Update@CClient@@QAEXXZ    10018d30 f   Client.obj
 0001:00017f70       ?UpdateTransparency@CClient@@QAEXXZ 10018f70 f   Client.obj
 0001:000181e0       ?EventHandler@CClient@@UAEXHPAX@Z 100191e0 f   Client.obj
 0001:00018200       ??C?$GlobalPointer@UILinkManager@@@@QBEPAUILinkManager@@XZ 10019200 f i Client.obj
 0001:00018220       ??C?$GlobalPointer@VcPlayerMode@@@@QBEPAVcPlayerMode@@XZ 10019220 f i Client.obj
 0001:00018240       ??B?$GlobalPointer@VcPlayerMode@@@@QBEPAVcPlayerMode@@XZ 10019240 f i Client.obj
 0001:00018260       ??C?$GlobalPointer@UIFloatProperty@@@@QBEPAUIFloatProperty@@XZ 10019260 f i Client.obj
 0001:00018280       ?sqrt@@YAMM@Z              10019280 f i Client.obj
 0001:000182a0       _sqrtf                     100192a0 f i Client.obj
 0001:000182d0       ??0object@@QAE@H@Z         100192d0 f i Client.obj
 0001:000182f0       ??0CClient@@QAE@XZ         100192f0 f i Client.obj
 0001:00018320       ?OnPollNetwork@PacketHandler@@QAEXXZ 10019320 f   ClientPacketHandler.obj
 0001:00018590       ?HandleObjectData@PacketHandler@@IAEXXZ 10019590 f   ClientPacketHandler.obj
 0001:000188d0       ?HandleFrobObject@PacketHandler@@IAEXXZ 100198d0 f   ClientPacketHandler.obj
 0001:00018a50       ?HandleGiveObj@PacketHandler@@IAEXXZ 10019a50 f   ClientPacketHandler.obj
 0001:00018c70       ?HandleAddLoot@PacketHandler@@IAEXXZ 10019c70 f   ClientPacketHandler.obj
 0001:00019290       ?HandleSetWeapon@PacketHandler@@IAEXXZ 1001a290 f   ClientPacketHandler.obj
 0001:00019350       ?HandleMissionStart@PacketHandler@@IAEXXZ 1001a350 f   ClientPacketHandler.obj
 0001:00019540       ?HandleMissionEnd@PacketHandler@@IAEXXZ 1001a540 f   ClientPacketHandler.obj
 0001:000195b0       ?HandleLoadGame@PacketHandler@@IAEXXZ 1001a5b0 f   ClientPacketHandler.obj
 0001:00019620       ?HandleSaveGame@PacketHandler@@IAEXXZ 1001a620 f   ClientPacketHandler.obj
 0001:00019690       ?HandleChat@PacketHandler@@IAEXXZ 1001a690 f   ClientPacketHandler.obj
 0001:00019930       ?HandleSetTimeLimit@PacketHandler@@IAEXXZ 1001a930 f   ClientPacketHandler.obj
 0001:00019970       ?HandleCrcRequest@PacketHandler@@IAEXXZ 1001a970 f   ClientPacketHandler.obj
 0001:00019b80       ?HandleCrcResponse@PacketHandler@@IAEXXZ 1001ab80 f   ClientPacketHandler.obj
 0001:00019e10       ?HandleEnteredWorld@PacketHandler@@IAEXXZ 1001ae10 f   ClientPacketHandler.obj
 0001:00019e40       ?HandlePlayerDeath@PacketHandler@@IAEXXZ 1001ae40 f   ClientPacketHandler.obj
 0001:00019fd0       ?HandleSpeechHalt@PacketHandler@@IAEXXZ 1001afd0 f   ClientPacketHandler.obj
 0001:0001a140       ?HandleSpeech@PacketHandler@@IAEXXZ 1001b140 f   ClientPacketHandler.obj
 0001:0001a610       ?HandleGenericReaction@PacketHandler@@IAEXXZ 1001b610 f   ClientPacketHandler.obj
 0001:0001aa00       ?HandleTransferAI@PacketHandler@@IAEXXZ 1001ba00 f   ClientPacketHandler.obj
 0001:0001ac30       ?HandleScriptMsg@PacketHandler@@IAEXXZ 1001bc30 f   ClientPacketHandler.obj
 0001:0001adb0       ?HandleObjectDamaged@PacketHandler@@IAEXXZ 1001bdb0 f   ClientPacketHandler.obj
 0001:0001afd0       ?SendPlayerSnapshot@@YAXHK@Z 1001bfd0 f   ClientPacketHandler.obj
 0001:0001afe0       ?HandleSnapshotRequest@PacketHandler@@IAEXXZ 1001bfe0 f   ClientPacketHandler.obj
 0001:0001b120       ?HandleCreatePlayer@PacketHandler@@IAEXXZ 1001c120 f   ClientPacketHandler.obj
 0001:0001b690       ?HandlePlayerSnapshot@PacketHandler@@IAEXXZ 1001c690 f   ClientPacketHandler.obj
 0001:0001b6b0       ?FreeData@NetMessage@@QAEXXZ 1001c6b0 f i ClientPacketHandler.obj
 0001:0001b700       ??0CNetMsg_CrcResponse@@QAE@XZ 1001c700 f i ClientPacketHandler.obj
 0001:0001b720       ??0CNetMsg_PlayerDeath@@QAE@XZ 1001c720 f i ClientPacketHandler.obj
 0001:0001b750       ??0CNetMsg_GenericReaction@@QAE@XZ 1001c750 f i ClientPacketHandler.obj
 0001:0001b780       ??0CNetMsg_ScriptMsg@@QAE@XZ 1001c780 f i ClientPacketHandler.obj
 0001:0001b7c0       ??_GsScrMsg@@QAEPAXI@Z     1001c7c0 f i ClientPacketHandler.obj
 0001:0001b800       ??A?$cDynArray@PAVcAvatar@@@@QAEAAPAVcAvatar@@I@Z 1001c800 f i ClientPacketHandler.obj
 0001:0001b820       ??C?$GlobalPointer@UINet@@@@QBEPAUINet@@XZ 1001c820 f i ClientPacketHandler.obj
 0001:0001b840       ??B?$GlobalPointer@UIContainSys@@@@QBEPAUIContainSys@@XZ 1001c840 f i ClientPacketHandler.obj
 0001:0001b860       ??C?$GlobalPointer@UIScriptMan@@@@QBEPAUIScriptMan@@XZ 1001c860 f i ClientPacketHandler.obj
 0001:0001b880       ??C?$GlobalPointer@UIStringProperty@@@@QBEPAUIStringProperty@@XZ 1001c880 f i ClientPacketHandler.obj
 0001:0001b8a0       ??C?$GlobalPointer@UIRelation@@@@QBEPAUIRelation@@XZ 1001c8a0 f i ClientPacketHandler.obj
 0001:0001b8c0       ??C?$GlobalPointer@UINetPlayerProperty@@@@QBEPAUINetPlayerProperty@@XZ 1001c8c0 f i ClientPacketHandler.obj
 0001:0001b8e0       ?GetIndex@?$cDynArray@H@@QAEAAHI@Z 1001c8e0 f i ClientPacketHandler.obj
 0001:0001b900       ??0?$IPtr@UIAINetManager@@@@QAE@PAX@Z 1001c900 f i ClientPacketHandler.obj
 0001:0001b920       ??1?$IPtr@UIAINetManager@@@@QAE@XZ 1001c920 f i ClientPacketHandler.obj
 0001:0001b960       ??C?$IPtr@UIAINetManager@@@@QBEPAUIAINetManager@@XZ 1001c960 f i ClientPacketHandler.obj
 0001:0001b980       ??B?$IPtr@UIAINetManager@@@@QBEPAUIAINetManager@@XZ 1001c980 f i ClientPacketHandler.obj
 0001:0001b9a0       ??1sScrMsg@@QAE@XZ         1001c9a0 f i ClientPacketHandler.obj
 0001:0001ba10       ?OnLoopMsg@HookLoading@@YIXPAVcLoading@@HHPAUtLoopMessageData__@@@Z 1001ca10 f   ClientSynch.obj
 0001:0001bde0       ?DoFileLoad@HookLoading@@YIXPAVcLoading@@HPAUITagFile@@@Z 1001cde0 f   ClientSynch.obj
 0001:0001be60       ?OnLoopMsg@HookLoadingSaveGame@@YIXPAVcLoadingSaveGame@@HHPAUtLoopMessageData__@@@Z 1001ce60 f   ClientSynch.obj
 0001:0001bf80       ??A?$cDynArray@URect@@@@QAEAAURect@@I@Z 1001cf80 f i ClientSynch.obj
 0001:0001bfa0       ??A?$cDynArray@U_DrawElement@@@@QAEAAU_DrawElement@@I@Z 1001cfa0 f i ClientSynch.obj
 0001:0001bfc0       ?ApplySettings@Config@@YAXXZ 1001cfc0 f   Config.obj
 0001:0001c020       ?GetSettings@Config@@YAXXZ 1001d020 f   Config.obj
 0001:0001c3b0       ?Reload@Config@@YAXXZ      1001d3b0 f   Config.obj
 0001:0001c3d0       ?ConfigInit@@YAXXZ         1001d3d0 f   Config.obj
 0001:0001c400       ?ReadInt@ConfigManager@@QAEXPBD0H_N@Z 1001d400 f i Config.obj
 0001:0001c480       ?ReadFloat@ConfigManager@@QAEXPBD0M_N@Z 1001d480 f i Config.obj
 0001:0001c500       ?ReadString@ConfigManager@@QAEXPBD0H0_N@Z 1001d500 f i Config.obj
 0001:0001c590       ?ReadBool@ConfigManager@@QAEXPBD0_N1@Z 1001d590 f i Config.obj
 0001:0001c610       _AddConsoleMessage         1001d610 f   Console.obj
 0001:0001c630       ?ConPrintF@@YAXPBDZZ       1001d630 f   Console.obj
 0001:0001c770       ?ConPrintEchoF@@YAXPBDZZ   1001d770 f   Console.obj
 0001:0001c890       ?CmdAIPrediction@@YAXXZ    1001d890 f   Console.obj
 0001:0001c8d0       ?CmdClear@@YAXXZ           1001d8d0 f   Console.obj
 0001:0001c8f0       ?CmdMissLoad@@YAXH@Z       1001d8f0 f   Console.obj
 0001:0001c910       ?CmdNetStats@@YAXXZ        1001d910 f   Console.obj
 0001:0001c930       ?CmdVisStats@@YAXXZ        1001d930 f   Console.obj
 0001:0001c950       ?CmdMiscStats@@YAXXZ       1001d950 f   Console.obj
 0001:0001c970       ?CmdNetState@@YAXXZ        1001d970 f   Console.obj
 0001:0001ca40       ?CmdObjPlayers@@YAXXZ      1001da40 f   Console.obj
 0001:0001cb00       ?CmdContainList@@YAXH@Z    1001db00 f   Console.obj
 0001:0001cc30       ?CmdInvAdd@@YAXPBD@Z       1001dc30 f   Console.obj
 0001:0001cd20       ?CmdInvRem@@YAXH@Z         1001dd20 f   Console.obj
 0001:0001cda0       ?CmdSuicide@@YAXXZ         1001dda0 f   Console.obj
 0001:0001cdd0       ?CmdSummonObj@@YAXPBD@Z    1001ddd0 f   Console.obj
 0001:0001ce80       ?CmdSimTime@@YAXXZ         1001de80 f   Console.obj
 0001:0001ceb0       ?CmdSimPause@@YAXH@Z       1001deb0 f   Console.obj
 0001:0001cef0       ?CmdPacketStats@@YAXXZ     1001def0 f   Console.obj
 0001:0001cfb0       ?CmdVisGet@@YAXH@Z         1001dfb0 f   Console.obj
 0001:0001d0a0       ?CmdSfxReset@@YAXXZ        1001e0a0 f   Console.obj
 0001:0001d0d0       ?CmdReload@@YAXXZ          1001e0d0 f   Console.obj
 0001:0001d0f0       ?CmdTeleport@@YAXPAD@Z     1001e0f0 f   Console.obj
 0001:0001d640       ?CmdTransMax@@YAXN@Z       1001e640 f   Console.obj
 0001:0001d680       ?CmdTransDistance@@YAXN@Z  1001e680 f   Console.obj
 0001:0001d6c0       ?CmdObjDetails@@YAXH@Z     1001e6c0 f   Console.obj
 0001:0001dd90       ?CmdObjID@@YAXPBD@Z        1001ed90 f   Console.obj
 0001:0001ddf0       ?CmdQuestGet@@YAXPBD@Z     1001edf0 f   Console.obj
 0001:0001ded0       ?CmdGhostList@@YAXXZ       1001eed0 f   Console.obj
 0001:0001e010       ?CmdFileCrc@@YAXPBD@Z      1001f010 f   Console.obj
 0001:0001e040       ?CmdHelp@@YAXXZ            1001f040 f   Console.obj
 0001:0001e0b0       ?CmdObjHighlit@@YAXXZ      1001f0b0 f   Console.obj
 0001:0001e0e0       ?CmdFindAll@@YAXPBD@Z      1001f0e0 f   Console.obj
 0001:0001e220       ?CmdTest@@YAXPAUsGhostRemote@@@Z 1001f220 f   Console.obj
 0001:0001e230       ?CmdObjectives@@YAXXZ      1001f230 f   Console.obj
 0001:0001e250       ?CmdOpen@@YAXXZ            1001f250 f   Console.obj
 0001:0001e2e0       ?CmdShowPlayers@@YAXXZ     1001f2e0 f   Console.obj
 0001:0001e340       ?InitNetCommands@@YAXXZ    1001f340 f   Console.obj
 0001:0001e370       ??Citerator@?$_Tree@V?$_Tmap_traits@PADHU?$less@PAD@std@@V?$allocator@U?$pair@QADH@std@@@2@$0A@@std@@@std@@QBEPAU?$pair@QADH@2@XZ 1001f370 f i Console.obj
 0001:0001e3a0       ?MainMenuBlistHook@@YIXPAVcDarkPanel@@HGH@Z 1001f3a0 f   DarkPanels.obj
 0001:0001e4d0       ?SimMenuBlistHook@@YIXPAVcDarkPanel@@HGH@Z 1001f4d0 f   DarkPanels.obj
 0001:0001e700       ?DebriefBlistHook@@YIXPAVcDarkPanel@@HGH@Z 1001f700 f   DarkPanels.obj
 0001:0001e780       ?DarkStatIntSet@@YAXPADH@Z 1001f780 f   DarkStat.obj
 0001:0001e8b0       ?DarkStatIntAdd@@YAXPADH@Z 1001f8b0 f   DarkStat.obj
 0001:0001ea10       ?DarkUIUtilsInit@@YAXXZ    1001fa10 f   DarkUIUtils.obj
 0001:0001eb70       ?DarkUIUtilsTerm@@YAXXZ    1001fb70 f   DarkUIUtils.obj
 0001:0001ebf0       ?GetTextWidth@@YAMPAUgrs_font@@PBD@Z 1001fbf0 f   DarkUIUtils.obj
 0001:0001ec60       ?TextDrawCentered@@YAXPAUgrs_font@@HPBDMM@Z 1001fc60 f   DarkUIUtils.obj
 0001:0001ed10       ?TextDrawRight@@YAXPAUgrs_font@@HPBDMM@Z 1001fd10 f   DarkUIUtils.obj
 0001:0001ed70       ?TextDraw@@YAXPAUgrs_font@@HPBDMM@Z 1001fd70 f   DarkUIUtils.obj
 0001:0001ede0       ?TextDraw@@YAXPAUgrs_font@@HPBDHH@Z 1001fde0 f   DarkUIUtils.obj
 0001:0001ee70       ??C?$GlobalPointer@Ugrd_canvas@@@@QBEPAUgrd_canvas@@XZ 1001fe70 f i DarkUIUtils.obj
 0001:0001ee90       ??0?$IPtr@UIResMan@@@@QAE@PAX@Z 1001fe90 f i DarkUIUtils.obj
 0001:0001eeb0       ??1?$IPtr@UIResMan@@@@QAE@XZ 1001feb0 f i DarkUIUtils.obj
 0001:0001eef0       ??C?$IPtr@UIResMan@@@@QBEPAUIResMan@@XZ 1001fef0 f i DarkUIUtils.obj
 0001:0001ef10       ??0CDebugManager@@QAE@XZ   1001ff10 f   Debug.obj
 0001:0001ef40       ?SetExceptionFilter@CDebugManager@@QAEXXZ 1001ff40 f   Debug.obj
 0001:0001ef70       ?SetExceptionFilter@CDebugManager@@QAEXP6GJPAU_EXCEPTION_POINTERS@@@Z@Z 1001ff70 f   Debug.obj
 0001:0001efb0       ?RestoreExceptionFilter@CDebugManager@@QAEXXZ 1001ffb0 f   Debug.obj
 0001:0001eff0       ?LoadFlags@CDebugManager@@QAEXXZ 1001fff0 f   Debug.obj
 0001:0001f090       ?SaveFlags@CDebugManager@@QAEXXZ 10020090 f   Debug.obj
 0001:0001f130       ?ToggleFlag@CDebugManager@@QAEXI@Z 10020130 f   Debug.obj
 0001:0001f160       ?ClearFlag@CDebugManager@@QAEXI@Z 10020160 f   Debug.obj
 0001:0001f190       ?ClearAllFlags@CDebugManager@@QAEXXZ 10020190 f   Debug.obj
 0001:0001f1b0       ?ExceptFilter@CDebugManager@@KGJPAU_EXCEPTION_POINTERS@@@Z 100201b0 f   Debug.obj
 0001:0001f1f0       ?DebugInit@@YAXXZ          100201f0 f   Debug.obj
 0001:0001f210       ?IsDifficultyIncreased@@YA_NXZ 10020210 f   Difficulty.obj
 0001:0001f250       ?Difficulty_OnMeleeAttack@@YAXXZ 10020250 f   Difficulty.obj
 0001:0001f2a0       ?Difficulty_GetAIAwarenessDelay@@YGHPAUIProperty@@HPAPAUsAIAwareDelay@@@Z 100202a0 f   Difficulty.obj
 0001:0001f370       ?Difficulty_SetAIAwarenessDelay@@YGHPAUIProperty@@HPAUsAIAwareDelay@@@Z 10020370 f   Difficulty.obj
 0001:0001f3f0       ?Difficulty_GetAIRatingProperty@@YAHPAUIProperty@@HPAW4eAIRating@@@Z 100203f0 f   Difficulty.obj
 0001:0001f430       ?AddRef@CDPWrapper@@UAGKXZ 10020430 f   DP4Wrapper.obj
 0001:0001f480       ?Release@CDPWrapper@@UAGKXZ 10020480 f   DP4Wrapper.obj
 0001:0001f4e0       ?QueryInterface@CDPWrapper@@UAGJABU_GUID@@PAPAX@Z 100204e0 f   DP4Wrapper.obj
 0001:0001f520       ?AddGroupToGroup@CDPWrapper@@UAGJKK@Z 10020520 f   DP4Wrapper.obj
 0001:0001f550       ?AddPlayerToGroup@CDPWrapper@@UAGJKK@Z 10020550 f   DP4Wrapper.obj
 0001:0001f580       ?CancelMessage@CDPWrapper@@UAGJKK@Z 10020580 f   DP4Wrapper.obj
 0001:0001f5b0       ?CancelPriority@CDPWrapper@@UAGJKKK@Z 100205b0 f   DP4Wrapper.obj
 0001:0001f5e0       ?Close@CDPWrapper@@UAGJXZ  100205e0 f   DP4Wrapper.obj
 0001:0001f670       ?CreateGroup@CDPWrapper@@UAGJPAKPAUDPNAME@@PAXKK@Z 10020670 f   DP4Wrapper.obj
 0001:0001f6a0       ?CreateGroupInGroup@CDPWrapper@@UAGJKPAKPAUDPNAME@@PAXKK@Z 100206a0 f   DP4Wrapper.obj
 0001:0001f6d0       ?CreatePlayer@CDPWrapper@@UAGJPAKPAUDPNAME@@PAX2KK@Z 100206d0 f   DP4Wrapper.obj
 0001:0001f7d0       ?DeleteGroupFromGroup@CDPWrapper@@UAGJKK@Z 100207d0 f   DP4Wrapper.obj
 0001:0001f800       ?DeletePlayerFromGroup@CDPWrapper@@UAGJKK@Z 10020800 f   DP4Wrapper.obj
 0001:0001f830       ?DestroyGroup@CDPWrapper@@UAGJK@Z 10020830 f   DP4Wrapper.obj
 0001:0001f860       ?DestroyPlayer@CDPWrapper@@UAGJK@Z 10020860 f   DP4Wrapper.obj
 0001:0001f870       ?EnumConnections@CDPWrapper@@UAGJPBU_GUID@@P6GH0PAXKPBUDPNAME@@K1@Z1K@Z 10020870 f   DP4Wrapper.obj
 0001:0001f8a0       ?EnumGroupPlayers@CDPWrapper@@UAGJKPAU_GUID@@P6GHKKPBUDPNAME@@KPAX@Z2K@Z 100208a0 f   DP4Wrapper.obj
 0001:0001f8d0       ?EnumGroups@CDPWrapper@@UAGJPAU_GUID@@P6GHKKPBUDPNAME@@KPAX@Z2K@Z 100208d0 f   DP4Wrapper.obj
 0001:0001f900       ?EnumGroupsInGroup@CDPWrapper@@UAGJKPAU_GUID@@P6GHKKPBUDPNAME@@KPAX@Z2K@Z 10020900 f   DP4Wrapper.obj
 0001:0001f930       ?EnumPlayers@CDPWrapper@@UAGJPAU_GUID@@P6GHKKPBUDPNAME@@KPAX@Z2K@Z 10020930 f   DP4Wrapper.obj
 0001:0001fba0       ?EnumSessions@CDPWrapper@@UAGJPAUDPSESSIONDESC2@@KP6GHPBU2@PAKKPAX@Z3K@Z 10020ba0 f   DP4Wrapper.obj
 0001:0001fbb0       ?GetCaps@CDPWrapper@@UAGJPAUDPCAPS@@K@Z 10020bb0 f   DP4Wrapper.obj
 0001:0001fbe0       ?GetGroupConnectionSettings@CDPWrapper@@UAGJKKPAXPAK@Z 10020be0 f   DP4Wrapper.obj
 0001:0001fc10       ?GetGroupData@CDPWrapper@@UAGJKPAXPAKK@Z 10020c10 f   DP4Wrapper.obj
 0001:0001fc40       ?GetGroupFlags@CDPWrapper@@UAGJKPAK@Z 10020c40 f   DP4Wrapper.obj
 0001:0001fc70       ?GetGroupName@CDPWrapper@@UAGJKPAXPAK@Z 10020c70 f   DP4Wrapper.obj
 0001:0001fca0       ?GetGroupOwner@CDPWrapper@@UAGJKPAK@Z 10020ca0 f   DP4Wrapper.obj
 0001:0001fcd0       ?GetGroupParent@CDPWrapper@@UAGJKPAK@Z 10020cd0 f   DP4Wrapper.obj
 0001:0001fd00       ?GetMessageCount@CDPWrapper@@UAGJKPAK@Z 10020d00 f   DP4Wrapper.obj
 0001:0001fd30       ?GetMessageQueue@CDPWrapper@@UAGJKKKPAK0@Z 10020d30 f   DP4Wrapper.obj
 0001:0001fd60       ?GetPlayerAccount@CDPWrapper@@UAGJKKPAXPAK@Z 10020d60 f   DP4Wrapper.obj
 0001:0001fd90       ?GetPlayerAddress@CDPWrapper@@UAGJKPAXPAK@Z 10020d90 f   DP4Wrapper.obj
 0001:0001fda0       ?GetPlayerCaps@CDPWrapper@@UAGJKPAUDPCAPS@@K@Z 10020da0 f   DP4Wrapper.obj
 0001:0001fdd0       ?GetPlayerData@CDPWrapper@@UAGJKPAXPAKK@Z 10020dd0 f   DP4Wrapper.obj
 0001:0001feb0       ?GetPlayerFlags@CDPWrapper@@UAGJKPAK@Z 10020eb0 f   DP4Wrapper.obj
 0001:0001fee0       ?GetPlayerName@CDPWrapper@@UAGJKPAXPAK@Z 10020ee0 f   DP4Wrapper.obj
 0001:0001ff10       ?GetSessionDesc@CDPWrapper@@UAGJPAXPAK@Z 10020f10 f   DP4Wrapper.obj
 0001:0001ff40       ?Initialize@CDPWrapper@@UAGJPAU_GUID@@@Z 10020f40 f   DP4Wrapper.obj
 0001:0001ff70       ?InitializeConnection@CDPWrapper@@UAGJPAXK@Z 10020f70 f   DP4Wrapper.obj
 0001:0001ff80       ?Open@CDPWrapper@@UAGJPAUDPSESSIONDESC2@@K@Z 10020f80 f   DP4Wrapper.obj
 0001:000200e0       ?Receive@CDPWrapper@@UAGJPAK0KPAX0@Z 100210e0 f   DP4Wrapper.obj
 0001:000202d0       ?SecureOpen@CDPWrapper@@UAGJPBUDPSESSIONDESC2@@KPBUDPSECURITYDESC@@PBUDPCREDENTIALS@@@Z 100212d0 f   DP4Wrapper.obj
 0001:00020300       ?Send@CDPWrapper@@UAGJKKKPAXK@Z 10021300 f   DP4Wrapper.obj
 0001:00020330       ?SendChatMessage@CDPWrapper@@UAGJKKKPAUDPCHAT@@@Z 10021330 f   DP4Wrapper.obj
 0001:00020360       ?SendEx@CDPWrapper@@UAGJKKKPAXKKK0PAK@Z 10021360 f   DP4Wrapper.obj
 0001:000203b0       ?SetGroupConnectionSettings@CDPWrapper@@UAGJKKPAUDPLCONNECTION@@@Z 100213b0 f   DP4Wrapper.obj
 0001:000203e0       ?SetGroupData@CDPWrapper@@UAGJKPAXKK@Z 100213e0 f   DP4Wrapper.obj
 0001:00020410       ?SetGroupName@CDPWrapper@@UAGJKPAUDPNAME@@K@Z 10021410 f   DP4Wrapper.obj
 0001:00020440       ?SetGroupOwner@CDPWrapper@@UAGJKK@Z 10021440 f   DP4Wrapper.obj
 0001:00020470       ?SetPlayerData@CDPWrapper@@UAGJKPAXKK@Z 10021470 f   DP4Wrapper.obj
 0001:00020570       ?SetPlayerName@CDPWrapper@@UAGJKPAUDPNAME@@K@Z 10021570 f   DP4Wrapper.obj
 0001:000205a0       ?SetSessionDesc@CDPWrapper@@UAGJPAUDPSESSIONDESC2@@K@Z 100215a0 f   DP4Wrapper.obj
 0001:000205d0       ?StartSession@CDPWrapper@@UAGJKK@Z 100215d0 f   DP4Wrapper.obj
 0001:00020600       ?FakeCoCreateInstance@@YGJABU_GUID@@PAUIUnknown@@K0PAPAX@Z 10021600 f   DP4Wrapper.obj
 0001:000206f0       ?WrapperTerm@@YAXXZ        100216f0 f   DP4Wrapper.obj
 0001:00020730       ??0CDPWrapper@@QAE@XZ      10021730 f i DP4Wrapper.obj
 0001:00020770       ??0IDirectPlay4@@QAE@XZ    10021770 f i DP4Wrapper.obj
 0001:000207a0       ??0IDirectPlay3@@QAE@XZ    100217a0 f i DP4Wrapper.obj
 0001:000207d0       ??0IDirectPlay2@@QAE@XZ    100217d0 f i DP4Wrapper.obj
 0001:00020800       ??0IUnknown@@QAE@XZ        10021800 f i DP4Wrapper.obj
 0001:00020820       ?drk_realloc@@YAPAXPAXI@Z  10021820 f   DynArray.obj
 0001:00020870       ?drk_nh_malloc@@YAPAXI@Z   10021870 f   DynArray.obj
 0001:000208c0       ?drk_free@@YAXPAX@Z        100218c0 f   DynArray.obj
 0001:00020910       ?DoResize@cDABaseSrvFns@@SAHPAPAXII@Z 10021910 f   DynArray.obj
 0001:000209b0       ??C?$GlobalPointer@UIMalloc@@@@QBEPAUIMalloc@@XZ 100219b0 f i DynArray.obj
 0001:000209d0       ?CollisionResolverHook@@YGXPBUtSpringInfo@@K@Z 100219d0 f   ErrorHanding.obj
 0001:00020a80       ?CellBinComputeFuncHook@@YAHHKK@Z 10021a80 f   ErrorHanding.obj
 0001:00020af0       ?ObjectAnglesFuncHook@@YAXH@Z 10021af0 f   ErrorHanding.obj
 0001:00020b50       ?OnCollideEvent@@YGHHHHMPAVcPhysClsn@@@Z 10021b50 f   ErrorHanding.obj
 0001:00020c00       ?LoopSampleCallbackHook@@YAXKH@Z 10021c00 f   ErrorHanding.obj
 0001:00020cc0       ?PropSndEnterCBHook@@YIHPAVcPropSndInstHigh@@HPBVcRoom@@PBVcRoomPortal@@ABUmxs_vector@@M@Z 10021cc0 f   ErrorHanding.obj
 0001:00020dd0       ?SpeechEndCallbackHook@@YAXHHH@Z 10021dd0 f   ErrorHanding.obj
 0001:00020ec0       ?mx_sub_vec_safe@@YAXPAUmxs_vector@@PBU1@1@Z 10021ec0 f   ErrorHanding.obj
 0001:00020f60       ?mx_dist_vec_safe@@YAMPAUmxs_vector@@0@Z 10021f60 f   ErrorHanding.obj
 0001:00021040       ?mx_subeq_vec@@YAXPAUmxs_vector@@0@Z 10022040 f   ErrorHanding.obj
 0001:00021080       ?mx_scale_vec@@YAXPAUmxs_vector@@0M@Z 10022080 f   ErrorHanding.obj
 0001:000210b0       ?mx_scaleeq_vec@@YAXPAUmxs_vector@@M@Z 100220b0 f   ErrorHanding.obj
 0001:000210e0       ?ValidateScriptModules@@YAXXZ 100220e0 f   FileHash.obj
 0001:000211c0       ??0ArchCache@@QAE@XZ       100221c0 f   Gamesys.obj
 0001:000211f0       ?CacheArchetype@CGamesysManager@@QAEXAAHPBD@Z 100221f0 f   Gamesys.obj
 0001:000212b0       ?CreateNewArchetype@CGamesysManager@@QAEHHPBD@Z 100222b0 f   Gamesys.obj
 0001:000213f0       ?InitializeArchCache@CGamesysManager@@QAEXK@Z 100223f0 f   Gamesys.obj
 0001:000219f0       ?AvatarWeaponsInit@CGamesysManager@@QAEXXZ 100229f0 f   Gamesys.obj
 0001:00021d10       ?AvatarWeaponsTerm@CGamesysManager@@QAEXXZ 10022d10 f   Gamesys.obj
 0001:00021e30       ?FakeLootInit@CGamesysManager@@QAEXXZ 10022e30 f   Gamesys.obj
 0001:00021f30       ?CreateBaseAvatar@CGamesysManager@@QAEXXZ 10022f30 f   Gamesys.obj
 0001:000222b0       ?CreateDerivedAvatars@CGamesysManager@@QAEXXZ 100232b0 f   Gamesys.obj
 0001:00022460       ?CreateProjectilePickups@CGamesysManager@@QAEXXZ 10023460 f   Gamesys.obj
 0001:00022850       ?PickupToLocalProjectile@CGamesysManager@@QAEHH@Z 10023850 f   Gamesys.obj
 0001:000228f0       ?LocalToPickupProjectile@CGamesysManager@@QAEHH@Z 100238f0 f   Gamesys.obj
 0001:000229b0       ?SetNetCategoryByName@CGamesysManager@@QAEXPBDW4eNetworkCategory@@@Z 100239b0 f   Gamesys.obj
 0001:00022a50       ?SetObjectName@CGamesysManager@@QAEHPBD0@Z 10023a50 f   Gamesys.obj
 0001:00022ae0       ?SetObjectName@CGamesysManager@@QAEHHPBD@Z 10023ae0 f   Gamesys.obj
 0001:00022b70       ?GetGamesysCrc@CGamesysManager@@QAEKXZ 10023b70 f   Gamesys.obj
 0001:00022b90       ?EventHandler@CGamesysManager@@UAEXHPAX@Z 10023b90 f   Gamesys.obj
 0001:00022be0       ?InitListeners@CGamesysManager@@QAEXXZ 10023be0 f   Gamesys.obj
 0001:00022c10       ?TermListeners@CGamesysManager@@QAEXXZ 10023c10 f   Gamesys.obj
 0001:00022c40       ?GamesysInit@@YAXXZ        10023c40 f   Gamesys.obj
 0001:00022c60       ?GamesysTerm@@YAXXZ        10023c60 f   Gamesys.obj
 0001:00022c80       ??C?$GlobalPointer@UIPropertyManager@@@@QBEPAUIPropertyManager@@XZ 10023c80 f i Gamesys.obj
 0001:00022ca0       ??C?$GlobalPointer@UIIntProperty@@@@QBEPAUIIntProperty@@XZ 10023ca0 f i Gamesys.obj
 0001:00022cc0       ??A?$map@HHU?$less@H@std@@V?$allocator@U?$pair@$$CBHH@std@@@2@@std@@QAEAAHABH@Z 10023cc0 f i Gamesys.obj
 0001:00022db0       ?begin@?$_Tree@V?$_Tmap_traits@HHU?$less@H@std@@V?$allocator@U?$pair@$$CBHH@std@@@2@$0A@@std@@@std@@QAE?AViterator@12@XZ 10023db0 f i Gamesys.obj
 0001:00022df0       ?end@?$_Tree@V?$_Tmap_traits@HHU?$less@H@std@@V?$allocator@U?$pair@$$CBHH@std@@@2@$0A@@std@@@std@@QAE?AViterator@12@XZ 10023df0 f i Gamesys.obj
 0001:00022e20       ?clear@?$_Tree@V?$_Tmap_traits@HHU?$less@H@std@@V?$allocator@U?$pair@$$CBHH@std@@@2@$0A@@std@@@std@@QAEXXZ 10023e20 f i Gamesys.obj
 0001:00022e90       ?find@?$_Tree@V?$_Tmap_traits@HHU?$less@H@std@@V?$allocator@U?$pair@$$CBHH@std@@@2@$0A@@std@@@std@@QAE?AViterator@12@ABH@Z 10023e90 f i Gamesys.obj
 0001:00022f70       ??0?$SimpleQueue@H@@QAE@XZ 10023f70 f i Gamesys.obj
 0001:00022fb0       ??1?$SimpleQueue@H@@QAE@XZ 10023fb0 f i Gamesys.obj
 0001:00022fe0       ?Push@?$SimpleQueue@H@@QAEXPAH@Z 10023fe0 f i Gamesys.obj
 0001:00023110       ?Pop@?$SimpleQueue@H@@QAEPAHXZ 10024110 f i Gamesys.obj
 0001:000231a0       ?GetSize@?$SimpleQueue@H@@QAEHXZ 100241a0 f i Gamesys.obj
 0001:000231c0       ??Citerator@?$_Tree@V?$_Tmap_traits@HHU?$less@H@std@@V?$allocator@U?$pair@$$CBHH@std@@@2@$0A@@std@@@std@@QBEPAU?$pair@$$CBHH@2@XZ 100241c0 f i Gamesys.obj
 0001:000231f0       ??Eiterator@?$_Tree@V?$_Tmap_traits@HHU?$less@H@std@@V?$allocator@U?$pair@$$CBHH@std@@@2@$0A@@std@@@std@@QAE?AV012@H@Z 100241f0 f i Gamesys.obj
 0001:00023260       ??9const_iterator@?$_Tree@V?$_Tmap_traits@HHU?$less@H@std@@V?$allocator@U?$pair@$$CBHH@std@@@2@$0A@@std@@@std@@QBE_NABV012@@Z 10024260 f i Gamesys.obj
 0001:000232a0       ?_Key@?$_Tree@V?$_Tmap_traits@HHU?$less@H@std@@V?$allocator@U?$pair@$$CBHH@std@@@2@$0A@@std@@@std@@KAABHPAU_Node@?$_Tree_nod@V?$_Tmap_traits@HHU?$less@H@std@@V?$allocator@U?$pair@$$CBHH@std@@@2@$0A@@std@@@2@@Z 100242a0 f i Gamesys.obj
 0001:000232d0       ?insert@?$_Tree@V?$_Tmap_traits@HHU?$less@H@std@@V?$allocator@U?$pair@$$CBHH@std@@@2@$0A@@std@@@std@@QAE?AViterator@12@V312@ABU?$pair@$$CBHH@2@@Z 100242d0 f i Gamesys.obj
 0001:000238e0       ?lower_bound@?$_Tree@V?$_Tmap_traits@HHU?$less@H@std@@V?$allocator@U?$pair@$$CBHH@std@@@2@$0A@@std@@@std@@QAE?AViterator@12@ABH@Z 100248e0 f i Gamesys.obj
 0001:00023920       ?_Erase@?$_Tree@V?$_Tmap_traits@HHU?$less@H@std@@V?$allocator@U?$pair@$$CBHH@std@@@2@$0A@@std@@@std@@IAEXPAU_Node@?$_Tree_nod@V?$_Tmap_traits@HHU?$less@H@std@@V?$allocator@U?$pair@$$CBHH@std@@@2@$0A@@std@@@2@@Z 10024920 f i Gamesys.obj
 0001:000239c0       ?_Lmost@?$_Tree@V?$_Tmap_traits@HHU?$less@H@std@@V?$allocator@U?$pair@$$CBHH@std@@@2@$0A@@std@@@std@@IAEAAPAU_Node@?$_Tree_nod@V?$_Tmap_traits@HHU?$less@H@std@@V?$allocator@U?$pair@$$CBHH@std@@@2@$0A@@std@@@2@XZ 100249c0 f i Gamesys.obj
 0001:000239f0       ?_Rmost@?$_Tree@V?$_Tmap_traits@HHU?$less@H@std@@V?$allocator@U?$pair@$$CBHH@std@@@2@$0A@@std@@@std@@IAEAAPAU_Node@?$_Tree_nod@V?$_Tmap_traits@HHU?$less@H@std@@V?$allocator@U?$pair@$$CBHH@std@@@2@$0A@@std@@@2@XZ 100249f0 f i Gamesys.obj
 0001:00023a20       ?_Root@?$_Tree@V?$_Tmap_traits@HHU?$less@H@std@@V?$allocator@U?$pair@$$CBHH@std@@@2@$0A@@std@@@std@@IAEAAPAU_Node@?$_Tree_nod@V?$_Tmap_traits@HHU?$less@H@std@@V?$allocator@U?$pair@$$CBHH@std@@@2@$0A@@std@@@2@XZ 10024a20 f i Gamesys.obj
 0001:00023a50       ??R?$less@H@std@@QBE_NABH0@Z 10024a50 f i Gamesys.obj
 0001:00023a80       ?Clear@?$SimpleQueue@H@@QAEXXZ 10024a80 f i Gamesys.obj
 0001:00023b20       ??0iterator@?$_Tree@V?$_Tmap_traits@HHU?$less@H@std@@V?$allocator@U?$pair@$$CBHH@std@@@2@$0A@@std@@@std@@QAE@PAU_Node@?$_Tree_nod@V?$_Tmap_traits@HHU?$less@H@std@@V?$allocator@U?$pair@$$CBHH@std@@@2@$0A@@std@@@2@@Z 10024b20 f i Gamesys.obj
 0001:00023b50       ??Diterator@?$_Tree@V?$_Tmap_traits@HHU?$less@H@std@@V?$allocator@U?$pair@$$CBHH@std@@@2@$0A@@std@@@std@@QBEAAU?$pair@$$CBHH@2@XZ 10024b50 f i Gamesys.obj
 0001:00023b80       ??Eiterator@?$_Tree@V?$_Tmap_traits@HHU?$less@H@std@@V?$allocator@U?$pair@$$CBHH@std@@@2@$0A@@std@@@std@@QAEAAV012@XZ 10024b80 f i Gamesys.obj
 0001:00023bb0       ??8const_iterator@?$_Tree@V?$_Tmap_traits@HHU?$less@H@std@@V?$allocator@U?$pair@$$CBHH@std@@@2@$0A@@std@@@std@@QBE_NABV012@@Z 10024bb0 f i Gamesys.obj
 0001:00023be0       ?_Mynode@const_iterator@?$_Tree@V?$_Tmap_traits@HHU?$less@H@std@@V?$allocator@U?$pair@$$CBHH@std@@@2@$0A@@std@@@std@@QBEPAU_Node@?$_Tree_nod@V?$_Tmap_traits@HHU?$less@H@std@@V?$allocator@U?$pair@$$CBHH@std@@@2@$0A@@std@@@3@XZ 10024be0 f i Gamesys.obj
 0001:00023c00       ??0?$pair@$$CBHH@std@@QAE@ABH0@Z 10024c00 f i Gamesys.obj
 0001:00023c30       ??0Element@?$SimpleQueue@H@@QAE@PAH@Z 10024c30 f i Gamesys.obj
 0001:00023c60       ?_Isnil@?$_Tree@V?$_Tmap_traits@HHU?$less@H@std@@V?$allocator@U?$pair@$$CBHH@std@@@2@$0A@@std@@@std@@KAAADPAU_Node@?$_Tree_nod@V?$_Tmap_traits@HHU?$less@H@std@@V?$allocator@U?$pair@$$CBHH@std@@@2@$0A@@std@@@2@@Z 10024c60 f i Gamesys.obj
 0001:00023c70       ?_Left@?$_Tree@V?$_Tmap_traits@HHU?$less@H@std@@V?$allocator@U?$pair@$$CBHH@std@@@2@$0A@@std@@@std@@KAAAPAU_Node@?$_Tree_nod@V?$_Tmap_traits@HHU?$less@H@std@@V?$allocator@U?$pair@$$CBHH@std@@@2@$0A@@std@@@2@PAU342@@Z 10024c70 f i Gamesys.obj
 0001:00023c80       ?_Parent@?$_Tree@V?$_Tmap_traits@HHU?$less@H@std@@V?$allocator@U?$pair@$$CBHH@std@@@2@$0A@@std@@@std@@KAAAPAU_Node@?$_Tree_nod@V?$_Tmap_traits@HHU?$less@H@std@@V?$allocator@U?$pair@$$CBHH@std@@@2@$0A@@std@@@2@PAU342@@Z 10024c80 f i Gamesys.obj
 0001:00023c90       ?_Right@?$_Tree@V?$_Tmap_traits@HHU?$less@H@std@@V?$allocator@U?$pair@$$CBHH@std@@@2@$0A@@std@@@std@@KAAAPAU_Node@?$_Tree_nod@V?$_Tmap_traits@HHU?$less@H@std@@V?$allocator@U?$pair@$$CBHH@std@@@2@$0A@@std@@@2@PAU342@@Z 10024c90 f i Gamesys.obj
 0001:00023ca0       ?_Myval@?$_Tree@V?$_Tmap_traits@HHU?$less@H@std@@V?$allocator@U?$pair@$$CBHH@std@@@2@$0A@@std@@@std@@KAAAU?$pair@$$CBHH@2@PAU_Node@?$_Tree_nod@V?$_Tmap_traits@HHU?$less@H@std@@V?$allocator@U?$pair@$$CBHH@std@@@2@$0A@@std@@@2@@Z 10024ca0 f i Gamesys.obj
 0001:00023cb0       ?size@?$_Tree@V?$_Tmap_traits@HHU?$less@H@std@@V?$allocator@U?$pair@$$CBHH@std@@@2@$0A@@std@@@std@@QBEIXZ 10024cb0 f i Gamesys.obj
 0001:00023cd0       ?insert@?$_Tree@V?$_Tmap_traits@HHU?$less@H@std@@V?$allocator@U?$pair@$$CBHH@std@@@2@$0A@@std@@@std@@QAE?AU?$pair@Viterator@?$_Tree@V?$_Tmap_traits@HHU?$less@H@std@@V?$allocator@U?$pair@$$CBHH@std@@@2@$0A@@std@@@std@@_N@2@ABU?$pair@$$CBHH@2@@Z 10024cd0 f i Gamesys.obj
 0001:00023ed0       ?_Insert@?$_Tree@V?$_Tmap_traits@HHU?$less@H@std@@V?$allocator@U?$pair@$$CBHH@std@@@2@$0A@@std@@@std@@IAE?AViterator@12@_NPAU_Node@?$_Tree_nod@V?$_Tmap_traits@HHU?$less@H@std@@V?$allocator@U?$pair@$$CBHH@std@@@2@$0A@@std@@@2@ABU?$pair@$$CBHH@2@@Z 10024ed0 f i Gamesys.obj
 0001:00024350       ?_Lbound@?$_Tree@V?$_Tmap_traits@HHU?$less@H@std@@V?$allocator@U?$pair@$$CBHH@std@@@2@$0A@@std@@@std@@IBEPAU_Node@?$_Tree_nod@V?$_Tmap_traits@HHU?$less@H@std@@V?$allocator@U?$pair@$$CBHH@std@@@2@$0A@@std@@@2@ABH@Z 10025350 f i Gamesys.obj
 0001:00024400       ?_Kfn@?$_Tmap_traits@HHU?$less@H@std@@V?$allocator@U?$pair@$$CBHH@std@@@2@$0A@@std@@SAABHABU?$pair@$$CBHH@2@@Z 10025400 f i Gamesys.obj
 0001:00024410       ?deallocate@?$allocator@U_Node@?$_Tree_nod@V?$_Tmap_traits@HHU?$less@H@std@@V?$allocator@U?$pair@$$CBHH@std@@@2@$0A@@std@@@std@@@std@@QAEXPAU_Node@?$_Tree_nod@V?$_Tmap_traits@HHU?$less@H@std@@V?$allocator@U?$pair@$$CBHH@std@@@2@$0A@@std@@@2@I@Z 10025410 f i Gamesys.obj
 0001:00024440       ?destroy@?$allocator@U_Node@?$_Tree_nod@V?$_Tmap_traits@HHU?$less@H@std@@V?$allocator@U?$pair@$$CBHH@std@@@2@$0A@@std@@@std@@@std@@QAEXPAU_Node@?$_Tree_nod@V?$_Tmap_traits@HHU?$less@H@std@@V?$allocator@U?$pair@$$CBHH@std@@@2@$0A@@std@@@2@@Z 10025440 f i Gamesys.obj
 0001:00024470       ??0iterator@?$_Tree@V?$_Tmap_traits@HHU?$less@H@std@@V?$allocator@U?$pair@$$CBHH@std@@@2@$0A@@std@@@std@@QAE@XZ 10025470 f i Gamesys.obj
 0001:000244a0       ??Fiterator@?$_Tree@V?$_Tmap_traits@HHU?$less@H@std@@V?$allocator@U?$pair@$$CBHH@std@@@2@$0A@@std@@@std@@QAEAAV012@XZ 100254a0 f i Gamesys.obj
 0001:000244d0       ??0const_iterator@?$_Tree@V?$_Tmap_traits@HHU?$less@H@std@@V?$allocator@U?$pair@$$CBHH@std@@@2@$0A@@std@@@std@@QAE@PAU_Node@?$_Tree_nod@V?$_Tmap_traits@HHU?$less@H@std@@V?$allocator@U?$pair@$$CBHH@std@@@2@$0A@@std@@@2@@Z 100254d0 f i Gamesys.obj
 0001:000244f0       ??Dconst_iterator@?$_Tree@V?$_Tmap_traits@HHU?$less@H@std@@V?$allocator@U?$pair@$$CBHH@std@@@2@$0A@@std@@@std@@QBEABU?$pair@$$CBHH@2@XZ 100254f0 f i Gamesys.obj
 0001:00024520       ??Econst_iterator@?$_Tree@V?$_Tmap_traits@HHU?$less@H@std@@V?$allocator@U?$pair@$$CBHH@std@@@2@$0A@@std@@@std@@QAEAAV012@XZ 10025520 f i Gamesys.obj
 0001:00024550       ?_Color@?$_Tree@V?$_Tmap_traits@HHU?$less@H@std@@V?$allocator@U?$pair@$$CBHH@std@@@2@$0A@@std@@@std@@KAAADPAU_Node@?$_Tree_nod@V?$_Tmap_traits@HHU?$less@H@std@@V?$allocator@U?$pair@$$CBHH@std@@@2@$0A@@std@@@2@@Z 10025550 f i Gamesys.obj
 0001:00024560       ?max_size@?$_Tree@V?$_Tmap_traits@HHU?$less@H@std@@V?$allocator@U?$pair@$$CBHH@std@@@2@$0A@@std@@@std@@QBEIXZ 10025560 f i Gamesys.obj
 0001:00024590       ?_Lrotate@?$_Tree@V?$_Tmap_traits@HHU?$less@H@std@@V?$allocator@U?$pair@$$CBHH@std@@@2@$0A@@std@@@std@@IAEXPAU_Node@?$_Tree_nod@V?$_Tmap_traits@HHU?$less@H@std@@V?$allocator@U?$pair@$$CBHH@std@@@2@$0A@@std@@@2@@Z 10025590 f i Gamesys.obj
 0001:000246e0       ?_Root@?$_Tree@V?$_Tmap_traits@HHU?$less@H@std@@V?$allocator@U?$pair@$$CBHH@std@@@2@$0A@@std@@@std@@IBEAAPAU_Node@?$_Tree_nod@V?$_Tmap_traits@HHU?$less@H@std@@V?$allocator@U?$pair@$$CBHH@std@@@2@$0A@@std@@@2@XZ 100256e0 f i Gamesys.obj
 0001:00024710       ?_Rrotate@?$_Tree@V?$_Tmap_traits@HHU?$less@H@std@@V?$allocator@U?$pair@$$CBHH@std@@@2@$0A@@std@@@std@@IAEXPAU_Node@?$_Tree_nod@V?$_Tmap_traits@HHU?$less@H@std@@V?$allocator@U?$pair@$$CBHH@std@@@2@$0A@@std@@@2@@Z 10025710 f i Gamesys.obj
 0001:00024860       ?_Buynode@?$_Tree@V?$_Tmap_traits@HHU?$less@H@std@@V?$allocator@U?$pair@$$CBHH@std@@@2@$0A@@std@@@std@@IAEPAU_Node@?$_Tree_nod@V?$_Tmap_traits@HHU?$less@H@std@@V?$allocator@U?$pair@$$CBHH@std@@@2@$0A@@std@@@2@PAU342@00ABU?$pair@$$CBHH@2@D@Z 10025860 f i Gamesys.obj
 0001:00024950       ??0const_iterator@?$_Tree@V?$_Tmap_traits@HHU?$less@H@std@@V?$allocator@U?$pair@$$CBHH@std@@@2@$0A@@std@@@std@@QAE@XZ 10025950 f i Gamesys.obj
 0001:00024970       ??Fconst_iterator@?$_Tree@V?$_Tmap_traits@HHU?$less@H@std@@V?$allocator@U?$pair@$$CBHH@std@@@2@$0A@@std@@@std@@QAEAAV012@XZ 10025970 f i Gamesys.obj
 0001:000249a0       ?_Inc@const_iterator@?$_Tree@V?$_Tmap_traits@HHU?$less@H@std@@V?$allocator@U?$pair@$$CBHH@std@@@2@$0A@@std@@@std@@QAEXXZ 100259a0 f i Gamesys.obj
 0001:00024a70       ??0?$pair@Viterator@?$_Tree@V?$_Tmap_traits@HHU?$less@H@std@@V?$allocator@U?$pair@$$CBHH@std@@@2@$0A@@std@@@std@@_N@std@@QAE@ABViterator@?$_Tree@V?$_Tmap_traits@HHU?$less@H@std@@V?$allocator@U?$pair@$$CBHH@std@@@2@$0A@@std@@@1@AB_N@Z 10025a70 f i Gamesys.obj
 0001:00024aa0       ?_Min@?$_Tree@V?$_Tmap_traits@HHU?$less@H@std@@V?$allocator@U?$pair@$$CBHH@std@@@2@$0A@@std@@@std@@KAPAU_Node@?$_Tree_nod@V?$_Tmap_traits@HHU?$less@H@std@@V?$allocator@U?$pair@$$CBHH@std@@@2@$0A@@std@@@2@PAU342@@Z 10025aa0 f i Gamesys.obj
 0001:00024ae0       ?max_size@?$allocator@U?$pair@$$CBHH@std@@@std@@QBEIXZ 10025ae0 f i Gamesys.obj
 0001:00024b30       ?allocate@?$allocator@U_Node@?$_Tree_nod@V?$_Tmap_traits@HHU?$less@H@std@@V?$allocator@U?$pair@$$CBHH@std@@@2@$0A@@std@@@std@@@std@@QAEPAU_Node@?$_Tree_nod@V?$_Tmap_traits@HHU?$less@H@std@@V?$allocator@U?$pair@$$CBHH@std@@@2@$0A@@std@@@2@I@Z 10025b30 f i Gamesys.obj
 0001:00024b60       ?_Dec@const_iterator@?$_Tree@V?$_Tmap_traits@HHU?$less@H@std@@V?$allocator@U?$pair@$$CBHH@std@@@2@$0A@@std@@@std@@QAEXXZ 10025b60 f i Gamesys.obj
 0001:00024c60       ?_Max@?$_Tree@V?$_Tmap_traits@HHU?$less@H@std@@V?$allocator@U?$pair@$$CBHH@std@@@2@$0A@@std@@@std@@KAPAU_Node@?$_Tree_nod@V?$_Tmap_traits@HHU?$less@H@std@@V?$allocator@U?$pair@$$CBHH@std@@@2@$0A@@std@@@2@PAU342@@Z 10025c60 f i Gamesys.obj
 0001:00024ca0       ??0_Node@?$_Tree_nod@V?$_Tmap_traits@HHU?$less@H@std@@V?$allocator@U?$pair@$$CBHH@std@@@2@$0A@@std@@@std@@QAE@PAU012@00ABU?$pair@$$CBHH@2@D@Z 10025ca0 f i Gamesys.obj
 0001:00024d00       ??$_Destroy@U_Node@?$_Tree_nod@V?$_Tmap_traits@HHU?$less@H@std@@V?$allocator@U?$pair@$$CBHH@std@@@2@$0A@@std@@@std@@@std@@YAXPAU_Node@?$_Tree_nod@V?$_Tmap_traits@HHU?$less@H@std@@V?$allocator@U?$pair@$$CBHH@std@@@2@$0A@@std@@@0@@Z 10025d00 f i Gamesys.obj
 0001:00024d10       ??$_Allocate@U_Node@?$_Tree_nod@V?$_Tmap_traits@HHU?$less@H@std@@V?$allocator@U?$pair@$$CBHH@std@@@2@$0A@@std@@@std@@@std@@YAPAU_Node@?$_Tree_nod@V?$_Tmap_traits@HHU?$less@H@std@@V?$allocator@U?$pair@$$CBHH@std@@@2@$0A@@std@@@0@IPAU120@@Z 10025d10 f i Gamesys.obj
 0001:00024d30       ??0CGamesysManager@@QAE@XZ 10025d30 f i Gamesys.obj
 0001:00024d80       ??0?$map@HHU?$less@H@std@@V?$allocator@U?$pair@$$CBHH@std@@@2@@std@@QAE@XZ 10025d80 f i Gamesys.obj
 0001:00024dc0       ??0?$_Tree@V?$_Tmap_traits@HHU?$less@H@std@@V?$allocator@U?$pair@$$CBHH@std@@@2@$0A@@std@@@std@@QAE@ABU?$less@H@1@ABV?$allocator@U?$pair@$$CBHH@std@@@1@@Z 10025dc0 f i Gamesys.obj
 0001:00024e10       ??0?$allocator@U?$pair@$$CBHH@std@@@std@@QAE@XZ 10025e10 f i Gamesys.obj
 0001:00024e30       ?_Init@?$_Tree@V?$_Tmap_traits@HHU?$less@H@std@@V?$allocator@U?$pair@$$CBHH@std@@@2@$0A@@std@@@std@@IAEXXZ 10025e30 f i Gamesys.obj
 0001:00024eb0       ??0?$_Tree_val@V?$_Tmap_traits@HHU?$less@H@std@@V?$allocator@U?$pair@$$CBHH@std@@@2@$0A@@std@@@std@@IAE@ABU?$less@H@1@V?$allocator@U?$pair@$$CBHH@std@@@1@@Z 10025eb0 f i Gamesys.obj
 0001:00024f10       ??0?$allocator@U?$pair@$$CBHH@std@@@std@@QAE@ABV01@@Z 10025f10 f i Gamesys.obj
 0001:00024f30       ?_Buynode@?$_Tree@V?$_Tmap_traits@HHU?$less@H@std@@V?$allocator@U?$pair@$$CBHH@std@@@2@$0A@@std@@@std@@IAEPAU_Node@?$_Tree_nod@V?$_Tmap_traits@HHU?$less@H@std@@V?$allocator@U?$pair@$$CBHH@std@@@2@$0A@@std@@@2@XZ 10025f30 f i Gamesys.obj
 0001:000250c0       ?destroy@?$allocator@PAU_Node@?$_Tree_nod@V?$_Tmap_traits@HHU?$less@H@std@@V?$allocator@U?$pair@$$CBHH@std@@@2@$0A@@std@@@std@@@std@@QAEXPAPAU_Node@?$_Tree_nod@V?$_Tmap_traits@HHU?$less@H@std@@V?$allocator@U?$pair@$$CBHH@std@@@2@$0A@@std@@@2@@Z 100260c0 f i Gamesys.obj
 0001:000250f0       ??0?$_Tree_ptr@V?$_Tmap_traits@HHU?$less@H@std@@V?$allocator@U?$pair@$$CBHH@std@@@2@$0A@@std@@@std@@IAE@ABU?$less@H@1@V?$allocator@U?$pair@$$CBHH@std@@@1@@Z 100260f0 f i Gamesys.obj
 0001:00025150       ??0?$_Tree_nod@V?$_Tmap_traits@HHU?$less@H@std@@V?$allocator@U?$pair@$$CBHH@std@@@2@$0A@@std@@@std@@IAE@ABU?$less@H@1@V?$allocator@U?$pair@$$CBHH@std@@@1@@Z 10026150 f i Gamesys.obj
 0001:00025190       ?construct@?$allocator@PAU_Node@?$_Tree_nod@V?$_Tmap_traits@HHU?$less@H@std@@V?$allocator@U?$pair@$$CBHH@std@@@2@$0A@@std@@@std@@@std@@QAEXPAPAU_Node@?$_Tree_nod@V?$_Tmap_traits@HHU?$less@H@std@@V?$allocator@U?$pair@$$CBHH@std@@@2@$0A@@std@@@2@ABQAU342@@Z 10026190 f i Gamesys.obj
 0001:000251c0       ??0?$_Tmap_traits@HHU?$less@H@std@@V?$allocator@U?$pair@$$CBHH@std@@@2@$0A@@std@@QAE@U?$less@H@1@@Z 100261c0 f i Gamesys.obj
 0001:000251e0       ??$_Destroy@PAU_Node@?$_Tree_nod@V?$_Tmap_traits@HHU?$less@H@std@@V?$allocator@U?$pair@$$CBHH@std@@@2@$0A@@std@@@std@@@std@@YAXPAPAU_Node@?$_Tree_nod@V?$_Tmap_traits@HHU?$less@H@std@@V?$allocator@U?$pair@$$CBHH@std@@@2@$0A@@std@@@0@@Z 100261e0 f i Gamesys.obj
 0001:000251f0       ??$?0U?$pair@$$CBHH@std@@@?$allocator@PAU_Node@?$_Tree_nod@V?$_Tmap_traits@HHU?$less@H@std@@V?$allocator@U?$pair@$$CBHH@std@@@2@$0A@@std@@@std@@@std@@QAE@ABV?$allocator@U?$pair@$$CBHH@std@@@1@@Z 100261f0 f i Gamesys.obj
 0001:00025210       ??$?0U?$pair@$$CBHH@std@@@?$allocator@U_Node@?$_Tree_nod@V?$_Tmap_traits@HHU?$less@H@std@@V?$allocator@U?$pair@$$CBHH@std@@@2@$0A@@std@@@std@@@std@@QAE@ABV?$allocator@U?$pair@$$CBHH@std@@@1@@Z 10026210 f i Gamesys.obj
 0001:00025230       ??$_Construct@PAU_Node@?$_Tree_nod@V?$_Tmap_traits@HHU?$less@H@std@@V?$allocator@U?$pair@$$CBHH@std@@@2@$0A@@std@@@std@@PAU123@@std@@YAXPAPAU_Node@?$_Tree_nod@V?$_Tmap_traits@HHU?$less@H@std@@V?$allocator@U?$pair@$$CBHH@std@@@2@$0A@@std@@@0@ABQAU120@@Z 10026230 f i Gamesys.obj
 0001:00025290       ??1CGamesysManager@@QAE@XZ 10026290 f i Gamesys.obj
 0001:000252c0       ??1?$map@HHU?$less@H@std@@V?$allocator@U?$pair@$$CBHH@std@@@2@@std@@QAE@XZ 100262c0 f i Gamesys.obj
 0001:000252f0       ??1?$_Tree@V?$_Tmap_traits@HHU?$less@H@std@@V?$allocator@U?$pair@$$CBHH@std@@@2@$0A@@std@@@std@@QAE@XZ 100262f0 f i Gamesys.obj
 0001:00025320       ?_Tidy@?$_Tree@V?$_Tmap_traits@HHU?$less@H@std@@V?$allocator@U?$pair@$$CBHH@std@@@2@$0A@@std@@@std@@IAEXXZ 10026320 f i Gamesys.obj
 0001:000253f0       ?erase@?$_Tree@V?$_Tmap_traits@HHU?$less@H@std@@V?$allocator@U?$pair@$$CBHH@std@@@2@$0A@@std@@@std@@QAE?AViterator@12@V312@0@Z 100263f0 f i Gamesys.obj
 0001:000254b0       ?erase@?$_Tree@V?$_Tmap_traits@HHU?$less@H@std@@V?$allocator@U?$pair@$$CBHH@std@@@2@$0A@@std@@@std@@QAE?AViterator@12@V312@@Z 100264b0 f i Gamesys.obj
 0001:00025c90       ?GhostSetTagList@@YAXHPBD@Z 10026c90 f   Ghost.obj
 0001:00025ce0       ?GhostSetLocalAnimation@@YAXHF@Z 10026ce0 f   Ghost.obj
 0001:00025d30       ?GhostHeartbeatFrequencyMax@@YAHPAUsGhostLocal@@PAUsGhostPos@@@Z 10026d30 f   Ghost.obj
 0001:00025d50       ?IsNewPacketNeededHook@@YGHPAUsGhostLocal@@PAUsGhostPos@@@Z 10026d50 f   Ghost.obj
 0001:00025e00       ?GhostStateToString@@YAPBDH@Z 10026e00 f   Ghost.obj
 0001:00025f20       ?GhostAttachWeapon@@YAXHD@Z 10026f20 f   Ghost.obj
 0001:00026210       ?OnGhostJumpOff@@YGXH@Z    10027210 f   Ghost.obj
 0001:00026360       ?GhostFireListener@@YAXHPAVcCreature@@KK@Z 10027360 f   Ghost.obj
 0001:000263a0       ?GhostInstallFireListener@@YAXH@Z 100273a0 f   Ghost.obj
 0001:000263b0       ?_ghost_pos_centerconvert@@YAXHPAUmxs_vector@@@Z 100273b0 f   Ghost.obj
 0001:00026440       ?GhostAllowedToBuildModels@@YAHPAUsGhostRemote@@@Z 10027440 f   Ghost.obj
 0001:000264f0       ?UpdateGhostPrediction@@YAXPAUsGhostRemote@@M@Z 100274f0 f   Ghost.obj
 0001:000265e0       ?GhostPerFrameModeUpdate@@YA_NPAUsGhostRemote@@@Z 100275e0 f   Ghost.obj
 0001:00026680       ?MocapRunMe@@YAXPAUsGhostRemote@@PAD@Z 10027680 f   Ghost.obj
 0001:00026740       ?IsUpdateNeeded@@YA_NH@Z   10027740 f   Ghost.obj
 0001:00026840       ?GhostFrameProcessLocal@@YAXPAUsGhostLocal@@M@Z 10027840 f   Ghost.obj
 0001:00026a90       ?_GhostConfigureRemoteModels@@YAXPAUsGhostRemote@@@Z 10027a90 f   Ghost.obj
 0001:00026b30       ?GhostFrameProcessRemote@@YAXPAUsGhostRemote@@M@Z 10027b30 f   Ghost.obj
 0001:00026c70       ?InitHook@@YAXXZ           10027c70 f   Init.obj
 0001:00026ca0       ?InitGame@@YAXXZ           10027ca0 f   Init.obj
 0001:00026cd0       ?TermGame@@YAXXZ           10027cd0 f   Init.obj
 0001:00026d00       ?ShutdownHook@@YAXXZ       10027d00 f   Init.obj
 0001:00026d30       ?IsSimTimePassing@@YA_NXZ  10027d30 f   LG.obj
 0001:00026d60       ?Find@sChainedEvent@@QAEPBU1@K@Z 10027d60 f   LG.obj
 0001:00026dc0       ?GetTransSpeedScale@cPlayerMode@@QAEMXZ 10027dc0 f   LG.obj
 0001:00026e40       ?NewPickLockPerFrameCallback@@YGXHK@Z 10027e40 f   LG.obj
 0001:00026f90       ?ArrowObjectExists@@YA_NXZ 10027f90 f   LG.obj
 0001:00026fb0       ?DestroyArrowObject@@YAXXZ 10027fb0 f   LG.obj
 0001:00027010       ?ForceFinishBowAttack@@YAX_N@Z 10028010 f   LG.obj
 0001:000270a0       ?NewUpdateBowAttack@@YGXXZ 100280a0 f   LG.obj
 0001:000273d0       ?CursorPalette@cDarkPanel@@UAEPAUIDarkDataSource@@XZ 100283d0 f   LG.obj
 0001:000274c0       ?OnLoopMsg@cDarkPanel@@UAEXHPAUtLoopMessageData__@@@Z 100284c0 f   LG.obj
 0001:00027540       ?Append@cAnsiStr@@QAEXHPBD@Z 10028540 f   LG.obj
 0001:00027580       ?Assign@cAnsiStr@@QAEXHPBD@Z 10028580 f   LG.obj
 0001:00027650       ?FreeStr@cAnsiStr@@QAEXPAD@Z 10028650 f   LG.obj
 0001:000276b0       ?ReallocStr@cAnsiStr@@QAEPADPADH@Z 100286b0 f   LG.obj
 0001:00027710       ?QueryInterface@IUnknownImpl@@EAGJABU_GUID@@PAPAX@Z 10028710 f   LG.obj
 0001:00027750       ?AddRef@IUnknownImpl@@EAGKXZ 10028750 f   LG.obj
 0001:00027770       ?Release@IUnknownImpl@@EAGKXZ 10028770 f   LG.obj
 0001:000277c0       ??0cAvatar@@QAE@HK@Z       100287c0 f   LG.obj
 0001:00027810       ?PlayerNum@cAvatar@@UAGKXZ 10028810 f   LG.obj
 0001:00027820       ?PlayerObjID@cAvatar@@UAGHXZ 10028820 f   LG.obj
 0001:00027830       ?WriteTagInfo@cAvatar@@UAGXPAUITagFile@@@Z 10028830 f   LG.obj
 0001:00027880       ??0IUnknownImpl@@QAE@XZ    10028880 f i LG.obj
 0001:000278b0       ??A?$cDynArray@USpeedScale@@@@QAEAAUSpeedScale@@I@Z 100288b0 f i LG.obj
 0001:000278d0       ?Size@?$cDynArray@USpeedScale@@@@QAEKXZ 100288d0 f i LG.obj
 0001:000278f0       ?SimulationLoopHook@@YGHKW4eLoopMsgType@@PAUtLoopMessageData__@@@Z 100288f0 f   LoopClients.obj
 0001:00027980       ?RenderLoopHook@@YGHKW4eLoopMsgType@@PAUtLoopMessageData__@@@Z 10028980 f   LoopClients.obj
 0001:00027ab0       ?SimLoopClientHook@@YGHKW4eLoopMsgType@@PAUtLoopMessageData__@@@Z 10028ab0 f   LoopClients.obj
 0001:00027bb0       ?GameModeLoopClientHook@@YGHKW4eLoopMsgType@@PAUtLoopMessageData__@@@Z 10028bb0 f   LoopClients.obj
 0001:00027c70       ?ObjSysLoopClientHook@@YGHKW4eLoopMsgType@@PAUtLoopMessageData__@@@Z 10028c70 f   LoopClients.obj
 0001:00027d50       _DllMain@12                10028d50 f   Main.obj
 0001:00027de0       ?PumpEventsHook@@YGXPAKHW4eWinPumpDuration@@@Z 10028de0 f   Main.obj
 0001:00027e70       ??0?$GlobalPointer@UIPropertyManager@@@@QAE@I@Z 10028e70 f i Main.obj
 0001:00027e90       ??0?$GlobalPointer@UIReactions@@@@QAE@I@Z 10028e90 f i Main.obj
 0001:00027eb0       ??0?$GlobalPointer@UINetManager@@@@QAE@I@Z 10028eb0 f i Main.obj
 0001:00027ed0       ??0?$GlobalPointer@UINet@@@@QAE@I@Z 10028ed0 f i Main.obj
 0001:00027ef0       ??0?$GlobalPointer@UIObjectSystem@@@@QAE@I@Z 10028ef0 f i Main.obj
 0001:00027f10       ??0?$GlobalPointer@UIObjectNetworking@@@@QAE@I@Z 10028f10 f i Main.obj
 0001:00027f30       ??0?$GlobalPointer@UIInputBinder@@@@QAE@I@Z 10028f30 f i Main.obj
 0001:00027f50       ??0?$GlobalPointer@UIAIManager@@@@QAE@I@Z 10028f50 f i Main.obj
 0001:00027f70       ??0?$GlobalPointer@UIContainSys@@@@QAE@I@Z 10028f70 f i Main.obj
 0001:00027f90       ??0?$GlobalPointer@UITraitManager@@@@QAE@I@Z 10028f90 f i Main.obj
 0001:00027fb0       ??0?$GlobalPointer@UIInventory@@@@QAE@I@Z 10028fb0 f i Main.obj
 0001:00027fd0       ??0?$GlobalPointer@UILinkManager@@@@QAE@I@Z 10028fd0 f i Main.obj
 0001:00027ff0       ??0?$GlobalPointer@VcPlayerMode@@@@QAE@I@Z 10028ff0 f i Main.obj
 0001:00028010       ??0?$GlobalPointer@VcWinAppOperations@cWindowsApplication@@@@QAE@I@Z 10029010 f i Main.obj
 0001:00028030       ??0?$GlobalPointer@VcPhysModels@@@@QAE@I@Z 10029030 f i Main.obj
 0001:00028050       ??0?$GlobalPointer@UIMalloc@@@@QAE@I@Z 10029050 f i Main.obj
 0001:00028070       ??0?$GlobalPointer@UIScriptMan@@@@QAE@I@Z 10029070 f i Main.obj
 0001:00028090       ??0?$GlobalPointer@UIMotionSet@@@@QAE@I@Z 10029090 f i Main.obj
 0001:000280b0       ??0?$GlobalPointer@UIGenericProperty@@@@QAE@I@Z 100290b0 f i Main.obj
 0001:000280d0       ??0?$GlobalPointer@UIBoolProperty@@@@QAE@I@Z 100290d0 f i Main.obj
 0001:000280f0       ??0?$GlobalPointer@UIStringProperty@@@@QAE@I@Z 100290f0 f i Main.obj
 0001:00028110       ??0?$GlobalPointer@UIIntProperty@@@@QAE@I@Z 10029110 f i Main.obj
 0001:00028130       ??0?$GlobalPointer@UIFloatProperty@@@@QAE@I@Z 10029130 f i Main.obj
 0001:00028150       ??0?$GlobalPointer@UILabelProperty@@@@QAE@I@Z 10029150 f i Main.obj
 0001:00028170       ??0?$GlobalPointer@UIVectorProperty@@@@QAE@I@Z 10029170 f i Main.obj
 0001:00028190       ??0?$GlobalPointer@UIAIRatingProperty@@@@QAE@I@Z 10029190 f i Main.obj
 0001:000281b0       ??0?$GlobalPointer@UIRelation@@@@QAE@I@Z 100291b0 f i Main.obj
 0001:000281d0       ??0?$GlobalPointer@UISearchPath@@@@QAE@I@Z 100291d0 f i Main.obj
 0001:000281f0       ??0?$GlobalPointer@Ugrd_canvas@@@@QAE@I@Z 100291f0 f i Main.obj
 0001:00028210       ??0?$GlobalPointer@UINetPlayerProperty@@@@QAE@I@Z 10029210 f i Main.obj
 0001:00028230       ??0Message@@QAE@PBDM@Z     10029230 f   MessageManager.obj
 0001:000282c0       ??1Message@@UAE@XZ         100292c0 f   MessageManager.obj
 0001:00028310       ??0MessageMgr@@QAE@XZ      10029310 f   MessageManager.obj
 0001:00028390       ??1MessageMgr@@UAE@XZ      10029390 f   MessageManager.obj
 0001:00028410       ?Get@MessageMgr@@SAPAV1@XZ 10029410 f   MessageManager.obj
 0001:000284b0       ?Shutdown@MessageMgr@@SAXXZ 100294b0 f   MessageManager.obj
 0001:00028520       ?AddLine@MessageMgr@@QAEX_NPBD@Z 10029520 f   MessageManager.obj
 0001:00028660       ?AddLineFormat@MessageMgr@@QAAX_NPBDZZ 10029660 f   MessageManager.obj
 0001:00028720       ?ClearMessages@MessageMgr@@QAEXXZ 10029720 f   MessageManager.obj
 0001:00028800       ?DeleteTopmost@MessageMgr@@IAEXXZ 10029800 f   MessageManager.obj
 0001:000288b0       ?DrawInput@MessageMgr@@QAEXXZ 100298b0 f   MessageManager.obj
 0001:00028bc0       ?EnableRendering@MessageMgr@@QAEX_N@Z 10029bc0 f   MessageManager.obj
 0001:00028be0       ?Update@MessageMgr@@QAEXXZ 10029be0 f   MessageManager.obj
 0001:00028f60       ??_GMessage@@UAEPAXI@Z     10029f60 f i MessageManager.obj
 0001:00028f60       ??_EMessage@@UAEPAXI@Z     10029f60 f i MessageManager.obj
 0001:00028fa0       ??_GMessageMgr@@UAEPAXI@Z  10029fa0 f i MessageManager.obj
 0001:00028fa0       ??_EMessageMgr@@UAEPAXI@Z  10029fa0 f i MessageManager.obj
 0001:00028fe0       ?GetExpireTime@Message@@QBEMXZ 10029fe0 f i MessageManager.obj
 0001:00029000       ?GetText@Message@@QBEPBDXZ 1002a000 f i MessageManager.obj
 0001:00029020       ??0?$list@PAVMessage@@V?$allocator@PAVMessage@@@std@@@std@@QAE@XZ 1002a020 f i MessageManager.obj
 0001:00029070       ??1?$list@PAVMessage@@V?$allocator@PAVMessage@@@std@@@std@@QAE@XZ 1002a070 f i MessageManager.obj
 0001:000290a0       ?begin@?$list@PAVMessage@@V?$allocator@PAVMessage@@@std@@@std@@QAE?AViterator@12@XZ 1002a0a0 f i MessageManager.obj
 0001:000290e0       ?end@?$list@PAVMessage@@V?$allocator@PAVMessage@@@std@@@std@@QAE?AViterator@12@XZ 1002a0e0 f i MessageManager.obj
 0001:00029110       ?size@?$list@PAVMessage@@V?$allocator@PAVMessage@@@std@@@std@@QBEIXZ 1002a110 f i MessageManager.obj
 0001:00029130       ?empty@?$list@PAVMessage@@V?$allocator@PAVMessage@@@std@@@std@@QBE_NXZ 1002a130 f i MessageManager.obj
 0001:00029150       ?front@?$list@PAVMessage@@V?$allocator@PAVMessage@@@std@@@std@@QAEAAPAVMessage@@XZ 1002a150 f i MessageManager.obj
 0001:00029190       ?push_back@?$list@PAVMessage@@V?$allocator@PAVMessage@@@std@@@std@@QAEXABQAVMessage@@@Z 1002a190 f i MessageManager.obj
 0001:000291e0       ?erase@?$list@PAVMessage@@V?$allocator@PAVMessage@@@std@@@std@@QAE?AViterator@12@V312@@Z 1002a1e0 f i MessageManager.obj
 0001:000292c0       ?clear@?$list@PAVMessage@@V?$allocator@PAVMessage@@@std@@@std@@QAEXXZ 1002a2c0 f i MessageManager.obj
 0001:00029380       ??Diterator@?$list@PAVMessage@@V?$allocator@PAVMessage@@@std@@@std@@QBEAAPAVMessage@@XZ 1002a380 f i MessageManager.obj
 0001:000293b0       ??Eiterator@?$list@PAVMessage@@V?$allocator@PAVMessage@@@std@@@std@@QAE?AV012@H@Z 1002a3b0 f i MessageManager.obj
 0001:00029420       ??9const_iterator@?$list@PAVMessage@@V?$allocator@PAVMessage@@@std@@@std@@QBE_NABV012@@Z 1002a420 f i MessageManager.obj
 0001:00029460       ?_Nextnode@?$list@PAVMessage@@V?$allocator@PAVMessage@@@std@@@std@@KAAAPAU_Node@?$_List_nod@PAVMessage@@V?$allocator@PAVMessage@@@std@@@2@PAU342@@Z 1002a460 f i MessageManager.obj
 0001:00029470       ?_Prevnode@?$list@PAVMessage@@V?$allocator@PAVMessage@@@std@@@std@@KAAAPAU_Node@?$_List_nod@PAVMessage@@V?$allocator@PAVMessage@@@std@@@2@PAU342@@Z 1002a470 f i MessageManager.obj
 0001:00029480       ?_Insert@?$list@PAVMessage@@V?$allocator@PAVMessage@@@std@@@std@@QAEXViterator@12@ABQAVMessage@@@Z 1002a480 f i MessageManager.obj
 0001:00029520       ?_Buynode@?$list@PAVMessage@@V?$allocator@PAVMessage@@@std@@@std@@IAEPAU_Node@?$_List_nod@PAVMessage@@V?$allocator@PAVMessage@@@std@@@2@XZ 1002a520 f i MessageManager.obj
 0001:00029650       ?_Tidy@?$list@PAVMessage@@V?$allocator@PAVMessage@@@std@@@std@@IAEXXZ 1002a650 f i MessageManager.obj
 0001:000296d0       ??0?$_List_val@PAVMessage@@V?$allocator@PAVMessage@@@std@@@std@@IAE@V?$allocator@PAVMessage@@@1@@Z 1002a6d0 f i MessageManager.obj
 0001:00029720       ??0?$allocator@PAVMessage@@@std@@QAE@XZ 1002a720 f i MessageManager.obj
 0001:00029740       ?deallocate@?$allocator@U_Node@?$_List_nod@PAVMessage@@V?$allocator@PAVMessage@@@std@@@std@@@std@@QAEXPAU_Node@?$_List_nod@PAVMessage@@V?$allocator@PAVMessage@@@std@@@2@I@Z 1002a740 f i MessageManager.obj
 0001:00029770       ?destroy@?$allocator@U_Node@?$_List_nod@PAVMessage@@V?$allocator@PAVMessage@@@std@@@std@@@std@@QAEXPAU_Node@?$_List_nod@PAVMessage@@V?$allocator@PAVMessage@@@std@@@2@@Z 1002a770 f i MessageManager.obj
 0001:000297a0       ??0iterator@?$list@PAVMessage@@V?$allocator@PAVMessage@@@std@@@std@@QAE@PAU_Node@?$_List_nod@PAVMessage@@V?$allocator@PAVMessage@@@std@@@2@@Z 1002a7a0 f i MessageManager.obj
 0001:000297d0       ??Eiterator@?$list@PAVMessage@@V?$allocator@PAVMessage@@@std@@@std@@QAEAAV012@XZ 1002a7d0 f i MessageManager.obj
 0001:00029800       ??Dconst_iterator@?$list@PAVMessage@@V?$allocator@PAVMessage@@@std@@@std@@QBEABQAVMessage@@XZ 1002a800 f i MessageManager.obj
 0001:00029830       ??8const_iterator@?$list@PAVMessage@@V?$allocator@PAVMessage@@@std@@@std@@QBE_NABV012@@Z 1002a830 f i MessageManager.obj
 0001:00029860       ?_Mynode@const_iterator@?$list@PAVMessage@@V?$allocator@PAVMessage@@@std@@@std@@QBEPAU_Node@?$_List_nod@PAVMessage@@V?$allocator@PAVMessage@@@std@@@3@XZ 1002a860 f i MessageManager.obj
 0001:00029880       ?_Myval@?$list@PAVMessage@@V?$allocator@PAVMessage@@@std@@@std@@KAAAPAVMessage@@PAU_Node@?$_List_nod@PAVMessage@@V?$allocator@PAVMessage@@@std@@@2@@Z 1002a880 f i MessageManager.obj
 0001:00029890       ?_Buynode@?$list@PAVMessage@@V?$allocator@PAVMessage@@@std@@@std@@IAEPAU_Node@?$_List_nod@PAVMessage@@V?$allocator@PAVMessage@@@std@@@2@PAU342@0ABQAVMessage@@@Z 1002a890 f i MessageManager.obj
 0001:00029970       ?_Incsize@?$list@PAVMessage@@V?$allocator@PAVMessage@@@std@@@std@@IAEXI@Z 1002a970 f i MessageManager.obj
 0001:00029a20       ??0?$_List_ptr@PAVMessage@@V?$allocator@PAVMessage@@@std@@@std@@IAE@V?$allocator@PAVMessage@@@1@@Z 1002aa20 f i MessageManager.obj
 0001:00029a70       ??0?$allocator@PAVMessage@@@std@@QAE@ABV01@@Z 1002aa70 f i MessageManager.obj
 0001:00029a90       ?allocate@?$allocator@U_Node@?$_List_nod@PAVMessage@@V?$allocator@PAVMessage@@@std@@@std@@@std@@QAEPAU_Node@?$_List_nod@PAVMessage@@V?$allocator@PAVMessage@@@std@@@2@I@Z 1002aa90 f i MessageManager.obj
 0001:00029ac0       ?construct@?$allocator@PAU_Node@?$_List_nod@PAVMessage@@V?$allocator@PAVMessage@@@std@@@std@@@std@@QAEXPAPAU_Node@?$_List_nod@PAVMessage@@V?$allocator@PAVMessage@@@std@@@2@ABQAU342@@Z 1002aac0 f i MessageManager.obj
 0001:00029af0       ?destroy@?$allocator@PAU_Node@?$_List_nod@PAVMessage@@V?$allocator@PAVMessage@@@std@@@std@@@std@@QAEXPAPAU_Node@?$_List_nod@PAVMessage@@V?$allocator@PAVMessage@@@std@@@2@@Z 1002aaf0 f i MessageManager.obj
 0001:00029b20       ??0const_iterator@?$list@PAVMessage@@V?$allocator@PAVMessage@@@std@@@std@@QAE@PAU_Node@?$_List_nod@PAVMessage@@V?$allocator@PAVMessage@@@std@@@2@@Z 1002ab20 f i MessageManager.obj
 0001:00029b40       ??Econst_iterator@?$list@PAVMessage@@V?$allocator@PAVMessage@@@std@@@std@@QAEAAV012@XZ 1002ab40 f i MessageManager.obj
 0001:00029b80       ?max_size@?$list@PAVMessage@@V?$allocator@PAVMessage@@@std@@@std@@QBEIXZ 1002ab80 f i MessageManager.obj
 0001:00029bb0       ??0?$_List_nod@PAVMessage@@V?$allocator@PAVMessage@@@std@@@std@@IAE@V?$allocator@PAVMessage@@@1@@Z 1002abb0 f i MessageManager.obj
 0001:00029be0       ??0_Node@?$_List_nod@PAVMessage@@V?$allocator@PAVMessage@@@std@@@std@@QAE@PAU012@0ABQAVMessage@@@Z 1002abe0 f i MessageManager.obj
 0001:00029c20       ?max_size@?$allocator@PAVMessage@@@std@@QBEIXZ 1002ac20 f i MessageManager.obj
 0001:00029c70       ??$_Destroy@U_Node@?$_List_nod@PAVMessage@@V?$allocator@PAVMessage@@@std@@@std@@@std@@YAXPAU_Node@?$_List_nod@PAVMessage@@V?$allocator@PAVMessage@@@std@@@0@@Z 1002ac70 f i MessageManager.obj
 0001:00029c80       ??$?0PAVMessage@@@?$allocator@PAU_Node@?$_List_nod@PAVMessage@@V?$allocator@PAVMessage@@@std@@@std@@@std@@QAE@ABV?$allocator@PAVMessage@@@1@@Z 1002ac80 f i MessageManager.obj
 0001:00029ca0       ??$_Allocate@U_Node@?$_List_nod@PAVMessage@@V?$allocator@PAVMessage@@@std@@@std@@@std@@YAPAU_Node@?$_List_nod@PAVMessage@@V?$allocator@PAVMessage@@@std@@@0@IPAU120@@Z 1002aca0 f i MessageManager.obj
 0001:00029cc0       ??$_Construct@PAU_Node@?$_List_nod@PAVMessage@@V?$allocator@PAVMessage@@@std@@@std@@PAU123@@std@@YAXPAPAU_Node@?$_List_nod@PAVMessage@@V?$allocator@PAVMessage@@@std@@@0@ABQAU120@@Z 1002acc0 f i MessageManager.obj
 0001:00029d20       ??$_Destroy@PAU_Node@?$_List_nod@PAVMessage@@V?$allocator@PAVMessage@@@std@@@std@@@std@@YAXPAPAU_Node@?$_List_nod@PAVMessage@@V?$allocator@PAVMessage@@@std@@@0@@Z 1002ad20 f i MessageManager.obj
 0001:00029d30       ??$?0PAVMessage@@@?$allocator@U_Node@?$_List_nod@PAVMessage@@V?$allocator@PAVMessage@@@std@@@std@@@std@@QAE@ABV?$allocator@PAVMessage@@@1@@Z 1002ad30 f i MessageManager.obj
 0001:00029d50       ?SwitchToMultiplayUIMode@@YAXH@Z 1002ad50 f   MultiUI.obj
 0001:00029e70       ?OnLoopMsg@cMultiUI@@UAEXHPAUtLoopMessageData__@@@Z 1002ae70 f   MultiUI.obj
 0001:00029eb0       ?OnButtonList@cMultiUI@@UAEXGH@Z 1002aeb0 f   MultiUI.obj
 0001:00029f50       ?RedrawDisplay@cMultiUI@@UAEXXZ 1002af50 f   MultiUI.obj
 0001:0002a0a0       ?RedrawImage@cMultiUI@@QAEXHH@Z 1002b0a0 f   MultiUI.obj
 0001:0002a1a0       ??0cMultiUI@@QAE@PBUsDarkPanelDesc@@PBD@Z 1002b1a0 f i MultiUI.obj
 0001:0002a1e0       ??0cDarkPanel@@QAE@PBUsDarkPanelDesc@@PBD@Z 1002b1e0 f i MultiUI.obj
 0001:0002a260       ?InitUI@cDarkPanel@@UAEXXZ 1002b260 f i MultiUI.obj
 0001:0002a2a0       ?TermUI@cDarkPanel@@UAEXXZ 1002b2a0 f i MultiUI.obj
 0001:0002a2e0       ?NumButtons@cDarkPanel@@UAEHXZ 1002b2e0 f i MultiUI.obj
 0001:0002a300       ?Rects@cDarkPanel@@UAEAAV?$cDynArray@URect@@@@XZ 1002b300 f i MultiUI.obj
 0001:0002a320       ?Elems@cDarkPanel@@UAEAAV?$cDynArray@U_DrawElement@@@@XZ 1002b320 f i MultiUI.obj
 0001:0002a340       ?CursorImage@cDarkPanel@@UAEPAUIDarkDataSource@@XZ 1002b340 f i MultiUI.obj
 0001:0002a380       ?RedrawDisplay@cDarkPanel@@UAEXXZ 1002b380 f i MultiUI.obj
 0001:0002a3a0       ?OnEscapeKey@cDarkPanel@@UAEXXZ 1002b3a0 f i MultiUI.obj
 0001:0002a3e0       ??2cMultiUI@@SAPAXI@Z      1002b3e0 f i MultiUI.obj
 0001:0002a410       ??0?$cDynArray@URect@@@@QAE@XZ 1002b410 f i MultiUI.obj
 0001:0002a440       ?Size@?$cDynArray@URect@@@@QAEKXZ 1002b440 f i MultiUI.obj
 0001:0002a460       ??0?$cDynArray@U_DrawElement@@@@QAE@XZ 1002b460 f i MultiUI.obj
 0001:0002a490       ??0cDABaseSrvFns@@QAE@XZ   1002b490 f i MultiUI.obj
 0001:0002a4c0       ?MakeNonNetworkable@@YAXPAUsPropertyDesc@@@Z 1002b4c0 f   NetProperties.obj
 0001:0002a4e0       ?PatchPropDescs@@YAXXZ     1002b4e0 f   NetProperties.obj
 0001:0002a570       ?NetPropertiesInit@@YAXXZ  1002b570 f   NetProperties.obj
 0001:0002a5a0       ?NetPropertiesTerm@@YAXXZ  1002b5a0 f   NetProperties.obj
 0001:0002a5d0       ?GetNetworkedReaction@@YAPAUNetworkableReactionInfo@@K@Z 1002b5d0 f   NetReactions.obj
 0001:0002a640       ?PostReactionMessage@@YAXKPAUsReactionEvent@@PAUsReactionParam@@@Z 1002b640 f   NetReactions.obj
 0001:0002a880       ?FilterFrobObjectReactionHandler@@YGKPAUsReactionEvent@@PBUsReactionParam@@PAX@Z 1002b880 f   NetReactions.obj
 0001:0002a9b0       ?FilterKnockoutReaction@@YG_NKPAUsReactionEvent@@PBUsReactionParam@@PAX@Z 1002b9b0 f   NetReactions.obj
 0001:0002ab30       ??B?$GlobalPointer@UIReactions@@@@QBEPAUIReactions@@XZ 1002bb30 f i NetReactions.obj
 0001:0002ab50       ?PatchVtable@@YAXHZZ       1002bb50 f   Patcher.obj
 0001:0002abd0       ?T2PatchVtables@@YAXXZ     1002bbd0 f   Patcher.obj
 0001:0002ac20       ?InstallCallbacks@@YAXXZ   1002bc20 f   Patcher.obj
 0001:0002ae00       ?PatcherInit@@YAXXZ        1002be00 f   Patcher.obj
 0001:0002ae40       ?PatcherTerm@@YAXXZ        1002be40 f   Patcher.obj
 0001:0002ae50       ?PlayerCreateHook@@YAXHH@Z 1002be50 f   Player.obj
 0001:0002ae80       ?ForceActivateLoadoutCache@@YAXH@Z 1002be80 f   Player.obj
 0001:0002af90       ?MPPlayerCreate@@YAXXZ     1002bf90 f   Player.obj
 0001:0002b4e0       ?SendSetWeapon@@YAXH@Z     1002c4e0 f   Player.obj
 0001:0002b5f0       ?EquipBowHook@@YGXHHH@Z    1002c5f0 f   Player.obj
 0001:0002b630       ?UnEquipBowHook@@YGXH@Z    1002c630 f   Player.obj
 0001:0002b660       ?LaunchProjectileHook@@YAHHHMKKKK@Z 1002c660 f   Player.obj
 0001:0002b7e0       ?FrobItemHook@@YG?AW4eFrobHandler@@H@Z 1002c7e0 f   Player.obj
 0001:0002b810       ?ThrowCreatureHook@@YAXHHMKKKK@Z 1002c810 f   Player.obj
 0001:0002b890       ??1sSimMsg@@QAE@XZ         1002c890 f i Player.obj
 0001:0002b8c0       ??0CNetMsg_SetWeapon@@QAE@XZ 1002c8c0 f i Player.obj
 0001:0002b8e0       ??0sSimMsg@@QAE@XZ         1002c8e0 f i Player.obj
 0001:0002b920       ??0SaveManager@@QAE@XZ     1002c920 f   SaveManager.obj
 0001:0002b990       ??1SaveManager@@UAE@XZ     1002c990 f   SaveManager.obj
 0001:0002b9d0       ?SendLoadMsg@SaveManager@@QAEXXZ 1002c9d0 f   SaveManager.obj
 0001:0002ba60       ?SendSaveMsg@SaveManager@@QAEXH@Z 1002ca60 f   SaveManager.obj
 0001:0002baf0       ?SetLastSlot@SaveManager@@QAEXH@Z 1002caf0 f   SaveManager.obj
 0001:0002bb10       ?DoNetworkSave@SaveManager@@QAEXH@Z 1002cb10 f   SaveManager.obj
 0001:0002be50       ?DoNetworkLoad@SaveManager@@QAEXH@Z 1002ce50 f   SaveManager.obj
 0001:0002bfa0       ?OnLoadRemoteGhosts@SaveManager@@IAEXPAVTagFileRead@@K@Z 1002cfa0 f   SaveManager.obj
 0001:0002c0d0       ?OnSaveRemoteGhosts@SaveManager@@IAEXPAVTagFileWrite@@K@Z 1002d0d0 f   SaveManager.obj
 0001:0002c460       ?EventHandler@SaveManager@@UAEXHPAX@Z 1002d460 f   SaveManager.obj
 0001:0002c4c0       ?HookQuickSave@SaveManager@@SGXXZ 1002d4c0 f   SaveManager.obj
 0001:0002c540       ?HookQuickLoad@SaveManager@@SGXXZ 1002d540 f   SaveManager.obj
 0001:0002c5c0       ?HookLoadRemoteGhosts@SaveManager@@SGXPAVTagFileRead@@K@Z 1002d5c0 f   SaveManager.obj
 0001:0002c5f0       ?HookSaveRemoteGhosts@SaveManager@@SAXPAVTagFileWrite@@K@Z 1002d5f0 f   SaveManager.obj
 0001:0002c610       ?SaveManagerInit@@YAXXZ    1002d610 f   SaveManager.obj
 0001:0002c6b0       ?SaveManagerTerm@@YAXXZ    1002d6b0 f   SaveManager.obj
 0001:0002c720       ??_ESaveManager@@UAEPAXI@Z 1002d720 f i SaveManager.obj
 0001:0002c720       ??_GSaveManager@@UAEPAXI@Z 1002d720 f i SaveManager.obj
 0001:0002c760       ??0CNetMsg_LoadGame@@QAE@XZ 1002d760 f i SaveManager.obj
 0001:0002c780       ??0CNetMsg_SaveGame@@QAE@XZ 1002d780 f i SaveManager.obj
 0001:0002c7a0       ?SchemaPlayAtObj@@YAXHH@Z  1002d7a0 f   Sound.obj
 0001:0002c860       ?DoEquipSound@@YAXPAUsGhostRemote@@@Z 1002d860 f   Sound.obj
 0001:0002c940       ?DoUnequipSound@@YAXPAUsGhostRemote@@@Z 1002d940 f   Sound.obj
 0001:0002ca20       ?OnGenerateSoundVec@@YGHPAUmxs_vector@@HHPADMPAUsfx_parm@@HH@Z 1002da20 f   Sound.obj
 0001:0002cb50       ?OnGenerateSoundObj@@YGHHHPADMPAUsfx_parm@@HH@Z 1002db50 f   Sound.obj
 0001:0002cc90       ?OnGenerateSound@@YGHHPADPAUsfx_parm@@@Z 1002dc90 f   Sound.obj
 0001:0002cdd0       ?SchemaIDPlay@@YAPAUsSchemaPlay@@HPAUsSchemaCallParams@@PAX@Z 1002ddd0 f   Sound.obj
 0001:0002cfd0       ?NetSchemaPlaySample@@YAPAUsSchemaPlay@@HHPAUsSchemaCallParams@@PAX@Z 1002dfd0 f   Sound.obj
 0001:0002d190       ?OnSpeechHalt@@YAXH@Z      1002e190 f   Sound.obj
 0001:0002d3a0       ??0CNetMsg_LoopSpeechHalt@@QAE@XZ 1002e3a0 f i Sound.obj
 0001:0002d3c0       ?GetAIVoice@@YAHH@Z        1002e3c0 f   SpeechNet.obj
 0001:0002d4e0       ?PrintSpeechDebug@@YAXHHHHPBULabel@@_N@Z 1002e4e0 f   SpeechNet.obj
 0001:0002d560       ?SpeechNetHandler@@YAXH_NPBUsSchemaCallParams@@@Z 1002e560 f   SpeechNet.obj
 0001:0002d760       ?SpeechBroadcast@@YAXAAVCNetMsg_AiSpeech@@@Z 1002e760 f   SpeechNet.obj
 0001:0002d7a0       ??0CNetMsg_AiSpeech@@QAE@XZ 1002e7a0 f i SpeechNet.obj
 0001:0002d7c0       ??$?HDU?$char_traits@D@std@@V?$allocator@D@1@@std@@YA?AV?$basic_string@DU?$char_traits@D@std@@V?$allocator@D@2@@0@ABV10@0@Z 1002e7c0 f i stdafx.obj
 0001:0002d880       ??$?HDU?$char_traits@D@std@@V?$allocator@D@1@@std@@YA?AV?$basic_string@DU?$char_traits@D@std@@V?$allocator@D@2@@0@PBDABV10@@Z 1002e880 f i stdafx.obj
 0001:0002d940       ??$?HDU?$char_traits@D@std@@V?$allocator@D@1@@std@@YA?AV?$basic_string@DU?$char_traits@D@std@@V?$allocator@D@2@@0@DABV10@@Z 1002e940 f i stdafx.obj
 0001:0002da00       ??$?HDU?$char_traits@D@std@@V?$allocator@D@1@@std@@YA?AV?$basic_string@DU?$char_traits@D@std@@V?$allocator@D@2@@0@ABV10@PBD@Z 1002ea00 f i stdafx.obj
 0001:0002dac0       ??$?HDU?$char_traits@D@std@@V?$allocator@D@1@@std@@YA?AV?$basic_string@DU?$char_traits@D@std@@V?$allocator@D@2@@0@ABV10@D@Z 1002eac0 f i stdafx.obj
 0001:0002db80       ??$?HGU?$char_traits@G@std@@V?$allocator@G@1@@std@@YA?AV?$basic_string@GU?$char_traits@G@std@@V?$allocator@G@2@@0@ABV10@0@Z 1002eb80 f i stdafx.obj
 0001:0002dc40       ??$?HGU?$char_traits@G@std@@V?$allocator@G@1@@std@@YA?AV?$basic_string@GU?$char_traits@G@std@@V?$allocator@G@2@@0@PBGABV10@@Z 1002ec40 f i stdafx.obj
 0001:0002dd00       ??$?HGU?$char_traits@G@std@@V?$allocator@G@1@@std@@YA?AV?$basic_string@GU?$char_traits@G@std@@V?$allocator@G@2@@0@GABV10@@Z 1002ed00 f i stdafx.obj
 0001:0002ddd0       ??$?HGU?$char_traits@G@std@@V?$allocator@G@1@@std@@YA?AV?$basic_string@GU?$char_traits@G@std@@V?$allocator@G@2@@0@ABV10@PBG@Z 1002edd0 f i stdafx.obj
 0001:0002de90       ??$?HGU?$char_traits@G@std@@V?$allocator@G@1@@std@@YA?AV?$basic_string@GU?$char_traits@G@std@@V?$allocator@G@2@@0@ABV10@G@Z 1002ee90 f i stdafx.obj
 0001:0002df50       ??$?5DU?$char_traits@D@std@@V?$allocator@D@1@@std@@YAAAV?$basic_istream@DU?$char_traits@D@std@@@0@AAV10@AAV?$basic_string@DU?$char_traits@D@std@@V?$allocator@D@2@@0@@Z 1002ef50 f i stdafx.obj
 0001:0002e310       ??1sentry@?$basic_istream@DU?$char_traits@D@std@@@std@@QAE@XZ 1002f310 f i stdafx.obj
 0001:0002e340       ??0sentry@?$basic_istream@DU?$char_traits@D@std@@@std@@QAE@AAV12@_N@Z 1002f340 f i stdafx.obj
 0001:0002e3c0       ??Bsentry@?$basic_istream@DU?$char_traits@D@std@@@std@@QBE_NXZ 1002f3c0 f i stdafx.obj
 0001:0002e3e0       ??1_Sentry_base@?$basic_istream@DU?$char_traits@D@std@@@std@@QAE@XZ 1002f3e0 f i stdafx.obj
 0001:0002e450       ??0_Sentry_base@?$basic_istream@DU?$char_traits@D@std@@@std@@QAE@AAV12@@Z 1002f450 f i stdafx.obj
 0001:0002e4d0       ??$use_facet@V?$ctype@D@std@@@std@@YAABV?$ctype@D@0@ABVlocale@0@@Z 1002f4d0 f i stdafx.obj
 0001:0002e660       ??$getline@DU?$char_traits@D@std@@V?$allocator@D@2@@std@@YAAAV?$basic_istream@DU?$char_traits@D@std@@@0@AAV10@AAV?$basic_string@DU?$char_traits@D@std@@V?$allocator@D@2@@0@@Z 1002f660 f i stdafx.obj
 0001:0002e6a0       ??$getline@DU?$char_traits@D@std@@V?$allocator@D@2@@std@@YAAAV?$basic_istream@DU?$char_traits@D@std@@@0@AAV10@AAV?$basic_string@DU?$char_traits@D@std@@V?$allocator@D@2@@0@D@Z 1002f6a0 f i stdafx.obj
 0001:0002e9c0       ??$?6DU?$char_traits@D@std@@V?$allocator@D@1@@std@@YAAAV?$basic_ostream@DU?$char_traits@D@std@@@0@AAV10@ABV?$basic_string@DU?$char_traits@D@std@@V?$allocator@D@2@@0@@Z 1002f9c0 f i stdafx.obj
 0001:0002ee10       ??0sentry@?$basic_ostream@DU?$char_traits@D@std@@@std@@QAE@AAV12@@Z 1002fe10 f i stdafx.obj
 0001:0002ef00       ??1sentry@?$basic_ostream@DU?$char_traits@D@std@@@std@@QAE@XZ 1002ff00 f i stdafx.obj
 0001:0002ef80       ??Bsentry@?$basic_ostream@DU?$char_traits@D@std@@@std@@QBE_NXZ 1002ff80 f i stdafx.obj
 0001:0002efa0       ??0_Sentry_base@?$basic_ostream@DU?$char_traits@D@std@@@std@@QAE@AAV12@@Z 1002ffa0 f i stdafx.obj
 0001:0002f020       ??1_Sentry_base@?$basic_ostream@DU?$char_traits@D@std@@@std@@QAE@XZ 10030020 f i stdafx.obj
 0001:0002f090       ??$?5GU?$char_traits@G@std@@V?$allocator@G@1@@std@@YAAAV?$basic_istream@GU?$char_traits@G@std@@@0@AAV10@AAV?$basic_string@GU?$char_traits@G@std@@V?$allocator@G@2@@0@@Z 10030090 f i stdafx.obj
 0001:0002f460       ??1sentry@?$basic_istream@GU?$char_traits@G@std@@@std@@QAE@XZ 10030460 f i stdafx.obj
 0001:0002f490       ??0sentry@?$basic_istream@GU?$char_traits@G@std@@@std@@QAE@AAV12@_N@Z 10030490 f i stdafx.obj
 0001:0002f510       ??Bsentry@?$basic_istream@GU?$char_traits@G@std@@@std@@QBE_NXZ 10030510 f i stdafx.obj
 0001:0002f530       ??1_Sentry_base@?$basic_istream@GU?$char_traits@G@std@@@std@@QAE@XZ 10030530 f i stdafx.obj
 0001:0002f5a0       ??0_Sentry_base@?$basic_istream@GU?$char_traits@G@std@@@std@@QAE@AAV12@@Z 100305a0 f i stdafx.obj
 0001:0002f620       ??$use_facet@V?$ctype@G@std@@@std@@YAABV?$ctype@G@0@ABVlocale@0@@Z 10030620 f i stdafx.obj
 0001:0002f7b0       ??$getline@GU?$char_traits@G@std@@V?$allocator@G@2@@std@@YAAAV?$basic_istream@GU?$char_traits@G@std@@@0@AAV10@AAV?$basic_string@GU?$char_traits@G@std@@V?$allocator@G@2@@0@@Z 100307b0 f i stdafx.obj
 0001:0002f7f0       ??$getline@GU?$char_traits@G@std@@V?$allocator@G@2@@std@@YAAAV?$basic_istream@GU?$char_traits@G@std@@@0@AAV10@AAV?$basic_string@GU?$char_traits@G@std@@V?$allocator@G@2@@0@G@Z 100307f0 f i stdafx.obj
 0001:0002fb20       ??$?6GU?$char_traits@G@std@@V?$allocator@G@1@@std@@YAAAV?$basic_ostream@GU?$char_traits@G@std@@@0@AAV10@ABV?$basic_string@GU?$char_traits@G@std@@V?$allocator@G@2@@0@@Z 10030b20 f i stdafx.obj
 0001:0002ff70       ??0sentry@?$basic_ostream@GU?$char_traits@G@std@@@std@@QAE@AAV12@@Z 10030f70 f i stdafx.obj
 0001:00030060       ??1sentry@?$basic_ostream@GU?$char_traits@G@std@@@std@@QAE@XZ 10031060 f i stdafx.obj
 0001:000300e0       ??Bsentry@?$basic_ostream@GU?$char_traits@G@std@@@std@@QBE_NXZ 100310e0 f i stdafx.obj
 0001:00030100       ??0_Sentry_base@?$basic_ostream@GU?$char_traits@G@std@@@std@@QAE@AAV12@@Z 10031100 f i stdafx.obj
 0001:00030180       ??1_Sentry_base@?$basic_ostream@GU?$char_traits@G@std@@@std@@QAE@XZ 10031180 f i stdafx.obj
 0001:000301f0       ?StructDumpOnlyNames@@YAXPBUsStructDesc@@@Z 100311f0 f   StructDesc.obj
 0001:00030300       ?StructDump@@YAXPBUsStructDesc@@PBX@Z 10031300 f   StructDesc.obj
 0001:000303d0       ?LogPrintCallback@@YAXPAX@Z 100313d0 f   Tools.obj
 0001:000303f0       ?DebugStringHook@@YGXPBD@Z 100313f0 f   Tools.obj
 0001:00030410       ?DPlayErrorToString@@YAPBDJ@Z 10031410 f   Tools.obj
 0001:000306f0       ?SetFrobHandler@@YAXHW4eFrobHandler@@@Z 100316f0 f   Tools.obj
 0001:00030740       ?SummonObject@@YAHH@Z      10031740 f   Tools.obj
 0001:00030860       ?MissionNumFromMap@@YAHH@Z 10031860 f   Tools.obj
 0001:000308b0       ?MissionNumToMap@@YAHH@Z   100318b0 f   Tools.obj
 0001:000308e0       ?GetMissionName@@YA_NHPADH@Z 100318e0 f   Tools.obj
 0001:000309f0       ?PhysModelFromObj@@YAPAVcPhysModel@@H@Z 100319f0 f   Tools.obj
 0001:00030ab0       ?ObjHasScript@@YA_NHPBD@Z  10031ab0 f   Tools.obj
 0001:00030b80       ?ProxyFrobGetInverse@@YAHH@Z 10031b80 f   Tools.obj
 0001:00030cc0       ?GetNumChainedEvents@@YAHPAUsChainedEvent@@@Z 10031cc0 f   Tools.obj
 0001:00030d00       ?PrintEventChain@@YAXPAUsChainedEvent@@@Z 10031d00 f   Tools.obj
 0001:00030d80       ?GetScreenMode@@YA?AUsScreenMode@@XZ 10031d80 f   Tools.obj
 0001:00030e20       ?GetScreenRect@@YA?AURect@@XZ 10031e20 f   Tools.obj
 0001:00030ef0       ?GetCanvasRect@@YA?AURect@@XZ 10031ef0 f   Tools.obj
 0001:00030f80       ?GetMissionName@@YA?AVcAnsiStr@@H@Z 10031f80 f   Tools.obj
 0001:00031070       ?TimeString@@YA?AVNString@@H@Z 10032070 f   Tools.obj
 0001:000311c0       ??C?$GlobalPointer@VcPhysModels@@@@QBEPAVcPhysModels@@XZ 100321c0 f i Tools.obj
 0001:000311e0       ?GS_OnReceive@@YAXPAUIGSClient@@PAEK@Z 100321e0 f   GlobalServer.obj
 0001:00031300       ?GS_OnConnectionLost@@YAXPAUIGSClient@@@Z 10032300 f   GlobalServer.obj
 0001:00031330       ?GS_OnConnectComplete@@YAXPAUIGSClient@@W4ConnectResult@1@@Z 10032330 f   GlobalServer.obj
 0001:00031380       ?GS_SendHeartbeat@@YAXPAUIGSClient@@@Z 10032380 f   GlobalServer.obj
 0001:00031590       ?GetServers@CServerList@@QAEAAV?$list@PAVCServerListEntry@@V?$allocator@PAVCServerListEntry@@@std@@@std@@XZ 10032590 f   GlobalServer.obj
 0001:000315b0       ??0Msg_DarkHeartbeat@@QAE@XZ 100325b0 f i GlobalServer.obj
 0001:000315d0       ?Marshal@Msg_DarkHeartbeat@@QAEXPAVCMarshalBuffer@@@Z 100325d0 f   Msg_Dark.obj
 0001:00031660       ?Unmarshal@Msg_DarkHeartbeat@@QAEXPAVCMarshalBuffer@@@Z 10032660 f   Msg_Dark.obj
 0001:000316f0       ?Marshal@Msg_DarkServerInfo@@QAEXPAVCMarshalBuffer@@@Z 100326f0 f   Msg_Dark.obj
 0001:00031790       ?Unmarshal@Msg_DarkServerInfo@@QAEXPAVCMarshalBuffer@@@Z 10032790 f   Msg_Dark.obj
 0001:00031830       ??0CServerBrowser@@QAE@XZ  10032830 f   ServerBrowser.obj
 0001:00031a10       ??1CServerBrowser@@UAE@XZ  10032a10 f   ServerBrowser.obj
 0001:00031a90       ?CreateBrowserWindow@CServerBrowser@@QAE_NH@Z 10032a90 f   ServerBrowser.obj
 0001:00031b30       ?Update@CServerBrowser@@QAEXXZ 10032b30 f   ServerBrowser.obj
 0001:00031ba0       ?UpdatePings@CServerBrowser@@IAEXXZ 10032ba0 f   ServerBrowser.obj
 0001:00031cf0       ?OnStateChange@CServerBrowser@@UAEXW4ConnState@IGSClient@@@Z 10032cf0 f   ServerBrowser.obj
 0001:00031f00       ?HandlePingResponse@CServerBrowser@@UAEXPAX@Z 10032f00 f   ServerBrowser.obj
 0001:00032150       ?HandleServerInfo@CServerBrowser@@UAEXPAXK@Z 10033150 f   ServerBrowser.obj
 0001:00032370       ?UpdateServerCount@CServerBrowser@@QAEXXZ 10033370 f   ServerBrowser.obj
 0001:00032450       ?HandleRemoveServer@CServerBrowser@@UAEXPAXK@Z 10033450 f   ServerBrowser.obj
 0001:00032560       ?SendListingRequest@CServerBrowser@@QAEXXZ 10033560 f   ServerBrowser.obj
 0001:000325e0       ?StaticDialogProc@CServerBrowser@@SGHPAUHWND__@@IIJ@Z 100335e0 f   ServerBrowser.obj
 0001:00032620       ?DialogProc@CServerBrowser@@QAGHPAUHWND__@@IIJ@Z 10033620 f   ServerBrowser.obj
 0001:00032750       ?OnInitDialog@CServerBrowser@@IAEXXZ 10033750 f   ServerBrowser.obj
 0001:00032780       ?Close@CServerBrowser@@QAEXXZ 10033780 f   ServerBrowser.obj
 0001:000327e0       ?OnSelectItem@CServerBrowser@@IAEXXZ 100337e0 f   ServerBrowser.obj
 0001:00032900       ?OnDoubleClickItem@CServerBrowser@@IAEXXZ 10033900 f   ServerBrowser.obj
 0001:000329c0       ?ConnectToSelectedServer@CServerBrowser@@QAEXXZ 100339c0 f   ServerBrowser.obj
 0001:00032b00       ?ConnectToGlobal@CServerBrowser@@QAEXXZ 10033b00 f   ServerBrowser.obj
 0001:00032bb0       ?OnRefreshList@CServerBrowser@@IAEXXZ 10033bb0 f   ServerBrowser.obj
 0001:00032c80       ?BrowserTerm@@YAXXZ        10033c80 f   ServerBrowser.obj
 0001:00032cf0       ??0CServerList@@QAE@XZ     10033cf0 f i ServerBrowser.obj
 0001:00032d30       ??1CServerList@@UAE@XZ     10033d30 f i ServerBrowser.obj
 0001:00032d60       ??_ECServerList@@UAEPAXI@Z 10033d60 f i ServerBrowser.obj
 0001:00032d60       ??_GCServerList@@UAEPAXI@Z 10033d60 f i ServerBrowser.obj
 0001:00032da0       ??0CEListView@EngCtrls@@QAE@XZ 10033da0 f i ServerBrowser.obj
 0001:00032dd0       ??_GCServerBrowser@@UAEPAXI@Z 10033dd0 f i ServerBrowser.obj
 0001:00032dd0       ??_ECServerBrowser@@UAEPAXI@Z 10033dd0 f i ServerBrowser.obj
 0001:00032e10       ??0IGSBrowser@@QAE@XZ      10033e10 f i ServerBrowser.obj
 0001:00032e30       ?InsertLast@CEListView@EngCtrls@@QAEHPADJ@Z 10033e30 f i ServerBrowser.obj
 0001:00032e70       ?GetItemCount@CEListView@EngCtrls@@QAEHXZ 10033e70 f i ServerBrowser.obj
 0001:00032eb0       ??0Msg_DarkServerInfo@@QAE@XZ 10033eb0 f i ServerBrowser.obj
 0001:00032ed0       ?DeleteItem@CEListView@EngCtrls@@QAEHH@Z 10033ed0 f i ServerBrowser.obj
 0001:00032f20       ??0Msg_ListRequest@@QAE@XZ 10033f20 f i ServerBrowser.obj
 0001:00032f40       ?GetNextItem@CEListView@EngCtrls@@QAEHHK@Z 10033f40 f i ServerBrowser.obj
 0001:00032f90       ?DeleteAllItems@CEListView@EngCtrls@@QAEXXZ 10033f90 f i ServerBrowser.obj
 0001:00032fd0       ??0?$list@PAVCServerListEntry@@V?$allocator@PAVCServerListEntry@@@std@@@std@@QAE@XZ 10033fd0 f i ServerBrowser.obj
 0001:00033020       ??1?$list@PAVCServerListEntry@@V?$allocator@PAVCServerListEntry@@@std@@@std@@QAE@XZ 10034020 f i ServerBrowser.obj
 0001:00033050       ?begin@?$list@PAVCServerListEntry@@V?$allocator@PAVCServerListEntry@@@std@@@std@@QAE?AViterator@12@XZ 10034050 f i ServerBrowser.obj
 0001:00033090       ?end@?$list@PAVCServerListEntry@@V?$allocator@PAVCServerListEntry@@@std@@@std@@QAE?AViterator@12@XZ 10034090 f i ServerBrowser.obj
 0001:000330c0       ??Diterator@?$list@PAVCServerListEntry@@V?$allocator@PAVCServerListEntry@@@std@@@std@@QBEAAPAVCServerListEntry@@XZ 100340c0 f i ServerBrowser.obj
 0001:000330f0       ??Eiterator@?$list@PAVCServerListEntry@@V?$allocator@PAVCServerListEntry@@@std@@@std@@QAE?AV012@H@Z 100340f0 f i ServerBrowser.obj
 0001:00033160       ??9const_iterator@?$list@PAVCServerListEntry@@V?$allocator@PAVCServerListEntry@@@std@@@std@@QBE_NABV012@@Z 10034160 f i ServerBrowser.obj
 0001:000331a0       ?_Nextnode@?$list@PAVCServerListEntry@@V?$allocator@PAVCServerListEntry@@@std@@@std@@KAAAPAU_Node@?$_List_nod@PAVCServerListEntry@@V?$allocator@PAVCServerListEntry@@@std@@@2@PAU342@@Z 100341a0 f i ServerBrowser.obj
 0001:000331b0       ?_Buynode@?$list@PAVCServerListEntry@@V?$allocator@PAVCServerListEntry@@@std@@@std@@IAEPAU_Node@?$_List_nod@PAVCServerListEntry@@V?$allocator@PAVCServerListEntry@@@std@@@2@XZ 100341b0 f i ServerBrowser.obj
 0001:000332e0       ?_Tidy@?$list@PAVCServerListEntry@@V?$allocator@PAVCServerListEntry@@@std@@@std@@IAEXXZ 100342e0 f i ServerBrowser.obj
 0001:00033360       ??0?$_List_val@PAVCServerListEntry@@V?$allocator@PAVCServerListEntry@@@std@@@std@@IAE@V?$allocator@PAVCServerListEntry@@@1@@Z 10034360 f i ServerBrowser.obj
 0001:000333b0       ??0?$allocator@PAVCServerListEntry@@@std@@QAE@XZ 100343b0 f i ServerBrowser.obj
 0001:000333d0       ??0iterator@?$list@PAVCServerListEntry@@V?$allocator@PAVCServerListEntry@@@std@@@std@@QAE@PAU_Node@?$_List_nod@PAVCServerListEntry@@V?$allocator@PAVCServerListEntry@@@std@@@2@@Z 100343d0 f i ServerBrowser.obj
 0001:00033400       ??Eiterator@?$list@PAVCServerListEntry@@V?$allocator@PAVCServerListEntry@@@std@@@std@@QAEAAV012@XZ 10034400 f i ServerBrowser.obj
 0001:00033430       ??Dconst_iterator@?$list@PAVCServerListEntry@@V?$allocator@PAVCServerListEntry@@@std@@@std@@QBEABQAVCServerListEntry@@XZ 10034430 f i ServerBrowser.obj
 0001:00033460       ??8const_iterator@?$list@PAVCServerListEntry@@V?$allocator@PAVCServerListEntry@@@std@@@std@@QBE_NABV012@@Z 10034460 f i ServerBrowser.obj
 0001:00033490       ?_Prevnode@?$list@PAVCServerListEntry@@V?$allocator@PAVCServerListEntry@@@std@@@std@@KAAAPAU_Node@?$_List_nod@PAVCServerListEntry@@V?$allocator@PAVCServerListEntry@@@std@@@2@PAU342@@Z 10034490 f i ServerBrowser.obj
 0001:000334a0       ?_Myval@?$list@PAVCServerListEntry@@V?$allocator@PAVCServerListEntry@@@std@@@std@@KAAAPAVCServerListEntry@@PAU_Node@?$_List_nod@PAVCServerListEntry@@V?$allocator@PAVCServerListEntry@@@std@@@2@@Z 100344a0 f i ServerBrowser.obj
 0001:000334b0       ?clear@?$list@PAVCServerListEntry@@V?$allocator@PAVCServerListEntry@@@std@@@std@@QAEXXZ 100344b0 f i ServerBrowser.obj
 0001:00033570       ??0?$_List_ptr@PAVCServerListEntry@@V?$allocator@PAVCServerListEntry@@@std@@@std@@IAE@V?$allocator@PAVCServerListEntry@@@1@@Z 10034570 f i ServerBrowser.obj
 0001:000335c0       ??0?$allocator@PAVCServerListEntry@@@std@@QAE@ABV01@@Z 100345c0 f i ServerBrowser.obj
 0001:000335e0       ?deallocate@?$allocator@U_Node@?$_List_nod@PAVCServerListEntry@@V?$allocator@PAVCServerListEntry@@@std@@@std@@@std@@QAEXPAU_Node@?$_List_nod@PAVCServerListEntry@@V?$allocator@PAVCServerListEntry@@@std@@@2@I@Z 100345e0 f i ServerBrowser.obj
 0001:00033610       ?allocate@?$allocator@U_Node@?$_List_nod@PAVCServerListEntry@@V?$allocator@PAVCServerListEntry@@@std@@@std@@@std@@QAEPAU_Node@?$_List_nod@PAVCServerListEntry@@V?$allocator@PAVCServerListEntry@@@std@@@2@I@Z 10034610 f i ServerBrowser.obj
 0001:00033640       ?construct@?$allocator@PAU_Node@?$_List_nod@PAVCServerListEntry@@V?$allocator@PAVCServerListEntry@@@std@@@std@@@std@@QAEXPAPAU_Node@?$_List_nod@PAVCServerListEntry@@V?$allocator@PAVCServerListEntry@@@std@@@2@ABQAU342@@Z 10034640 f i ServerBrowser.obj
 0001:00033670       ?destroy@?$allocator@PAU_Node@?$_List_nod@PAVCServerListEntry@@V?$allocator@PAVCServerListEntry@@@std@@@std@@@std@@QAEXPAPAU_Node@?$_List_nod@PAVCServerListEntry@@V?$allocator@PAVCServerListEntry@@@std@@@2@@Z 10034670 f i ServerBrowser.obj
 0001:000336a0       ??0const_iterator@?$list@PAVCServerListEntry@@V?$allocator@PAVCServerListEntry@@@std@@@std@@QAE@PAU_Node@?$_List_nod@PAVCServerListEntry@@V?$allocator@PAVCServerListEntry@@@std@@@2@@Z 100346a0 f i ServerBrowser.obj
 0001:000336c0       ??Econst_iterator@?$list@PAVCServerListEntry@@V?$allocator@PAVCServerListEntry@@@std@@@std@@QAEAAV012@XZ 100346c0 f i ServerBrowser.obj
 0001:00033700       ??0?$_List_nod@PAVCServerListEntry@@V?$allocator@PAVCServerListEntry@@@std@@@std@@IAE@V?$allocator@PAVCServerListEntry@@@1@@Z 10034700 f i ServerBrowser.obj
 0001:00033730       ?destroy@?$allocator@U_Node@?$_List_nod@PAVCServerListEntry@@V?$allocator@PAVCServerListEntry@@@std@@@std@@@std@@QAEXPAU_Node@?$_List_nod@PAVCServerListEntry@@V?$allocator@PAVCServerListEntry@@@std@@@2@@Z 10034730 f i ServerBrowser.obj
 0001:00033760       ??$?0PAVCServerListEntry@@@?$allocator@PAU_Node@?$_List_nod@PAVCServerListEntry@@V?$allocator@PAVCServerListEntry@@@std@@@std@@@std@@QAE@ABV?$allocator@PAVCServerListEntry@@@1@@Z 10034760 f i ServerBrowser.obj
 0001:00033780       ??$_Allocate@U_Node@?$_List_nod@PAVCServerListEntry@@V?$allocator@PAVCServerListEntry@@@std@@@std@@@std@@YAPAU_Node@?$_List_nod@PAVCServerListEntry@@V?$allocator@PAVCServerListEntry@@@std@@@0@IPAU120@@Z 10034780 f i ServerBrowser.obj
 0001:000337a0       ??$_Construct@PAU_Node@?$_List_nod@PAVCServerListEntry@@V?$allocator@PAVCServerListEntry@@@std@@@std@@PAU123@@std@@YAXPAPAU_Node@?$_List_nod@PAVCServerListEntry@@V?$allocator@PAVCServerListEntry@@@std@@@0@ABQAU120@@Z 100347a0 f i ServerBrowser.obj
 0001:00033800       ??$_Destroy@PAU_Node@?$_List_nod@PAVCServerListEntry@@V?$allocator@PAVCServerListEntry@@@std@@@std@@@std@@YAXPAPAU_Node@?$_List_nod@PAVCServerListEntry@@V?$allocator@PAVCServerListEntry@@@std@@@0@@Z 10034800 f i ServerBrowser.obj
 0001:00033810       ??$?0PAVCServerListEntry@@@?$allocator@U_Node@?$_List_nod@PAVCServerListEntry@@V?$allocator@PAVCServerListEntry@@@std@@@std@@@std@@QAE@ABV?$allocator@PAVCServerListEntry@@@1@@Z 10034810 f i ServerBrowser.obj
 0001:00033830       ??$_Destroy@U_Node@?$_List_nod@PAVCServerListEntry@@V?$allocator@PAVCServerListEntry@@@std@@@std@@@std@@YAXPAU_Node@?$_List_nod@PAVCServerListEntry@@V?$allocator@PAVCServerListEntry@@@std@@@0@@Z 10034830 f i ServerBrowser.obj
 0001:00033840       ??0CServerListEntry@@QAE@PBD00GGEE@Z 10034840 f   ServerList.obj
 0001:00033910       ?AddServer@CServerList@@QAEPAVCServerListEntry@@PBD00GGEE@Z 10034910 f   ServerList.obj
 0001:00033a40       ?FindServerFromIP@CServerList@@QAEPAVCServerListEntry@@PBD@Z 10034a40 f   ServerList.obj
 0001:00033b20       ?RemoveServer@CServerList@@QAEXPAVCServerListEntry@@@Z 10034b20 f   ServerList.obj
 0001:00033c30       ?GetListView@CServerList@@QAEPAVCEListView@EngCtrls@@XZ 10034c30 f   ServerList.obj
 0001:00033c50       ?DeleteAll@CServerList@@QAEXXZ 10034c50 f   ServerList.obj
 0001:00033d30       ?GetCount@CServerList@@QAEIXZ 10034d30 f   ServerList.obj
 0001:00033d60       ?UpdateListedServerData@CServerList@@QAEXPAVCServerListEntry@@@Z 10034d60 f   ServerList.obj
 0001:00034020       ?InitializeControls@CServerList@@QAEXPAUHWND__@@@Z 10035020 f   ServerList.obj
 0001:00034200       ??_ECServerListEntry@@UAEPAXI@Z 10035200 f i ServerList.obj
 0001:00034200       ??_GCServerListEntry@@UAEPAXI@Z 10035200 f i ServerList.obj
 0001:00034240       ??1CServerListEntry@@UAE@XZ 10035240 f i ServerList.obj
 0001:00034260       ?GetHandle@CEListView@EngCtrls@@QAEPAUHWND__@@XZ 10035260 f i ServerList.obj
 0001:00034280       ?SetExtendedStyle@CEListView@EngCtrls@@QAEXK@Z 10035280 f i ServerList.obj
 0001:000342d0       ?size@?$list@PAVCServerListEntry@@V?$allocator@PAVCServerListEntry@@@std@@@std@@QBEIXZ 100352d0 f i ServerList.obj
 0001:000342f0       ?push_back@?$list@PAVCServerListEntry@@V?$allocator@PAVCServerListEntry@@@std@@@std@@QAEXABQAVCServerListEntry@@@Z 100352f0 f i ServerList.obj
 0001:00034340       ?erase@?$list@PAVCServerListEntry@@V?$allocator@PAVCServerListEntry@@@std@@@std@@QAE?AViterator@12@V312@@Z 10035340 f i ServerList.obj
 0001:00034420       ?_Insert@?$list@PAVCServerListEntry@@V?$allocator@PAVCServerListEntry@@@std@@@std@@QAEXViterator@12@ABQAVCServerListEntry@@@Z 10035420 f i ServerList.obj
 0001:000344c0       ?_Mynode@const_iterator@?$list@PAVCServerListEntry@@V?$allocator@PAVCServerListEntry@@@std@@@std@@QBEPAU_Node@?$_List_nod@PAVCServerListEntry@@V?$allocator@PAVCServerListEntry@@@std@@@3@XZ 100354c0 f i ServerList.obj
 0001:000344e0       ?_Buynode@?$list@PAVCServerListEntry@@V?$allocator@PAVCServerListEntry@@@std@@@std@@IAEPAU_Node@?$_List_nod@PAVCServerListEntry@@V?$allocator@PAVCServerListEntry@@@std@@@2@PAU342@0ABQAVCServerListEntry@@@Z 100354e0 f i ServerList.obj
 0001:000345c0       ?_Incsize@?$list@PAVCServerListEntry@@V?$allocator@PAVCServerListEntry@@@std@@@std@@IAEXI@Z 100355c0 f i ServerList.obj
 0001:00034670       ?max_size@?$list@PAVCServerListEntry@@V?$allocator@PAVCServerListEntry@@@std@@@std@@QBEIXZ 10035670 f i ServerList.obj
 0001:000346a0       ??0_Node@?$_List_nod@PAVCServerListEntry@@V?$allocator@PAVCServerListEntry@@@std@@@std@@QAE@PAU012@0ABQAVCServerListEntry@@@Z 100356a0 f i ServerList.obj
 0001:000346e0       ?max_size@?$allocator@PAVCServerListEntry@@@std@@QBEIXZ 100356e0 f i ServerList.obj
 0001:00034730       ?FixupImports@@YAXXZ       10035730 f   Imports.obj
 0001:00034760       ?WorldFrobbableReceiveMessage@@YGXPAUIRootScript@@PAUsScrMsg@@PAVcMultiParm@@W4eScrTraceAction@@@Z 10035760 f   ScriptHooks.obj
 0001:00034a30       ?HookStdElevatorReceiveMessage@@YGXPAVStdElevatorScript@@PAUsScrMsg@@PAVcMultiParm@@W4eScrTraceAction@@@Z 10035a30 f   ScriptHooks.obj
 0001:00034c10       ?HookContainerReceiveMessage@@YGXPAUIRootScript@@PAUsScrMsg@@PAVcMultiParm@@W4eScrTraceAction@@@Z 10035c10 f   ScriptHooks.obj
 0001:00034d60       ?HookLockSoundsReceiveMessage@@YGXPAUIRootScript@@PAUsScrMsg@@PAVcMultiParm@@W4eScrTraceAction@@@Z 10035d60 f   ScriptHooks.obj
 0001:00035070       ?HookStdBookReceiveMessage@@YGXPAUIRootScript@@PAUsScrMsg@@PAVcMultiParm@@W4eScrTraceAction@@@Z 10036070 f   ScriptHooks.obj
 0001:00035230       ?HookStdKeyReceiveMessage@@YGXPAUIRootScript@@PAUsScrMsg@@PAVcMultiParm@@W4eScrTraceAction@@@Z 10036230 f   ScriptHooks.obj
 0001:00035470       ?HookCameraAlertReceiveMessage@@YGXPAUIRootScript@@PAUsScrMsg@@PAVcMultiParm@@W4eScrTraceAction@@@Z 10036470 f   ScriptHooks.obj
 0001:00035740       ?HookArrowReceiveMessage@@YGXPAUIRootScript@@PAUsScrMsg@@PAVcMultiParm@@W4eScrTraceAction@@@Z 10036740 f   ScriptHooks.obj
 0001:000359d0       ?HookCollisionStickReceiveMessage@@YGXPAVCollisionStickScript@@PAUsScrMsg@@PAVcMultiParm@@W4eScrTraceAction@@@Z 100369d0 f   ScriptHooks.obj
 0001:00035e60       ?HookVictoryCheckOnSlain@@YGXPAUsScrMsg@@PAVcMultiParm@@@Z 10036e60 f   ScriptHooks.obj
 0001:00035e90       ?ApplyGenPatches@@YAXXZ    10036e90 f   ScriptHooks.obj
 0001:00035f30       ?ApplyConvictPatches@@YAXXZ 10036f30 f   ScriptHooks.obj
 0001:00035fb0       ?IsScriptModule@@YA_NPBD0@Z 10036fb0 f   ScriptHooks.obj
 0001:000360a0       ?AddModule@HookScriptMan@@YGJKPBD@Z 100370a0 f   ScriptHooks.obj
 0001:00036170       ?SendMessageA@HookScriptMan@@YGJKPAUsScrMsg@@PAUsMultiParm@@@Z 10037170 f   ScriptHooks.obj
 0001:000361f0       ??0sMultiParm@@QAE@H@Z     100371f0 f i ScriptHooks.obj
 0001:00036220       ??0true_bool@@QAE@H@Z      10037220 f i ScriptHooks.obj
 0001:00036240       ??Btrue_bool@@QBE_NXZ      10037240 f i ScriptHooks.obj
 0001:00036260       ??0StringHashTable@@QAE@PAUStringHash@@H@Z 10037260 f   StringHashTable.obj
 0001:000362e0       ?FindString@StringHashTable@@QAE?AW4StringHashID@@PBD@Z 100372e0 f   StringHashTable.obj
 0001:00036370       ?StringHashInit@@YAXXZ     10037370 f   StringHashTable.obj
 0001:00036440       ?StringHashTerm@@YAXXZ     10037440 f   StringHashTable.obj
 0001:00036480       ?LoadPCX@@YAPAUIRes@@PBD0_N@Z 10037480 f   DarkOverlay.obj
 0001:00036640       ?LoadPCXSimple@@YAPAUIRes@@PBD0@Z 10037640 f   DarkOverlay.obj
 0001:00036730       ?FreePCX@@YAXAAPAUIRes@@@Z 10037730 f   DarkOverlay.obj
 0001:00036790       ?DrawByHandle@@YAXPAUIRes@@AAUPoint@@@Z 10037790 f   DarkOverlay.obj
 0001:00036810       ?Draw@DarkOverlay@@UAEXXZ  10037810 f   DarkOverlay.obj
 0001:00036900       ?AddText@DarkOverlay@@QAEPAVElement_Text@@PBDMMKKPAUgrs_font@@@Z 10037900 f   DarkOverlay.obj
 0001:000369d0       ?AddImage@DarkOverlay@@QAEPAVElement_Image@@PBD0MMKP6AXPAVDialogElement@@UPoint@@@Z@Z 100379d0 f   DarkOverlay.obj
 0001:00036aa0       ?AddButton@DarkOverlay@@QAEPAVElement_Button@@PBDMMKKPAUgrs_font@@P6AXPAVDialogElement@@UPoint@@@Z@Z 10037aa0 f   DarkOverlay.obj
 0001:00036b70       ?AddEdit@DarkOverlay@@QAEPAVElement_Edit@@PBDMMKKPAUgrs_font@@HP6AXPAVDialogElement@@@Z@Z 10037b70 f   DarkOverlay.obj
 0001:00036c40       ??0DarkOverlayManager@@QAE@XZ 10037c40 f   DarkOverlay.obj
 0001:00036ea0       ??1DarkOverlayManager@@UAE@XZ 10037ea0 f   DarkOverlay.obj
 0001:00036f30       ?EnableOverlay@DarkOverlayManager@@QAEXPBD_N@Z 10037f30 f   DarkOverlay.obj
 0001:00036fe0       ?FindByName@DarkOverlayManager@@QAEPAUIDarkOverlay@@PBD@Z 10037fe0 f   DarkOverlay.obj
 0001:00037080       ?OverlayEnabled@DarkOverlayManager@@QAE_NPBD@Z 10038080 f   DarkOverlay.obj
 0001:000370e0       ?ToggleOverlay@DarkOverlayManager@@QAEXPBD@Z 100380e0 f   DarkOverlay.obj
 0001:00037190       ?Add@DarkOverlayManager@@QAEXPAUIDarkOverlay@@@Z 10038190 f   DarkOverlay.obj
 0001:00037220       ?InitAll@DarkOverlayManager@@QAEXXZ 10038220 f   DarkOverlay.obj
 0001:00037290       ?DrawAll@DarkOverlayManager@@QAEXXZ 10038290 f   DarkOverlay.obj
 0001:00037330       ?DisableAll@DarkOverlayManager@@QAEXXZ 10038330 f   DarkOverlay.obj
 0001:000373b0       ?AnyEnabled@DarkOverlayManager@@QAE_NXZ 100383b0 f   DarkOverlay.obj
 0001:00037430       ?TermAll@DarkOverlayManager@@QAEXXZ 10038430 f   DarkOverlay.obj
 0001:000374a0       ?OnFrame@DarkOverlayManager@@QAEXXZ 100384a0 f   DarkOverlay.obj
 0001:000374d0       ?EnableMouseMode@DarkOverlayManager@@QAEX_N@Z 100384d0 f   DarkOverlay.obj
 0001:00037640       ?DrawCursor@DarkOverlayManager@@QAEXXZ 10038640 f   DarkOverlay.obj
 0001:00037700       ?HandleClick@DarkOverlayManager@@QAE_NXZ 10038700 f   DarkOverlay.obj
 0001:00037830       ??0DarkOverlay@@QAE@PBD@Z  10038830 f   DarkOverlay.obj
 0001:000378f0       ?SetEnable@DarkOverlay@@UAEX_N@Z 100388f0 f   DarkOverlay.obj
 0001:00037960       ?IsEnabled@DarkOverlay@@UAE_NXZ 10038960 f   DarkOverlay.obj
 0001:00037980       ?GetID@DarkOverlay@@UAEKXZ 10038980 f   DarkOverlay.obj
 0001:000379a0       ?PointInOverlay@DarkOverlay@@IAE_NUPoint@@@Z 100389a0 f   DarkOverlay.obj
 0001:00037a40       ?CenterRect@DarkOverlay@@IAEXAAURect@@0@Z 10038a40 f   DarkOverlay.obj
 0001:00037b20       ?CenterInOverlay@DarkOverlay@@IAEXAAURect@@@Z 10038b20 f   DarkOverlay.obj
 0001:00037b60       ?ScaleRect@DarkOverlay@@IAE?AURect@@ABU2@0@Z 10038b60 f   DarkOverlay.obj
 0001:00037c30       ?Init@DarkOverlay@@UAE_NXZ 10038c30 f   DarkOverlay.obj
 0001:00037ca0       ?Term@DarkOverlay@@UAE_NXZ 10038ca0 f   DarkOverlay.obj
 0001:00037d60       ??0PlayersOverlay@@QAE@PBD@Z 10038d60 f   DarkOverlay.obj
 0001:00037da0       ??1PlayersOverlay@@UAE@XZ  10038da0 f   DarkOverlay.obj
 0001:00037dd0       ?Draw@PlayersOverlay@@UAEXXZ 10038dd0 f   DarkOverlay.obj
 0001:00037e50       ?OnLeftClick@PlayersOverlay@@UAEXUPoint@@@Z 10038e50 f   DarkOverlay.obj
 0001:00037ee0       ?UpdatePlayers@PlayersOverlay@@QAEXXZ 10038ee0 f   DarkOverlay.obj
 0001:00038260       ?Init@PlayersOverlay@@UAE_NXZ 10039260 f   DarkOverlay.obj
 0001:00038700       ?SetEnable@PlayersOverlay@@UAEX_N@Z 10039700 f   DarkOverlay.obj
 0001:000387c0       ?OnEndGameClicked@PlayersOverlay@@SAXPAVDialogElement@@UPoint@@@Z 100397c0 f   DarkOverlay.obj
 0001:000387e0       ?OnAddTimeClicked@PlayersOverlay@@SAXPAVDialogElement@@UPoint@@@Z 100397e0 f   DarkOverlay.obj
 0001:00038820       ?OnKickPlayerClicked@PlayersOverlay@@SAXPAVDialogElement@@UPoint@@@Z 10039820 f   DarkOverlay.obj
 0001:00038900       ??0MapOverlay@@QAE@PBD@Z   10039900 f   DarkOverlay.obj
 0001:000389c0       ??1MapOverlay@@UAE@XZ      100399c0 f   DarkOverlay.obj
 0001:00038a30       ?Term@MapOverlay@@UAE_NXZ  10039a30 f   DarkOverlay.obj
 0001:00038a90       ?Init@MapOverlay@@UAE_NXZ  10039a90 f   DarkOverlay.obj
 0001:00038c30       ?Draw@MapOverlay@@UAEXXZ   10039c30 f   DarkOverlay.obj
 0001:00038f90       ?SetEnable@MapOverlay@@UAEX_N@Z 10039f90 f   DarkOverlay.obj
 0001:00039060       ?UpdateLocation@MapOverlay@@QAEXXZ 1003a060 f   DarkOverlay.obj
 0001:00039110       ?RefreshPage@MapOverlay@@QAEXXZ 1003a110 f   DarkOverlay.obj
 0001:00039140       ?LoadMapImage@MapOverlay@@QAEXXZ 1003a140 f   DarkOverlay.obj
 0001:00039250       ?OnLeftClick@MapOverlay@@UAEXUPoint@@@Z 1003a250 f   DarkOverlay.obj
 0001:000392c0       ?OnReadBook@@YGJKPBD0@Z    1003a2c0 f   DarkOverlay.obj
 0001:000393a0       ??0BookOverlay@@QAE@PBD@Z  1003a3a0 f   DarkOverlay.obj
 0001:00039470       ??1BookOverlay@@UAE@XZ     1003a470 f   DarkOverlay.obj
 0001:00039500       ?Init@BookOverlay@@UAE_NXZ 1003a500 f   DarkOverlay.obj
 0001:00039570       ?Term@BookOverlay@@UAE_NXZ 1003a570 f   DarkOverlay.obj
 0001:000395d0       ?Draw@BookOverlay@@UAEXXZ  1003a5d0 f   DarkOverlay.obj
 0001:00039c50       ?SetEnable@BookOverlay@@UAEX_N@Z 1003ac50 f   DarkOverlay.obj
 0001:00039ca0       ?OnLeftClick@BookOverlay@@UAEXUPoint@@@Z 1003aca0 f   DarkOverlay.obj
 0001:00039d40       ?DestroyBook@BookOverlay@@QAEXXZ 1003ad40 f   DarkOverlay.obj
 0001:00039e70       ?LoadBook@BookOverlay@@QAEXPBD0@Z 1003ae70 f   DarkOverlay.obj
 0001:0003a440       ?SetupPages@BookOverlay@@QAEXXZ 1003b440 f   DarkOverlay.obj
 0001:0003a5a0       ??0SimOverlay@@QAE@PBD@Z   1003b5a0 f   DarkOverlay.obj
 0001:0003a650       ??1SimOverlay@@UAE@XZ      1003b650 f   DarkOverlay.obj
 0001:0003a6c0       ?Init@SimOverlay@@UAE_NXZ  1003b6c0 f   DarkOverlay.obj
 0001:0003a7f0       ?Term@SimOverlay@@UAE_NXZ  1003b7f0 f   DarkOverlay.obj
 0001:0003a870       ?Draw@SimOverlay@@UAEXXZ   1003b870 f   DarkOverlay.obj
 0001:0003ac80       ?SetEnable@SimOverlay@@UAEX_N@Z 1003bc80 f   DarkOverlay.obj
 0001:0003acd0       ??0ObjectivesOverlay@@QAE@PBD@Z 1003bcd0 f   DarkOverlay.obj
 0001:0003ad90       ??1ObjectivesOverlay@@UAE@XZ 1003bd90 f   DarkOverlay.obj
 0001:0003ae00       ?Init@ObjectivesOverlay@@UAE_NXZ 1003be00 f   DarkOverlay.obj
 0001:0003b1b0       ?Term@ObjectivesOverlay@@UAE_NXZ 1003c1b0 f   DarkOverlay.obj
 0001:0003b200       ?DrawGoalStatus@ObjectivesOverlay@@IAEXHPAUgrs_font@@H@Z 1003c200 f   DarkOverlay.obj
 0001:0003b360       ?GetGoalSpacing@ObjectivesOverlay@@IAEHPAUgrs_font@@@Z 1003c360 f   DarkOverlay.obj
 0001:0003b3d0       ?DisplayFits@ObjectivesOverlay@@IAE_NABURect@@PAUgrs_font@@@Z 1003c3d0 f   DarkOverlay.obj
 0001:0003b570       ?Draw@ObjectivesOverlay@@UAEXXZ 1003c570 f   DarkOverlay.obj
 0001:0003bb20       ?SetEnable@ObjectivesOverlay@@UAEX_N@Z 1003cb20 f   DarkOverlay.obj
 0001:0003bbb0       ??0StagingOverlay@@QAE@PBD@Z 1003cbb0 f   DarkOverlay.obj
 0001:0003bbf0       ??1StagingOverlay@@UAE@XZ  1003cbf0 f   DarkOverlay.obj
 0001:0003bc20       ?Draw@StagingOverlay@@UAEXXZ 1003cc20 f   DarkOverlay.obj
 0001:0003bcd0       ?Init@StagingOverlay@@UAE_NXZ 1003ccd0 f   DarkOverlay.obj
 0001:0003c330       ?UpdateSettings@StagingOverlay@@IAEXXZ 1003d330 f   DarkOverlay.obj
 0001:0003c670       ?OnLoadMission@StagingOverlay@@SAXPAVDialogElement@@UPoint@@@Z 1003d670 f   DarkOverlay.obj
 0001:0003c6d0       ?OnQuit@StagingOverlay@@SAXPAVDialogElement@@UPoint@@@Z 1003d6d0 f   DarkOverlay.obj
 0001:0003c730       ?SetEnable@StagingOverlay@@UAEX_N@Z 1003d730 f   DarkOverlay.obj
 0001:0003c780       ?OnLeftClick@StagingOverlay@@UAEXUPoint@@@Z 1003d780 f   DarkOverlay.obj
 0001:0003c7b0       ?IsStagingMode@@YA_NXZ     1003d7b0 f   DarkOverlay.obj
 0001:0003c7d0       ?StagingDisplay@@YAXXZ     1003d7d0 f   DarkOverlay.obj
 0001:0003c7e0       ?StagingClose@@YAXXZ       1003d7e0 f   DarkOverlay.obj
 0001:0003c820       ?OverlayInit@@YAXXZ        1003d820 f   DarkOverlay.obj
 0001:0003c8b0       ?OverlayTerm@@YAXXZ        1003d8b0 f   DarkOverlay.obj
 0001:0003c920       ??_GDarkOverlayManager@@UAEPAXI@Z 1003d920 f i DarkOverlay.obj
 0001:0003c920       ??_EDarkOverlayManager@@UAEPAXI@Z 1003d920 f i DarkOverlay.obj
 0001:0003c960       ?GetName@DarkOverlay@@UAEPBDXZ 1003d960 f i DarkOverlay.obj
 0001:0003c980       ?OnLeftClick@DarkOverlay@@UAEXUPoint@@@Z 1003d980 f i DarkOverlay.obj
 0001:0003c9a0       ?GetDrawingArea@DarkOverlay@@UAEABURect@@XZ 1003d9a0 f i DarkOverlay.obj
 0001:0003c9c0       ??_EDarkOverlay@@UAEPAXI@Z 1003d9c0 f i DarkOverlay.obj
 0001:0003c9c0       ??_GDarkOverlay@@UAEPAXI@Z 1003d9c0 f i DarkOverlay.obj
 0001:0003ca00       ??1DarkOverlay@@UAE@XZ     1003da00 f i DarkOverlay.obj
 0001:0003ca30       ??0IDarkOverlay@@QAE@XZ    1003da30 f i DarkOverlay.obj
 0001:0003ca50       ??_GPlayersOverlay@@UAEPAXI@Z 1003da50 f i DarkOverlay.obj
 0001:0003ca50       ??_EPlayersOverlay@@UAEPAXI@Z 1003da50 f i DarkOverlay.obj
 0001:0003ca90       ??_GMapOverlay@@UAEPAXI@Z  1003da90 f i DarkOverlay.obj
 0001:0003ca90       ??_EMapOverlay@@UAEPAXI@Z  1003da90 f i DarkOverlay.obj
 0001:0003cad0       ??_EBookOverlay@@UAEPAXI@Z 1003dad0 f i DarkOverlay.obj
 0001:0003cad0       ??_GBookOverlay@@UAEPAXI@Z 1003dad0 f i DarkOverlay.obj
 0001:0003cb10       ??_ESimOverlay@@UAEPAXI@Z  1003db10 f i DarkOverlay.obj
 0001:0003cb10       ??_GSimOverlay@@UAEPAXI@Z  1003db10 f i DarkOverlay.obj
 0001:0003cb50       ??_GObjectivesOverlay@@UAEPAXI@Z 1003db50 f i DarkOverlay.obj
 0001:0003cb50       ??_EObjectivesOverlay@@UAEPAXI@Z 1003db50 f i DarkOverlay.obj
 0001:0003cb90       ??_EStagingOverlay@@UAEPAXI@Z 1003db90 f i DarkOverlay.obj
 0001:0003cb90       ??_GStagingOverlay@@UAEPAXI@Z 1003db90 f i DarkOverlay.obj
 0001:0003cbd0       ??B?$GlobalPointer@UISearchPath@@@@QBEPAUISearchPath@@XZ 1003dbd0 f i DarkOverlay.obj
 0001:0003cbf0       ??B?$cDynArray@URect@@@@QAE_NXZ 1003dbf0 f i DarkOverlay.obj
 0001:0003cc10       ?Destroy@?$cDynArray@URect@@@@QAEXXZ 1003dc10 f i DarkOverlay.obj
 0001:0003cc60       ??B?$IPtr@UIQuestData@@@@QBEPAUIQuestData@@XZ 1003dc60 f i DarkOverlay.obj
 0001:0003cc80       ??0?$vector@PAVDialogElement@@V?$allocator@PAVDialogElement@@@std@@@std@@QAE@XZ 1003dc80 f i DarkOverlay.obj
 0001:0003ccd0       ??1?$vector@PAVDialogElement@@V?$allocator@PAVDialogElement@@@std@@@std@@QAE@XZ 1003dcd0 f i DarkOverlay.obj
 0001:0003cd00       ?size@?$vector@PAVDialogElement@@V?$allocator@PAVDialogElement@@@std@@@std@@QBEIXZ 1003dd00 f i DarkOverlay.obj
 0001:0003cd50       ??A?$vector@PAVDialogElement@@V?$allocator@PAVDialogElement@@@std@@@std@@QAEAAPAVDialogElement@@I@Z 1003dd50 f i DarkOverlay.obj
 0001:0003cda0       ?push_back@?$vector@PAVDialogElement@@V?$allocator@PAVDialogElement@@@std@@@std@@QAEXABQAVDialogElement@@@Z 1003dda0 f i DarkOverlay.obj
 0001:0003ce30       ?clear@?$vector@PAVDialogElement@@V?$allocator@PAVDialogElement@@@std@@@std@@QAEXXZ 1003de30 f i DarkOverlay.obj
 0001:0003ce60       ??B?$IPtr@UIResMan@@@@QBEPAUIResMan@@XZ 1003de60 f i DarkOverlay.obj
 0001:0003ce80       ??4?$IPtr@UIResMan@@@@QAEABV0@PAX@Z 1003de80 f i DarkOverlay.obj
 0001:0003cea0       ??BcAnsiStr@@QBEPBDXZ      1003dea0 f i DarkOverlay.obj
 0001:0003cec0       ??YcAnsiStr@@QAEAAV0@PBD@Z 1003dec0 f i DarkOverlay.obj
 0001:0003cf00       ??YcAnsiStr@@QAEAAV0@ABV0@@Z 1003df00 f i DarkOverlay.obj
 0001:0003cf40       ?capacity@?$vector@PAVDialogElement@@V?$allocator@PAVDialogElement@@@std@@@std@@QBEIXZ 1003df40 f i DarkOverlay.obj
 0001:0003cf90       ?begin@?$vector@PAVDialogElement@@V?$allocator@PAVDialogElement@@@std@@@std@@QAE?AViterator@12@XZ 1003df90 f i DarkOverlay.obj
 0001:0003cfc0       ?end@?$vector@PAVDialogElement@@V?$allocator@PAVDialogElement@@@std@@@std@@QAE?AViterator@12@XZ 1003dfc0 f i DarkOverlay.obj
 0001:0003cff0       ?insert@?$vector@PAVDialogElement@@V?$allocator@PAVDialogElement@@@std@@@std@@QAE?AViterator@12@V312@ABQAVDialogElement@@@Z 1003dff0 f i DarkOverlay.obj
 0001:0003d080       ??YRect@@QAEABU0@ABU0@@Z   1003e080 f i DarkOverlay.obj
 0001:0003d0f0       ?_Buy@?$vector@PAVDialogElement@@V?$allocator@PAVDialogElement@@@std@@@std@@IAE_NI@Z 1003e0f0 f i DarkOverlay.obj
 0001:0003d180       ?Width@Rect@@QBEHXZ        1003e180 f i DarkOverlay.obj
 0001:0003d1b0       ?Height@Rect@@QBEHXZ       1003e1b0 f i DarkOverlay.obj
 0001:0003d1e0       ?_Tidy@?$vector@PAVDialogElement@@V?$allocator@PAVDialogElement@@@std@@@std@@IAEXXZ 1003e1e0 f i DarkOverlay.obj
 0001:0003d260       ??0Point@@QAE@FF@Z         1003e260 f i DarkOverlay.obj
 0001:0003d290       ?_Ufill@?$vector@PAVDialogElement@@V?$allocator@PAVDialogElement@@@std@@@std@@IAEPAPAVDialogElement@@PAPAV3@IABQAV3@@Z 1003e290 f i DarkOverlay.obj
 0001:0003d2d0       ??0?$_Vector_val@PAVDialogElement@@V?$allocator@PAVDialogElement@@@std@@@std@@IAE@V?$allocator@PAVDialogElement@@@1@@Z 1003e2d0 f i DarkOverlay.obj
 0001:0003d300       ??0?$allocator@PAVDialogElement@@@std@@QAE@XZ 1003e300 f i DarkOverlay.obj
 0001:0003d320       ??Diterator@?$vector@PAVDialogElement@@V?$allocator@PAVDialogElement@@@std@@@std@@QBEAAPAVDialogElement@@XZ 1003e320 f i DarkOverlay.obj
 0001:0003d350       ??Hiterator@?$vector@PAVDialogElement@@V?$allocator@PAVDialogElement@@@std@@@std@@QBE?AV012@H@Z 1003e350 f i DarkOverlay.obj
 0001:0003d3d0       ?max_size@?$vector@PAVDialogElement@@V?$allocator@PAVDialogElement@@@std@@@std@@QBEIXZ 1003e3d0 f i DarkOverlay.obj
 0001:0003d400       ?_Destroy@?$vector@PAVDialogElement@@V?$allocator@PAVDialogElement@@@std@@@std@@IAEXPAPAVDialogElement@@0@Z 1003e400 f i DarkOverlay.obj
 0001:0003d440       ?_Insert_n@?$vector@PAVDialogElement@@V?$allocator@PAVDialogElement@@@std@@@std@@IAEXViterator@12@IABQAVDialogElement@@@Z 1003e440 f i DarkOverlay.obj
 0001:0003d7b0       ?_Xlen@?$vector@PAVDialogElement@@V?$allocator@PAVDialogElement@@@std@@@std@@IBEXXZ 1003e7b0 f i DarkOverlay.obj
 0001:0003d840       ??0?$allocator@PAVDialogElement@@@std@@QAE@ABV01@@Z 1003e840 f i DarkOverlay.obj
 0001:0003d860       ?deallocate@?$allocator@PAVDialogElement@@@std@@QAEXPAPAVDialogElement@@I@Z 1003e860 f i DarkOverlay.obj
 0001:0003d890       ?allocate@?$allocator@PAVDialogElement@@@std@@QAEPAPAVDialogElement@@I@Z 1003e890 f i DarkOverlay.obj
 0001:0003d8c0       ??0iterator@?$vector@PAVDialogElement@@V?$allocator@PAVDialogElement@@@std@@@std@@QAE@PAPAVDialogElement@@@Z 1003e8c0 f i DarkOverlay.obj
 0001:0003d8f0       ??Yiterator@?$vector@PAVDialogElement@@V?$allocator@PAVDialogElement@@@std@@@std@@QAEAAV012@H@Z 1003e8f0 f i DarkOverlay.obj
 0001:0003d920       ??Giterator@?$vector@PAVDialogElement@@V?$allocator@PAVDialogElement@@@std@@@std@@QBEHABVconst_iterator@12@@Z 1003e920 f i DarkOverlay.obj
 0001:0003d960       ??Dconst_iterator@?$vector@PAVDialogElement@@V?$allocator@PAVDialogElement@@@std@@@std@@QBEABQAVDialogElement@@XZ 1003e960 f i DarkOverlay.obj
 0001:0003d980       ?max_size@?$allocator@PAVDialogElement@@@std@@QBEIXZ 1003e980 f i DarkOverlay.obj
 0001:0003d9d0       ??0const_iterator@?$vector@PAVDialogElement@@V?$allocator@PAVDialogElement@@@std@@@std@@QAE@PAPAVDialogElement@@@Z 1003e9d0 f i DarkOverlay.obj
 0001:0003d9f0       ??Gconst_iterator@?$vector@PAVDialogElement@@V?$allocator@PAVDialogElement@@@std@@@std@@QBEHABV012@@Z 1003e9f0 f i DarkOverlay.obj
 0001:0003da20       ??$_Uninitialized_fill_n@PAPAVDialogElement@@IPAV1@V?$allocator@PAVDialogElement@@@std@@@std@@YAXPAPAVDialogElement@@IABQAV1@AAV?$allocator@PAVDialogElement@@@0@@Z 1003ea20 f i DarkOverlay.obj
 0001:0003da70       ??$_Destroy_range@PAVDialogElement@@V?$allocator@PAVDialogElement@@@std@@@std@@YAXPAPAVDialogElement@@0AAV?$allocator@PAVDialogElement@@@0@@Z 1003ea70 f i DarkOverlay.obj
 0001:0003dac0       ??$_Ucopy@PAPAVDialogElement@@@?$vector@PAVDialogElement@@V?$allocator@PAVDialogElement@@@std@@@std@@IAEPAPAVDialogElement@@PAPAV2@00@Z 1003eac0 f i DarkOverlay.obj
 0001:0003db00       ??$fill@PAPAVDialogElement@@PAV1@@std@@YAXPAPAVDialogElement@@0ABQAV1@@Z 1003eb00 f i DarkOverlay.obj
 0001:0003db30       ??$copy_backward@PAPAVDialogElement@@PAPAV1@@std@@YAPAPAVDialogElement@@PAPAV1@00@Z 1003eb30 f i DarkOverlay.obj
 0001:0003db80       ??$_Allocate@PAVDialogElement@@@std@@YAPAPAVDialogElement@@IPAPAV1@@Z 1003eb80 f i DarkOverlay.obj
 0001:0003dba0       ??$_Ptr_cat@VDialogElement@@@std@@YA?AU_Scalar_ptr_iterator_tag@0@PAPAVDialogElement@@0@Z 1003eba0 f i DarkOverlay.obj
 0001:0003dbf0       ??$_Uninit_fill_n@PAVDialogElement@@IPAV1@@std@@YAXPAPAVDialogElement@@IABQAV1@AAV?$allocator@PAVDialogElement@@@0@U_Scalar_ptr_iterator_tag@0@@Z 1003ebf0 f i DarkOverlay.obj
 0001:0003dc10       ??$_Destroy_range@PAVDialogElement@@V?$allocator@PAVDialogElement@@@std@@@std@@YAXPAPAVDialogElement@@0AAV?$allocator@PAVDialogElement@@@0@U_Scalar_ptr_iterator_tag@0@@Z 1003ec10 f i DarkOverlay.obj
 0001:0003dc20       ??$_Uninitialized_copy@PAPAVDialogElement@@PAPAV1@V?$allocator@PAVDialogElement@@@std@@@std@@YAPAPAVDialogElement@@PAPAV1@00AAV?$allocator@PAVDialogElement@@@0@@Z 1003ec20 f i DarkOverlay.obj
 0001:0003dc70       ??$_Copy_backward_opt@PAPAVDialogElement@@PAPAV1@@std@@YAPAPAVDialogElement@@PAPAV1@00U_Scalar_ptr_iterator_tag@0@@Z 1003ec70 f i DarkOverlay.obj
 0001:0003dcc0       ??$fill_n@PAPAVDialogElement@@IPAV1@@std@@YAXPAPAVDialogElement@@IABQAV1@@Z 1003ecc0 f i DarkOverlay.obj
 0001:0003dcf0       ??$_Uninit_copy@PAVDialogElement@@PAV1@@std@@YAPAPAVDialogElement@@PAPAV1@00AAV?$allocator@PAVDialogElement@@@0@U_Scalar_ptr_iterator_tag@0@@Z 1003ecf0 f i DarkOverlay.obj
 0001:0003dd40       ??1DialogElement@@UAE@XZ   1003ed40 f   DialogElement.obj
 0001:0003dd90       ??0DialogElement@@QAE@PAUIDarkOverlay@@@Z 1003ed90 f   DialogElement.obj
 0001:0003dde0       ?SetEnabled@DialogElement@@QAEX_N@Z 1003ede0 f   DialogElement.obj
 0001:0003de00       ?GetData@DialogElement@@UAEPAXXZ 1003ee00 f   DialogElement.obj
 0001:0003de20       ?HandleClick@DialogElement@@UAE_NUPoint@@@Z 1003ee20 f   DialogElement.obj
 0001:0003dfa0       ?SetData@DialogElement@@UAEXPAX@Z 1003efa0 f   DialogElement.obj
 0001:0003dfc0       ?GetParent@DialogElement@@UAEPAUIDarkOverlay@@XZ 1003efc0 f   DialogElement.obj
 0001:0003dfe0       ??0Element_Text@@QAE@PAUIDarkOverlay@@PBDMMKKPAUgrs_font@@@Z 1003efe0 f   DialogElement.obj
 0001:0003e240       ??1Element_Text@@UAE@XZ    1003f240 f   DialogElement.obj
 0001:0003e2b0       ?GetTextWidth@Element_Text@@QAEMXZ 1003f2b0 f   DialogElement.obj
 0001:0003e390       ?Draw@Element_Text@@UAEXXZ 1003f390 f   DialogElement.obj
 0001:0003e410       ?SetText@Element_Text@@QAEXPBD@Z 1003f410 f   DialogElement.obj
 0001:0003e440       ??0Element_Button@@QAE@PAUIDarkOverlay@@PBDMMKKPAUgrs_font@@P6AXPAVDialogElement@@UPoint@@@Z@Z 1003f440 f   DialogElement.obj
 0001:0003e4a0       ??0Element_Image@@QAE@PAUIDarkOverlay@@PBD1MMKP6AXPAVDialogElement@@UPoint@@@Z@Z 1003f4a0 f   DialogElement.obj
 0001:0003e6c0       ??1Element_Image@@UAE@XZ   1003f6c0 f   DialogElement.obj
 0001:0003e740       ?Draw@Element_Image@@UAEXXZ 1003f740 f   DialogElement.obj
 0001:0003e800       ??0Element_Edit@@QAE@PAUIDarkOverlay@@PBDMMKKPAUgrs_font@@HP6AXPAVDialogElement@@@Z@Z 1003f800 f   DialogElement.obj
 0001:0003eaf0       ??1Element_Edit@@UAE@XZ    1003faf0 f   DialogElement.obj
 0001:0003eb90       ?GadgetCallback@Element_Edit@@SAXPAU_LGadTextBox@@W4_LGadTextBoxEvent@@HPAX@Z 1003fb90 f   DialogElement.obj
 0001:0003ebe0       ?Draw@Element_Edit@@UAEXXZ 1003fbe0 f   DialogElement.obj
 0001:0003ede0       ?Focus@Element_Edit@@QAEX_N@Z 1003fde0 f   DialogElement.obj
 0001:0003ef40       ?HandleClick@Element_Edit@@UAE_NUPoint@@@Z 1003ff40 f   DialogElement.obj
 0001:0003f020       ?GetTextWidth@Element_Edit@@QAEMXZ 10040020 f   DialogElement.obj
 0001:0003f0f0       ??_GDialogElement@@UAEPAXI@Z 100400f0 f i DialogElement.obj
 0001:0003f0f0       ??_EDialogElement@@UAEPAXI@Z 100400f0 f i DialogElement.obj
 0001:0003f130       ?GetType@Element_Text@@UAEKXZ 10040130 f i DialogElement.obj
 0001:0003f150       ??_EElement_Text@@UAEPAXI@Z 10040150 f i DialogElement.obj
 0001:0003f150       ??_GElement_Text@@UAEPAXI@Z 10040150 f i DialogElement.obj
 0001:0003f190       ?GetType@Element_Button@@UAEKXZ 10040190 f i DialogElement.obj
 0001:0003f1b0       ??_GElement_Button@@UAEPAXI@Z 100401b0 f i DialogElement.obj
 0001:0003f1b0       ??_EElement_Button@@UAEPAXI@Z 100401b0 f i DialogElement.obj
 0001:0003f1f0       ??1Element_Button@@UAE@XZ  100401f0 f i DialogElement.obj
 0001:0003f220       ?GetType@Element_Image@@UAEKXZ 10040220 f i DialogElement.obj
 0001:0003f240       ??_GElement_Image@@UAEPAXI@Z 10040240 f i DialogElement.obj
 0001:0003f240       ??_EElement_Image@@UAEPAXI@Z 10040240 f i DialogElement.obj
 0001:0003f280       ?GetType@Element_Edit@@UAEKXZ 10040280 f i DialogElement.obj
 0001:0003f2a0       ??_EElement_Edit@@UAEPAXI@Z 100402a0 f i DialogElement.obj
 0001:0003f2a0       ??_GElement_Edit@@UAEPAXI@Z 100402a0 f i DialogElement.obj
 0001:0003f2e0       ?Offset@Rect@@QAEXHH@Z     100402e0 f i DialogElement.obj
 0001:0003f340       ??0ConfigManager@@QAE@XZ   10040340 f   Engined:ConfigManager.obj
 0001:0003f380       ??0ConfigManager@@QAE@PBD@Z 10040380 f   Engined:ConfigManager.obj
 0001:0003f3f0       ??1ConfigManager@@UAE@XZ   100403f0 f   Engined:ConfigManager.obj
 0001:0003f490       ?ClearVariables@ConfigManager@@QAEXXZ 10040490 f   Engined:ConfigManager.obj
 0001:0003f570       ?GetInt@ConfigManager@@QAEHPBD@Z 10040570 f   Engined:ConfigManager.obj
 0001:0003f5e0       ?GetFloat@ConfigManager@@QAEMPBD@Z 100405e0 f   Engined:ConfigManager.obj
 0001:0003f650       ?GetString@ConfigManager@@QAEPBDPBD@Z 10040650 f   Engined:ConfigManager.obj
 0001:0003f6c0       ?GetBool@ConfigManager@@QAE_NPBD@Z 100406c0 f   Engined:ConfigManager.obj
 0001:0003f6f0       ?SetInt@ConfigManager@@QAEXPBDH@Z 100406f0 f   Engined:ConfigManager.obj
 0001:0003f790       ?SetFloat@ConfigManager@@QAEXPBDM@Z 10040790 f   Engined:ConfigManager.obj
 0001:0003f830       ?SetString@ConfigManager@@QAEXPBD0@Z 10040830 f   Engined:ConfigManager.obj
 0001:0003f8d0       ?SetIniFile@ConfigManager@@QAEXPBD@Z 100408d0 f   Engined:ConfigManager.obj
 0001:0003f980       ?FindVariableByName@ConfigManager@@IAEPAVConfigVar@@PBD@Z 10040980 f   Engined:ConfigManager.obj
 0001:0003f9d0       ?FindVariableByHash@ConfigManager@@IAEPAVConfigVar@@K@Z 100409d0 f   Engined:ConfigManager.obj
 0001:0003fa90       ??_EConfigManager@@UAEPAXI@Z 10040a90 f i Engined:ConfigManager.obj
 0001:0003fa90       ??_GConfigManager@@UAEPAXI@Z 10040a90 f i Engined:ConfigManager.obj
 0001:0003fad0       ??_GConfigVar@@QAEPAXI@Z   10040ad0 f i Engined:ConfigManager.obj
 0001:0003fb10       ??1ConfigVar@@QAE@XZ       10040b10 f i Engined:ConfigManager.obj
 0001:0003fb60       ?GetInt@ConfigVar@@QBEHXZ  10040b60 f i Engined:ConfigManager.obj
 0001:0003fbb0       ?GetFloat@ConfigVar@@QBEMXZ 10040bb0 f i Engined:ConfigManager.obj
 0001:0003fc00       ?GetStr@ConfigVar@@QBEPBDXZ 10040c00 f i Engined:ConfigManager.obj
 0001:0003fc50       ?SetInt@ConfigVar@@QAEXH@Z 10040c50 f i Engined:ConfigManager.obj
 0001:0003fca0       ?CreateIntVar@ConfigManager@@IAEPAVConfigVar@@PBD@Z 10040ca0 f i Engined:ConfigManager.obj
 0001:0003fd30       ??0ConfigVar@@QAE@PBDW4CVarType@0@@Z 10040d30 f i Engined:ConfigManager.obj
 0001:0003fd80       ?SetFloat@ConfigVar@@QAEXM@Z 10040d80 f i Engined:ConfigManager.obj
 0001:0003fdd0       ?CreateFloatVar@ConfigManager@@IAEPAVConfigVar@@PBD@Z 10040dd0 f i Engined:ConfigManager.obj
 0001:0003fe60       ?SetStr@ConfigVar@@QAEXPBD@Z 10040e60 f i Engined:ConfigManager.obj
 0001:0003ff10       ?CreateStringVar@ConfigManager@@IAEPAVConfigVar@@PBD@Z 10040f10 f i Engined:ConfigManager.obj
 0001:0003ffa0       ?GetNameHash@ConfigVar@@QBEKXZ 10040fa0 f i Engined:ConfigManager.obj
 0001:0003ffc0       ??0?$list@PAVConfigVar@@V?$allocator@PAVConfigVar@@@std@@@std@@QAE@XZ 10040fc0 f i Engined:ConfigManager.obj
 0001:00040010       ??1?$list@PAVConfigVar@@V?$allocator@PAVConfigVar@@@std@@@std@@QAE@XZ 10041010 f i Engined:ConfigManager.obj
 0001:00040040       ?begin@?$list@PAVConfigVar@@V?$allocator@PAVConfigVar@@@std@@@std@@QAE?AViterator@12@XZ 10041040 f i Engined:ConfigManager.obj
 0001:00040080       ?end@?$list@PAVConfigVar@@V?$allocator@PAVConfigVar@@@std@@@std@@QAE?AViterator@12@XZ 10041080 f i Engined:ConfigManager.obj
 0001:000400b0       ?push_back@?$list@PAVConfigVar@@V?$allocator@PAVConfigVar@@@std@@@std@@QAEXABQAVConfigVar@@@Z 100410b0 f i Engined:ConfigManager.obj
 0001:00040100       ?clear@?$list@PAVConfigVar@@V?$allocator@PAVConfigVar@@@std@@@std@@QAEXXZ 10041100 f i Engined:ConfigManager.obj
 0001:000401c0       ??Diterator@?$list@PAVConfigVar@@V?$allocator@PAVConfigVar@@@std@@@std@@QBEAAPAVConfigVar@@XZ 100411c0 f i Engined:ConfigManager.obj
 0001:000401f0       ??Eiterator@?$list@PAVConfigVar@@V?$allocator@PAVConfigVar@@@std@@@std@@QAE?AV012@H@Z 100411f0 f i Engined:ConfigManager.obj
 0001:00040260       ??9const_iterator@?$list@PAVConfigVar@@V?$allocator@PAVConfigVar@@@std@@@std@@QBE_NABV012@@Z 10041260 f i Engined:ConfigManager.obj
 0001:000402a0       ?_Nextnode@?$list@PAVConfigVar@@V?$allocator@PAVConfigVar@@@std@@@std@@KAAAPAU_Node@?$_List_nod@PAVConfigVar@@V?$allocator@PAVConfigVar@@@std@@@2@PAU342@@Z 100412a0 f i Engined:ConfigManager.obj
 0001:000402b0       ?_Prevnode@?$list@PAVConfigVar@@V?$allocator@PAVConfigVar@@@std@@@std@@KAAAPAU_Node@?$_List_nod@PAVConfigVar@@V?$allocator@PAVConfigVar@@@std@@@2@PAU342@@Z 100412b0 f i Engined:ConfigManager.obj
 0001:000402c0       ?_Insert@?$list@PAVConfigVar@@V?$allocator@PAVConfigVar@@@std@@@std@@QAEXViterator@12@ABQAVConfigVar@@@Z 100412c0 f i Engined:ConfigManager.obj
 0001:00040360       ?_Buynode@?$list@PAVConfigVar@@V?$allocator@PAVConfigVar@@@std@@@std@@IAEPAU_Node@?$_List_nod@PAVConfigVar@@V?$allocator@PAVConfigVar@@@std@@@2@XZ 10041360 f i Engined:ConfigManager.obj
 0001:00040490       ?_Tidy@?$list@PAVConfigVar@@V?$allocator@PAVConfigVar@@@std@@@std@@IAEXXZ 10041490 f i Engined:ConfigManager.obj
 0001:00040510       ??0?$_List_val@PAVConfigVar@@V?$allocator@PAVConfigVar@@@std@@@std@@IAE@V?$allocator@PAVConfigVar@@@1@@Z 10041510 f i Engined:ConfigManager.obj
 0001:00040560       ??0?$allocator@PAVConfigVar@@@std@@QAE@XZ 10041560 f i Engined:ConfigManager.obj
 0001:00040580       ?deallocate@?$allocator@U_Node@?$_List_nod@PAVConfigVar@@V?$allocator@PAVConfigVar@@@std@@@std@@@std@@QAEXPAU_Node@?$_List_nod@PAVConfigVar@@V?$allocator@PAVConfigVar@@@std@@@2@I@Z 10041580 f i Engined:ConfigManager.obj
 0001:000405b0       ?destroy@?$allocator@U_Node@?$_List_nod@PAVConfigVar@@V?$allocator@PAVConfigVar@@@std@@@std@@@std@@QAEXPAU_Node@?$_List_nod@PAVConfigVar@@V?$allocator@PAVConfigVar@@@std@@@2@@Z 100415b0 f i Engined:ConfigManager.obj
 0001:000405e0       ??0iterator@?$list@PAVConfigVar@@V?$allocator@PAVConfigVar@@@std@@@std@@QAE@PAU_Node@?$_List_nod@PAVConfigVar@@V?$allocator@PAVConfigVar@@@std@@@2@@Z 100415e0 f i Engined:ConfigManager.obj
 0001:00040610       ??Eiterator@?$list@PAVConfigVar@@V?$allocator@PAVConfigVar@@@std@@@std@@QAEAAV012@XZ 10041610 f i Engined:ConfigManager.obj
 0001:00040640       ??Dconst_iterator@?$list@PAVConfigVar@@V?$allocator@PAVConfigVar@@@std@@@std@@QBEABQAVConfigVar@@XZ 10041640 f i Engined:ConfigManager.obj
 0001:00040670       ??8const_iterator@?$list@PAVConfigVar@@V?$allocator@PAVConfigVar@@@std@@@std@@QBE_NABV012@@Z 10041670 f i Engined:ConfigManager.obj
 0001:000406a0       ?_Myval@?$list@PAVConfigVar@@V?$allocator@PAVConfigVar@@@std@@@std@@KAAAPAVConfigVar@@PAU_Node@?$_List_nod@PAVConfigVar@@V?$allocator@PAVConfigVar@@@std@@@2@@Z 100416a0 f i Engined:ConfigManager.obj
 0001:000406b0       ?_Buynode@?$list@PAVConfigVar@@V?$allocator@PAVConfigVar@@@std@@@std@@IAEPAU_Node@?$_List_nod@PAVConfigVar@@V?$allocator@PAVConfigVar@@@std@@@2@PAU342@0ABQAVConfigVar@@@Z 100416b0 f i Engined:ConfigManager.obj
 0001:00040790       ?_Incsize@?$list@PAVConfigVar@@V?$allocator@PAVConfigVar@@@std@@@std@@IAEXI@Z 10041790 f i Engined:ConfigManager.obj
 0001:00040840       ??0?$_List_ptr@PAVConfigVar@@V?$allocator@PAVConfigVar@@@std@@@std@@IAE@V?$allocator@PAVConfigVar@@@1@@Z 10041840 f i Engined:ConfigManager.obj
 0001:00040890       ??0?$allocator@PAVConfigVar@@@std@@QAE@ABV01@@Z 10041890 f i Engined:ConfigManager.obj
 0001:000408b0       ?allocate@?$allocator@U_Node@?$_List_nod@PAVConfigVar@@V?$allocator@PAVConfigVar@@@std@@@std@@@std@@QAEPAU_Node@?$_List_nod@PAVConfigVar@@V?$allocator@PAVConfigVar@@@std@@@2@I@Z 100418b0 f i Engined:ConfigManager.obj
 0001:000408e0       ?construct@?$allocator@PAU_Node@?$_List_nod@PAVConfigVar@@V?$allocator@PAVConfigVar@@@std@@@std@@@std@@QAEXPAPAU_Node@?$_List_nod@PAVConfigVar@@V?$allocator@PAVConfigVar@@@std@@@2@ABQAU342@@Z 100418e0 f i Engined:ConfigManager.obj
 0001:00040910       ?destroy@?$allocator@PAU_Node@?$_List_nod@PAVConfigVar@@V?$allocator@PAVConfigVar@@@std@@@std@@@std@@QAEXPAPAU_Node@?$_List_nod@PAVConfigVar@@V?$allocator@PAVConfigVar@@@std@@@2@@Z 10041910 f i Engined:ConfigManager.obj
 0001:00040940       ??0const_iterator@?$list@PAVConfigVar@@V?$allocator@PAVConfigVar@@@std@@@std@@QAE@PAU_Node@?$_List_nod@PAVConfigVar@@V?$allocator@PAVConfigVar@@@std@@@2@@Z 10041940 f i Engined:ConfigManager.obj
 0001:00040960       ??Econst_iterator@?$list@PAVConfigVar@@V?$allocator@PAVConfigVar@@@std@@@std@@QAEAAV012@XZ 10041960 f i Engined:ConfigManager.obj
 0001:000409a0       ?_Mynode@const_iterator@?$list@PAVConfigVar@@V?$allocator@PAVConfigVar@@@std@@@std@@QBEPAU_Node@?$_List_nod@PAVConfigVar@@V?$allocator@PAVConfigVar@@@std@@@3@XZ 100419a0 f i Engined:ConfigManager.obj
 0001:000409c0       ?max_size@?$list@PAVConfigVar@@V?$allocator@PAVConfigVar@@@std@@@std@@QBEIXZ 100419c0 f i Engined:ConfigManager.obj
 0001:000409f0       ??0?$_List_nod@PAVConfigVar@@V?$allocator@PAVConfigVar@@@std@@@std@@IAE@V?$allocator@PAVConfigVar@@@1@@Z 100419f0 f i Engined:ConfigManager.obj
 0001:00040a20       ??0_Node@?$_List_nod@PAVConfigVar@@V?$allocator@PAVConfigVar@@@std@@@std@@QAE@PAU012@0ABQAVConfigVar@@@Z 10041a20 f i Engined:ConfigManager.obj
 0001:00040a60       ?max_size@?$allocator@PAVConfigVar@@@std@@QBEIXZ 10041a60 f i Engined:ConfigManager.obj
 0001:00040ab0       ??$_Destroy@U_Node@?$_List_nod@PAVConfigVar@@V?$allocator@PAVConfigVar@@@std@@@std@@@std@@YAXPAU_Node@?$_List_nod@PAVConfigVar@@V?$allocator@PAVConfigVar@@@std@@@0@@Z 10041ab0 f i Engined:ConfigManager.obj
 0001:00040ac0       ??$?0PAVConfigVar@@@?$allocator@PAU_Node@?$_List_nod@PAVConfigVar@@V?$allocator@PAVConfigVar@@@std@@@std@@@std@@QAE@ABV?$allocator@PAVConfigVar@@@1@@Z 10041ac0 f i Engined:ConfigManager.obj
 0001:00040ae0       ??$_Allocate@U_Node@?$_List_nod@PAVConfigVar@@V?$allocator@PAVConfigVar@@@std@@@std@@@std@@YAPAU_Node@?$_List_nod@PAVConfigVar@@V?$allocator@PAVConfigVar@@@std@@@0@IPAU120@@Z 10041ae0 f i Engined:ConfigManager.obj
 0001:00040b00       ??$_Construct@PAU_Node@?$_List_nod@PAVConfigVar@@V?$allocator@PAVConfigVar@@@std@@@std@@PAU123@@std@@YAXPAPAU_Node@?$_List_nod@PAVConfigVar@@V?$allocator@PAVConfigVar@@@std@@@0@ABQAU120@@Z 10041b00 f i Engined:ConfigManager.obj
 0001:00040b60       ??$_Destroy@PAU_Node@?$_List_nod@PAVConfigVar@@V?$allocator@PAVConfigVar@@@std@@@std@@@std@@YAXPAPAU_Node@?$_List_nod@PAVConfigVar@@V?$allocator@PAVConfigVar@@@std@@@0@@Z 10041b60 f i Engined:ConfigManager.obj
 0001:00040b70       ??$?0PAVConfigVar@@@?$allocator@U_Node@?$_List_nod@PAVConfigVar@@V?$allocator@PAVConfigVar@@@std@@@std@@@std@@QAE@ABV?$allocator@PAVConfigVar@@@1@@Z 10041b70 f i Engined:ConfigManager.obj
 0001:00040b90       ??0Logger@@QAE@XZ          10041b90 f   Engined:Logger.obj
 0001:00040bc0       ??0Logger@@QAE@PBD@Z       10041bc0 f   Engined:Logger.obj
 0001:00040c00       ??1Logger@@QAE@XZ          10041c00 f   Engined:Logger.obj
 0001:00040c30       ?Open@Logger@@QAE_NPBD_N@Z 10041c30 f   Engined:Logger.obj
 0001:00040cb0       ?PrintFile@Logger@@SAXPBD0ZZ 10041cb0 f   Engined:Logger.obj
 0001:00040e40       ?PrintFile@Logger@@SAXPBDPBGZZ 10041e40 f   Engined:Logger.obj
 0001:00040fe0       ?Print@Logger@@QAAXW4LogPrefix@@PBDZZ 10041fe0 f   Engined:Logger.obj
 0001:00041090       ?Print@Logger@@QAAXPBDZZ   10042090 f   Engined:Logger.obj
 0001:00041140       ?DoPrint@Logger@@IAEXW4LogPrefix@@PBD@Z 10042140 f   Engined:Logger.obj
 0001:000412b0       ?Print@Logger@@QAAXW4LogPrefix@@PBGZZ 100422b0 f   Engined:Logger.obj
 0001:00041370       ?Print@Logger@@QAAXPBGZZ   10042370 f   Engined:Logger.obj
 0001:00041430       ?DoPrint@Logger@@IAEXW4LogPrefix@@PBG@Z 10042430 f   Engined:Logger.obj
 0001:000415c0       ?EnableTimestamps@Logger@@QAEX_N@Z 100425c0 f   Engined:Logger.obj
 0001:000415e0       ?Close@Logger@@QAE_NXZ     100425e0 f   Engined:Logger.obj
 0001:00041630       ?SetLogCallback@Logger@@QAEXP6AXPAX@Z@Z 10042630 f   Engined:Logger.obj
 0001:00041650       ?PrintPrefix@Logger@@IAEXW4LogPrefix@@@Z 10042650 f   Engined:Logger.obj
 0001:00041750       ?SafeWrite@@YAXPAX0H@Z     10042750 f   Engined:MemPatch.obj
 0001:000417e0       ?SafeWriteData@@YAXPAX_JH@Z 100427e0 f   Engined:MemPatch.obj
 0001:00041870       ?SafeWriteRelative@@YA_NKPAUHINSTANCE__@@PAXH@Z 10042870 f   Engined:MemPatch.obj
 0001:00041910       ?SafeWriteRelative@@YA_NKPBDPAXH@Z 10042910 f   Engined:MemPatch.obj
 0001:00041950       ?SafeRead@@YAXPAX0H@Z      10042950 f   Engined:MemPatch.obj
 0001:00041a20       ?InstallCallback@@YAXKKW4CallbackType@@HH@Z 10042a20 f   Engined:MemPatch.obj
 0001:00041bd0       ?WritePtr@MemPatcher@@SAXPAUPtrPatchList@@@Z 10042bd0 f   Engined:MemPatch.obj
 0001:00041bf0       ?WritePtr@MemPatcher@@SAXPAUPtrPatchList@@PAUHINSTANCE__@@K@Z 10042bf0 f   Engined:MemPatch.obj
 0001:00041da0       ?RestorePtr@MemPatcher@@SAXPAUPtrPatchList@@@Z 10042da0 f   Engined:MemPatch.obj
 0001:00041e30       ?WriteRaw@MemPatcher@@SAXPAURawPatchList@@PAUHINSTANCE__@@K@Z 10042e30 f   Engined:MemPatch.obj
 0001:00041f30       ?RestoreRaw@MemPatcher@@SAXPAURawPatchList@@@Z 10042f30 f   Engined:MemPatch.obj
 0001:00041fa0       ??0EventListener@@QAE@HPAUIEventListener@@@Z 10042fa0 f   Engined:EventManager.obj
 0001:00041fd0       ??8EventListener@@QAE_NABV0@@Z 10042fd0 f   Engined:EventManager.obj
 0001:00042020       ?Broadcast@EventManager@@SAXHPAX@Z 10043020 f   Engined:EventManager.obj
 0001:00042130       ?RegisterListener@EventManager@@SA_NHPAUIEventListener@@@Z 10043130 f   Engined:EventManager.obj
 0001:00042210       ?UnregisterListener@EventManager@@SA_NHPAUIEventListener@@@Z 10043210 f   Engined:EventManager.obj
 0001:00042310       ?Instance@EventManager@@SAPAV1@XZ 10043310 f   Engined:EventManager.obj
 0001:00042320       ?Initialize@EventManager@@SAXXZ 10043320 f   Engined:EventManager.obj
 0001:000423c0       ?Shutdown@EventManager@@SAXXZ 100433c0 f   Engined:EventManager.obj
 0001:00042420       ?Listener@EventListener@@QBEPAUIEventListener@@XZ 10043420 f i Engined:EventManager.obj
 0001:00042440       ?EventID@EventListener@@QBEHXZ 10043440 f i Engined:EventManager.obj
 0001:00042460       ??0EventManager@@QAE@XZ    10043460 f i Engined:EventManager.obj
 0001:00042490       ??_GEventManager@@QAEPAXI@Z 10043490 f i Engined:EventManager.obj
 0001:000424d0       ??1EventManager@@QAE@XZ    100434d0 f i Engined:EventManager.obj
 0001:00042500       ??0?$vector@VEventListener@@V?$allocator@VEventListener@@@std@@@std@@QAE@XZ 10043500 f i Engined:EventManager.obj
 0001:00042550       ??1?$vector@VEventListener@@V?$allocator@VEventListener@@@std@@@std@@QAE@XZ 10043550 f i Engined:EventManager.obj
 0001:00042580       ?begin@?$vector@VEventListener@@V?$allocator@VEventListener@@@std@@@std@@QAE?AViterator@12@XZ 10043580 f i Engined:EventManager.obj
 0001:000425b0       ?end@?$vector@VEventListener@@V?$allocator@VEventListener@@@std@@@std@@QAE?AViterator@12@XZ 100435b0 f i Engined:EventManager.obj
 0001:000425e0       ?push_back@?$vector@VEventListener@@V?$allocator@VEventListener@@@std@@@std@@QAEXABVEventListener@@@Z 100435e0 f i Engined:EventManager.obj
 0001:00042670       ?erase@?$vector@VEventListener@@V?$allocator@VEventListener@@@std@@@std@@QAE?AViterator@12@V312@@Z 10043670 f i Engined:EventManager.obj
 0001:000426e0       ??Citerator@?$vector@VEventListener@@V?$allocator@VEventListener@@@std@@@std@@QBEPAVEventListener@@XZ 100436e0 f i Engined:EventManager.obj
 0001:00042710       ??Eiterator@?$vector@VEventListener@@V?$allocator@VEventListener@@@std@@@std@@QAE?AV012@H@Z 10043710 f i Engined:EventManager.obj
 0001:00042780       ??9const_iterator@?$vector@VEventListener@@V?$allocator@VEventListener@@@std@@@std@@QBE_NABV012@@Z 10043780 f i Engined:EventManager.obj
 0001:000427c0       ?capacity@?$vector@VEventListener@@V?$allocator@VEventListener@@@std@@@std@@QBEIXZ 100437c0 f i Engined:EventManager.obj
 0001:00042810       ?size@?$vector@VEventListener@@V?$allocator@VEventListener@@@std@@@std@@QBEIXZ 10043810 f i Engined:EventManager.obj
 0001:00042860       ?insert@?$vector@VEventListener@@V?$allocator@VEventListener@@@std@@@std@@QAE?AViterator@12@V312@ABVEventListener@@@Z 10043860 f i Engined:EventManager.obj
 0001:000428f0       ?_Buy@?$vector@VEventListener@@V?$allocator@VEventListener@@@std@@@std@@IAE_NI@Z 100438f0 f i Engined:EventManager.obj
 0001:00042980       ?_Destroy@?$vector@VEventListener@@V?$allocator@VEventListener@@@std@@@std@@IAEXPAVEventListener@@0@Z 10043980 f i Engined:EventManager.obj
 0001:000429c0       ?_Tidy@?$vector@VEventListener@@V?$allocator@VEventListener@@@std@@@std@@IAEXXZ 100439c0 f i Engined:EventManager.obj
 0001:00042a40       ?_Ufill@?$vector@VEventListener@@V?$allocator@VEventListener@@@std@@@std@@IAEPAVEventListener@@PAV3@IABV3@@Z 10043a40 f i Engined:EventManager.obj
 0001:00042a80       ??0?$_Vector_val@VEventListener@@V?$allocator@VEventListener@@@std@@@std@@IAE@V?$allocator@VEventListener@@@1@@Z 10043a80 f i Engined:EventManager.obj
 0001:00042ab0       ??0?$allocator@VEventListener@@@std@@QAE@XZ 10043ab0 f i Engined:EventManager.obj
 0001:00042ad0       ??0iterator@?$vector@VEventListener@@V?$allocator@VEventListener@@@std@@@std@@QAE@PAVEventListener@@@Z 10043ad0 f i Engined:EventManager.obj
 0001:00042b00       ??Diterator@?$vector@VEventListener@@V?$allocator@VEventListener@@@std@@@std@@QBEAAVEventListener@@XZ 10043b00 f i Engined:EventManager.obj
 0001:00042b30       ??Eiterator@?$vector@VEventListener@@V?$allocator@VEventListener@@@std@@@std@@QAEAAV012@XZ 10043b30 f i Engined:EventManager.obj
 0001:00042b60       ??8const_iterator@?$vector@VEventListener@@V?$allocator@VEventListener@@@std@@@std@@QBE_NABV012@@Z 10043b60 f i Engined:EventManager.obj
 0001:00042b90       ?max_size@?$vector@VEventListener@@V?$allocator@VEventListener@@@std@@@std@@QBEIXZ 10043b90 f i Engined:EventManager.obj
 0001:00042bc0       ?_Insert_n@?$vector@VEventListener@@V?$allocator@VEventListener@@@std@@@std@@IAEXViterator@12@IABVEventListener@@@Z 10043bc0 f i Engined:EventManager.obj
 0001:00042f30       ?_Xlen@?$vector@VEventListener@@V?$allocator@VEventListener@@@std@@@std@@IBEXXZ 10043f30 f i Engined:EventManager.obj
 0001:00042fc0       ??0?$allocator@VEventListener@@@std@@QAE@ABV01@@Z 10043fc0 f i Engined:EventManager.obj
 0001:00042fe0       ?deallocate@?$allocator@VEventListener@@@std@@QAEXPAVEventListener@@I@Z 10043fe0 f i Engined:EventManager.obj
 0001:00043010       ?allocate@?$allocator@VEventListener@@@std@@QAEPAVEventListener@@I@Z 10044010 f i Engined:EventManager.obj
 0001:00043040       ??Hiterator@?$vector@VEventListener@@V?$allocator@VEventListener@@@std@@@std@@QBE?AV012@H@Z 10044040 f i Engined:EventManager.obj
 0001:000430c0       ??Giterator@?$vector@VEventListener@@V?$allocator@VEventListener@@@std@@@std@@QBEHABVconst_iterator@12@@Z 100440c0 f i Engined:EventManager.obj
 0001:00043100       ??0const_iterator@?$vector@VEventListener@@V?$allocator@VEventListener@@@std@@@std@@QAE@PAVEventListener@@@Z 10044100 f i Engined:EventManager.obj
 0001:00043120       ??Dconst_iterator@?$vector@VEventListener@@V?$allocator@VEventListener@@@std@@@std@@QBEABVEventListener@@XZ 10044120 f i Engined:EventManager.obj
 0001:00043140       ?max_size@?$allocator@VEventListener@@@std@@QBEIXZ 10044140 f i Engined:EventManager.obj
 0001:00043190       ??Yiterator@?$vector@VEventListener@@V?$allocator@VEventListener@@@std@@@std@@QAEAAV012@H@Z 10044190 f i Engined:EventManager.obj
 0001:000431c0       ??Gconst_iterator@?$vector@VEventListener@@V?$allocator@VEventListener@@@std@@@std@@QBEHABV012@@Z 100441c0 f i Engined:EventManager.obj
 0001:000431f0       ??$copy@PAVEventListener@@PAV1@@std@@YAPAVEventListener@@PAV1@00@Z 100441f0 f i Engined:EventManager.obj
 0001:00043240       ??$_Destroy_range@VEventListener@@V?$allocator@VEventListener@@@std@@@std@@YAXPAVEventListener@@0AAV?$allocator@VEventListener@@@0@@Z 10044240 f i Engined:EventManager.obj
 0001:00043290       ??$_Uninitialized_fill_n@PAVEventListener@@IV1@V?$allocator@VEventListener@@@std@@@std@@YAXPAVEventListener@@IABV1@AAV?$allocator@VEventListener@@@0@@Z 10044290 f i Engined:EventManager.obj
 0001:000432e0       ??$_Ucopy@PAVEventListener@@@?$vector@VEventListener@@V?$allocator@VEventListener@@@std@@@std@@IAEPAVEventListener@@PAV2@00@Z 100442e0 f i Engined:EventManager.obj
 0001:00043320       ??$fill@PAVEventListener@@V1@@std@@YAXPAVEventListener@@0ABV1@@Z 10044320 f i Engined:EventManager.obj
 0001:00043350       ??$copy_backward@PAVEventListener@@PAV1@@std@@YAPAVEventListener@@PAV1@00@Z 10044350 f i Engined:EventManager.obj
 0001:000433a0       ??$_Allocate@VEventListener@@@std@@YAPAVEventListener@@IPAV1@@Z 100443a0 f i Engined:EventManager.obj
 0001:000433c0       ??$_Ptr_cat@PAVEventListener@@PAV1@@std@@YA?AU_Nonscalar_ptr_iterator_tag@0@AAPAVEventListener@@0@Z 100443c0 f i Engined:EventManager.obj
 0001:00043410       ??$_Copy_opt@PAVEventListener@@PAV1@@std@@YAPAVEventListener@@PAV1@00U_Nonscalar_ptr_iterator_tag@0@@Z 10044410 f i Engined:EventManager.obj
 0001:00043450       ??$_Destroy_range@VEventListener@@V?$allocator@VEventListener@@@std@@@std@@YAXPAVEventListener@@0AAV?$allocator@VEventListener@@@0@U_Nonscalar_ptr_iterator_tag@0@@Z 10044450 f i Engined:EventManager.obj
 0001:00043480       ??$_Uninit_fill_n@PAVEventListener@@IV1@V?$allocator@VEventListener@@@std@@@std@@YAXPAVEventListener@@IABV1@AAV?$allocator@VEventListener@@@0@U_Nonscalar_ptr_iterator_tag@0@@Z 10044480 f i Engined:EventManager.obj
 0001:00043530       ??$_Uninitialized_copy@PAVEventListener@@PAV1@V?$allocator@VEventListener@@@std@@@std@@YAPAVEventListener@@PAV1@00AAV?$allocator@VEventListener@@@0@@Z 10044530 f i Engined:EventManager.obj
 0001:00043580       ??$_Copy_backward_opt@PAVEventListener@@PAV1@@std@@YAPAVEventListener@@PAV1@00U_Nonscalar_ptr_iterator_tag@0@@Z 10044580 f i Engined:EventManager.obj
 0001:000435c0       ?construct@?$allocator@VEventListener@@@std@@QAEXPAVEventListener@@ABV3@@Z 100445c0 f i Engined:EventManager.obj
 0001:000435f0       ?destroy@?$allocator@VEventListener@@@std@@QAEXPAVEventListener@@@Z 100445f0 f i Engined:EventManager.obj
 0001:00043620       ??$_Uninit_copy@PAVEventListener@@PAV1@V?$allocator@VEventListener@@@std@@@std@@YAPAVEventListener@@PAV1@00AAV?$allocator@VEventListener@@@0@U_Nonscalar_ptr_iterator_tag@0@@Z 10044620 f i Engined:EventManager.obj
 0001:000436e0       ??$_Construct@VEventListener@@V1@@std@@YAXPAVEventListener@@ABV1@@Z 100446e0 f i Engined:EventManager.obj
 0001:00043740       ??$_Destroy@VEventListener@@@std@@YAXPAVEventListener@@@Z 10044740 f i Engined:EventManager.obj
 0001:00043750       ?atobool@@YA_NPBD@Z        10044750 f   Engined:Utilities.obj
 0001:000437c0       ?GetParam@@YA?AV?$basic_string@DU?$char_traits@D@std@@V?$allocator@D@2@@std@@V12@DI@Z 100447c0 f   Engined:Utilities.obj
 0001:000439c0       ?StrToEnd@@YA?AV?$basic_string@DU?$char_traits@D@std@@V?$allocator@D@2@@std@@ABV12@I@Z 100449c0 f   Engined:Utilities.obj
 0001:00043b00       ?StrToEnd@@YA?AV?$basic_string@GU?$char_traits@G@std@@V?$allocator@G@2@@std@@ABV12@I@Z 10044b00 f   Engined:Utilities.obj
 0001:00043c40       ?AnsiToWide@@YAXPAGPBDH@Z  10044c40 f   Engined:Utilities.obj
 0001:00043cb0       ?WideToAnsi@@YAXPADPBGH@Z  10044cb0 f   Engined:Utilities.obj
 0001:00043d20       ?StringEnd@@YAPBDPADH@Z    10044d20 f   Engined:Utilities.obj
 0001:00043dc0       ?safe_strcpy@@YAXPADPBDH@Z 10044dc0 f   Engined:Utilities.obj
 0001:00043e00       ?safe_snprintf@@YAXPADHPBDZZ 10044e00 f   Engined:Utilities.obj
 0001:00043e60       ?MessageBoxF@Utils@@YAXPAUHWND__@@PBD1ZZ 10044e60 f   Engined:Utilities.obj
 0001:00043f30       ?GetLibVersion@Utils@@YA_NPBDAAH111@Z 10044f30 f   Engined:Utilities.obj
 0001:000440b0       ?FileExists@Utils@@YA_NPBD@Z 100450b0 f   Engined:Utilities.obj
 0001:00044110       ??0NString@@QAE@XZ         10045110 f   Engined:NString.obj
 0001:000441a0       ??0NString@@QAE@H@Z        100451a0 f   Engined:NString.obj
 0001:00044200       ??0NString@@QAE@ABV0@@Z    10045200 f   Engined:NString.obj
 0001:00044250       ??0NString@@QAE@PBD@Z      10045250 f   Engined:NString.obj
 0001:000442b0       ??0NString@@QAE@PBG@Z      100452b0 f   Engined:NString.obj
 0001:000443a0       ??1NString@@QAE@XZ         100453a0 f   Engined:NString.obj
 0001:000443d0       ??4NString@@QAEABV0@PBD@Z  100453d0 f   Engined:NString.obj
 0001:00044420       ??4NString@@QAEABV0@ABV0@@Z 10045420 f   Engined:NString.obj
 0001:00044470       ??ANString@@QAEAADH@Z      10045470 f   Engined:NString.obj
 0001:00044490       ??ANString@@QBEAADH@Z      10045490 f   Engined:NString.obj
 0001:000444b0       ??8NString@@QAE_NABV0@@Z   100454b0 f   Engined:NString.obj
 0001:000444e0       ?Compare@NString@@QAE_NABV1@@Z 100454e0 f   Engined:NString.obj
 0001:00044530       ?CompareCase@NString@@QAE_NABV1@@Z 10045530 f   Engined:NString.obj
 0001:00044570       ?Assign@NString@@QAEXHPBD@Z 10045570 f   Engined:NString.obj
 0001:000445b0       ?Append@NString@@QAEXPBD@Z 100455b0 f   Engined:NString.obj
 0001:00044670       ?Assign@NString@@QAEXPBD@Z 10045670 f   Engined:NString.obj
 0001:000446f0       ?Allocate@NString@@IAEXH@Z 100456f0 f   Engined:NString.obj
 0001:000447c0       ?FreeBuffer@NString@@IAEXXZ 100457c0 f   Engined:NString.obj
 0001:00044800       ?Empty@NString@@QBE_NXZ    10045800 f   Engined:NString.obj
 0001:00044830       ?Length@NString@@QBEHXZ    10045830 f   Engined:NString.obj
 0001:00044850       ?PreAllocate@NString@@QAEXH@Z 10045850 f   Engined:NString.obj
 0001:00044890       ?Format@NString@@QAAXPBDZZ 10045890 f   Engined:NString.obj
 0001:000449f0       ?Erase@NString@@QAEXHH@Z   100459f0 f   Engined:NString.obj
 0001:00044a90       ?CopyString@@YAHPADPBD@Z   10045a90 f i Engined:NString.obj
 0001:00044b00       ??0CMarshalBuffer@@QAE@XZ  10045b00 f   Engined:MarshalBuffer.obj
 0001:00044b40       ?CopyByte@CMarshalBuffer@@QAEXE@Z 10045b40 f   Engined:MarshalBuffer.obj
 0001:00044b70       ?CopyWord@CMarshalBuffer@@QAEXG@Z 10045b70 f   Engined:MarshalBuffer.obj
 0001:00044ba0       ?CopyInt@CMarshalBuffer@@QAEXH@Z 10045ba0 f   Engined:MarshalBuffer.obj
 0001:00044bd0       ?CopyVoid@CMarshalBuffer@@QAEXPBXH@Z 10045bd0 f   Engined:MarshalBuffer.obj
 0001:00044c30       ?CopyString@CMarshalBuffer@@QAEXPBDH@Z 10045c30 f   Engined:MarshalBuffer.obj
 0001:00044ca0       ?GetVoid@CMarshalBuffer@@QAEXPAXH@Z 10045ca0 f   Engined:MarshalBuffer.obj
 0001:00044cf0       ?GetInt@CMarshalBuffer@@QAEHXZ 10045cf0 f   Engined:MarshalBuffer.obj
 0001:00044d50       ?GetByte@CMarshalBuffer@@QAEEXZ 10045d50 f   Engined:MarshalBuffer.obj
 0001:00044db0       ?GetWord@CMarshalBuffer@@QAEGXZ 10045db0 f   Engined:MarshalBuffer.obj
 0001:00044e20       ?GetFloat@CMarshalBuffer@@QAEMXZ 10045e20 f   Engined:MarshalBuffer.obj
 0001:00044e80       ?GetStartBuffer@CMarshalBuffer@@QAEPAEXZ 10045e80 f   Engined:MarshalBuffer.obj
 0001:00044ea0       ?GetString@CMarshalBuffer@@QAEXPADH@Z 10045ea0 f   Engined:MarshalBuffer.obj
 0001:00044f10       ?GetBytesWritten@CMarshalBuffer@@QAEHXZ 10045f10 f   Engined:MarshalBuffer.obj
 0001:00044f30       ?SetBuffer@CMarshalBuffer@@QAEXPAEH@Z 10045f30 f   Engined:MarshalBuffer.obj
 0001:00044f60       ?UseDefaultBuffer@CMarshalBuffer@@QAEXXZ 10045f60 f   Engined:MarshalBuffer.obj
 0001:00044f90       ?SkipBytes@CMarshalBuffer@@QAEXH@Z 10045f90 f   Engined:MarshalBuffer.obj
 0001:00044fc0       ?ForceForegroundWindow@@YAXPAUHWND__@@@Z 10045fc0 f   Engined:WinClasses.obj
 0001:00045070       ?Init@CEControl@EngCtrls@@UAE_NPAUHWND__@@H@Z 10046070 f   Engined:WinClasses.obj
 0001:000450d0       ?AddString@CEListBox@EngCtrls@@QAEHPBD@Z 100460d0 f   Engined:WinClasses.obj
 0001:00045170       ?DeleteColumn@CEListView@EngCtrls@@QAEHH@Z 10046170 f   Engined:WinClasses.obj
 0001:000451c0       ?GetItemData@CEListView@EngCtrls@@QAEJH@Z 100461c0 f   Engined:WinClasses.obj
 0001:00045270       ?InsertColumn@CEListView@EngCtrls@@QAEXHPAD@Z 10046270 f   Engined:WinClasses.obj
 0001:00045300       ?InsertColumn@CEListView@EngCtrls@@QAEXHPADH@Z 10046300 f   Engined:WinClasses.obj
 0001:00045390       ?InsertItem@CEListView@EngCtrls@@QAEHHPADJ@Z 10046390 f   Engined:WinClasses.obj
 0001:00045450       ?SetColumnWidth@CEListView@EngCtrls@@QAEXHH@Z 10046450 f   Engined:WinClasses.obj
 0001:000454a0       ?SetColumnAlignment@CEListView@EngCtrls@@QAEHHH@Z 100464a0 f   Engined:WinClasses.obj
 0001:00045540       ?SetItemText@CEListView@EngCtrls@@QAEXHHPAD@Z 10046540 f   Engined:WinClasses.obj
 0001:000455d0       ?CaretToEnd@CEEditBox@EngCtrls@@QAEXXZ 100465d0 f   Engined:WinClasses.obj
 0001:00045610       ?AppendString@CEEditBox@EngCtrls@@UAEXPBD@Z 10046610 f   Engined:WinClasses.obj
 0001:00045710       ?SetMaxLines@CEEditBox@EngCtrls@@QAEXH@Z 10046710 f   Engined:WinClasses.obj
 0001:00045730       ?GetCheck@CEButton@EngCtrls@@QAEJXZ 10046730 f   Engined:WinClasses.obj
 0001:00045770       ?IsChecked@CEButton@EngCtrls@@QAE_NXZ 10046770 f   Engined:WinClasses.obj
 0001:000457c0       ?SetCheck@CEButton@EngCtrls@@QAEX_N@Z 100467c0 f   Engined:WinClasses.obj
 0001:00045810       ?AddString@CEComboBox@EngCtrls@@QAEHPBD@Z 10046810 f   Engined:WinClasses.obj
 0001:00045860       ?AddString@CEComboBox@EngCtrls@@QAEHPBDJ@Z 10046860 f   Engined:WinClasses.obj
 0001:000458e0       ?GetText@CEComboBox@EngCtrls@@QAEHPADH@Z 100468e0 f   Engined:WinClasses.obj
 0001:00045920       ?GetCurSel@CEComboBox@EngCtrls@@QAEHXZ 10046920 f   Engined:WinClasses.obj
 0001:00045960       ?SetCurSel@CEComboBox@EngCtrls@@QAEHH@Z 10046960 f   Engined:WinClasses.obj
 0001:000459b0       ?GetItemData@CEComboBox@EngCtrls@@QAEJH@Z 100469b0 f   Engined:WinClasses.obj
 0001:00045a00       ?SetItemData@CEComboBox@EngCtrls@@QAEHHJ@Z 10046a00 f   Engined:WinClasses.obj
 0001:00045a50       ?GetLineCount@CEListBox@EngCtrls@@QAEHXZ 10046a50 f i Engined:WinClasses.obj
 0001:00045a90       ?SetSel@CEEditBox@EngCtrls@@QAEXHH@Z 10046a90 f i Engined:WinClasses.obj
 0001:00045ae0       ?GetLineCount@CEEditBox@EngCtrls@@QBEHXZ 10046ae0 f i Engined:WinClasses.obj
 0001:00045b20       ?LineIndex@CEEditBox@EngCtrls@@QBEHH@Z 10046b20 f i Engined:WinClasses.obj
 0001:00045b70       ?ReplaceSel@CEEditBox@EngCtrls@@QAEXPBD@Z 10046b70 f i Engined:WinClasses.obj
 0001:00045bc0       ?SetRedraw@CEEditBox@EngCtrls@@QAEX_N@Z 10046bc0 f i Engined:WinClasses.obj
 0001:00045c00       ?LastErrorToString@@YA?AV?$basic_string@DU?$char_traits@D@std@@V?$allocator@D@2@@std@@XZ 10046c00 f   Engined:EngError.obj
 0001:00045ce0       ?ErrorExit@@YAXPBD@Z       10046ce0 f   Engined:EngError.obj
 0001:00045d20       ?ErrorMessageBox@@YAXPBD@Z 10046d20 f   Engined:EngError.obj
 0001:00045e50       ??0IniFile@@QAE@PBD@Z      10046e50 f   Engined:IniFile.obj
 0001:00045eb0       ??0IniFile@@QAE@XZ         10046eb0 f   Engined:IniFile.obj
 0001:00045ee0       ?GetFloat@IniFile@@QAEMPBD0M_N@Z 10046ee0 f   Engined:IniFile.obj
 0001:00045f30       ?GetDouble@IniFile@@QAENPBD0N_N@Z 10046f30 f   Engined:IniFile.obj
 0001:00046000       ?GetBool@IniFile@@QAE_NPBD0_N1@Z 10047000 f   Engined:IniFile.obj
 0001:00046100       ?GetInt@IniFile@@QAEHPBD0H_N@Z 10047100 f   Engined:IniFile.obj
 0001:000461f0       ?GetString@IniFile@@QAEPBDPBD0H0_N@Z 100471f0 f   Engined:IniFile.obj
 0001:000462d0       ?SetFile@IniFile@@QAE_NPBD@Z 100472d0 f   Engined:IniFile.obj
 0001:00046310       ?WriteString@IniFile@@QAE_NPBD00@Z 10047310 f   Engined:IniFile.obj
 0001:00046370       ?WriteInt@IniFile@@QAE_NPBD0H@Z 10047370 f   Engined:IniFile.obj
 0001:00046420       ?Init@Timing@@YAXXZ        10047420 f   Engined:Timing.obj
 0001:00046450       ?GetTimeMS@Timing@@YA_JXZ  10047450 f   Engined:Timing.obj
 0001:000464f0       ?Seconds@Timing@@YANAA_J@Z 100474f0 f   Engined:Timing.obj
 0001:00046540       ??0Delta@Timing@@QAE@XZ    10047540 f   Engined:Timing.obj
 0001:00046560       ?GetCurrTime@Delta@Timing@@IAEKXZ 10047560 f   Engined:Timing.obj
 0001:000465a0       ?Reset@Delta@Timing@@QAEXXZ 100475a0 f   Engined:Timing.obj
 0001:00046610       ?Calculate@Delta@Timing@@QAEX_N@Z 10047610 f   Engined:Timing.obj
 0001:000467f0       ?Get@Delta@Timing@@QAEMXZ  100477f0 f   Engined:Timing.obj
 0001:00046810       ?GetElapsedTime@Delta@Timing@@QAEMXZ 10047810 f   Engined:Timing.obj
 0001:00046830       ?GetNumFrames@Delta@Timing@@QAEHXZ 10047830 f   Engined:Timing.obj
 0001:00046850       ?CreateID@Crc32@@YAKPBD@Z  10047850 f   Engined:Crc32.obj
 0001:00046960       ?ScanData@Crc32@@YAKPBXH@Z 10047960 f   Engined:Crc32.obj
 0001:00046980       ?ScanFile@Crc32@@YAKPBD@Z  10047980 f   Engined:Crc32.obj
 0001:00046b40       ?ScanFilePart@Crc32@@YAKPBDKK@Z 10047b40 f   Engined:Crc32.obj
 0001:00046d60       ?GenerateHash@Crc32@@YAKPBXI@Z 10047d60 f i Engined:Crc32.obj
 0001:00046dd0       ?RecordExceptionInfo@@YGJPAU_EXCEPTION_POINTERS@@@Z 10047dd0 f   Engined:ExceptionHandler.obj
 0001:00047db0       _VerQueryValueA@16         10048db0 f   Engined:VERSION.dll
 0001:00047db6       _GetFileVersionInfoA@16    10048db6 f   Engined:VERSION.dll
 0001:00047dbc       _GetFileVersionInfoSizeA@8 10048dbc f   Engined:VERSION.dll
 0001:00047dd0       ?GS_CreateDP8Client@@YAPAUIGSClient@@XZ 10048dd0 f   GSClient_d:GSClient.obj
 0001:00047e80       ?GS_DestroyClient@@YAXAAPAUIGSClient@@@Z 10048e80 f   GSClient_d:GSClient.obj
 0001:00047f10       ??0GSClient_DP8@@QAE@XZ    10048f10 f   GSClient_d:GSClient_DP8.obj
 0001:00048330       ??1IGSClient@@UAE@XZ       10049330 f i GSClient_d:GSClient_DP8.obj
 0001:00048370       ??_EIGSClient@@UAEPAXI@Z   10049370 f i GSClient_d:GSClient_DP8.obj
 0001:00048370       ??_GIGSClient@@UAEPAXI@Z   10049370 f i GSClient_d:GSClient_DP8.obj
 0001:000483d0       ??_EGSClient_DP8@@UAEPAXI@Z 100493d0 f i GSClient_d:GSClient_DP8.obj
 0001:000483d0       ??_GGSClient_DP8@@UAEPAXI@Z 100493d0 f i GSClient_d:GSClient_DP8.obj
 0001:00048430       ??0IGSClient@@QAE@XZ       10049430 f i GSClient_d:GSClient_DP8.obj
 0001:00048470       ??0NetMessageQueue@@QAE@XZ 10049470 f i GSClient_d:GSClient_DP8.obj
 0001:000484c0       ??1NetMessageQueue@@QAE@XZ 100494c0 f i GSClient_d:GSClient_DP8.obj
 0001:00048500       ??1?$queue@PAUNetMessage@@V?$deque@PAUNetMessage@@V?$allocator@PAUNetMessage@@@std@@@std@@@std@@QAE@XZ 10049500 f i GSClient_d:GSClient_DP8.obj
 0001:00048540       ??1GSClient_DP8@@UAE@XZ    10049540 f   GSClient_d:GSClient_DP8.obj
 0001:00048600       ?CancelEnumeration@GSClient_DP8@@IAEXK@Z 10049600 f   GSClient_d:GSClient_DP8.obj
 0001:00048670       ?Close@GSClient_DP8@@IAEXXZ 10049670 f   GSClient_d:GSClient_DP8.obj
 0001:00048780       ?Connect@GSClient_DP8@@UAE_NPBDKK@Z 10049780 f   GSClient_d:GSClient_DP8.obj
 0001:000489f0       ?PingServer@GSClient_DP8@@UAE_NPBDGH@Z 100499f0 f   GSClient_d:GSClient_DP8.obj
 0001:00048de0       ?Update@GSClient_DP8@@UAEXXZ 10049de0 f   GSClient_d:GSClient_DP8.obj
 0001:00048f00       ?Empty@NetMessageQueue@@QAE_NXZ 10049f00 f i GSClient_d:GSClient_DP8.obj
 0001:00048f40       ?GetNext@NetMessageQueue@@QAEPAUNetMessage@@XZ 10049f40 f i GSClient_d:GSClient_DP8.obj
 0001:00048f90       ?OnConnectResponse@GSClient_DP8@@IAEXPAU_DPNMSG_ENUM_HOSTS_RESPONSE@@@Z 10049f90 f   GSClient_d:GSClient_DP8.obj
 0001:000490c0       ?StaticMessageHandler@GSClient_DP8@@SGJPAXK0@Z 1004a0c0 f   GSClient_d:GSClient_DP8.obj
 0001:00049110       ?MessageHandler@GSClient_DP8@@QAEJPAXK0@Z 1004a110 f   GSClient_d:GSClient_DP8.obj
 0001:00049550       ?CopyData@NetMessage@@QAEXPAEK@Z 1004a550 f i GSClient_d:GSClient_DP8.obj
 0001:000495d0       ?Add@NetMessageQueue@@QAEXPAUNetMessage@@@Z 1004a5d0 f i GSClient_d:GSClient_DP8.obj
 0001:00049620       ?GetState@GSClient_DP8@@UAE?AW4ConnState@IGSClient@@XZ 1004a620 f   GSClient_d:GSClient_DP8.obj
 0001:00049650       ?SetState@GSClient_DP8@@UAEXW4ConnState@IGSClient@@@Z 1004a650 f   GSClient_d:GSClient_DP8.obj
 0001:000496c0       ?Send@GSClient_DP8@@UAE_NPAXK_N@Z 1004a6c0 f   GSClient_d:GSClient_DP8.obj
 0001:000497d0       ?SendShutdownNotification@GSClient_DP8@@UAEXXZ 1004a7d0 f   GSClient_d:GSClient_DP8.obj
 0001:00049860       ??0Msg_ServerClosed@@QAE@XZ 1004a860 f i GSClient_d:GSClient_DP8.obj
 0001:000498a0       ?SendQuitting@GSClient_DP8@@UAEXW4ExitReason@IGSClient@@@Z 1004a8a0 f   GSClient_d:GSClient_DP8.obj
 0001:00049930       ??0Msg_ClientExit@@QAE@XZ  1004a930 f i GSClient_d:GSClient_DP8.obj
 0001:00049970       ?GetBrowser@GSClient_DP8@@UAEPAUIGSBrowser@@XZ 1004a970 f   GSClient_d:GSClient_DP8.obj
 0001:000499a0       ?SetBrowser@GSClient_DP8@@UAEXPAUIGSBrowser@@@Z 1004a9a0 f   GSClient_d:GSClient_DP8.obj
 0001:000499e0       ?Init@GSClient_DP8@@UAE_NABUInitInfo@IGSClient@@@Z 1004a9e0 f   GSClient_d:GSClient_DP8.obj
 0001:00049ac0       ??0?$queue@PAUNetMessage@@V?$deque@PAUNetMessage@@V?$allocator@PAUNetMessage@@@std@@@std@@@std@@QAE@XZ 1004aac0 f i GSClient_d:GSClient_DP8.obj
 0001:00049b10       ?empty@?$queue@PAUNetMessage@@V?$deque@PAUNetMessage@@V?$allocator@PAUNetMessage@@@std@@@std@@@std@@QBE_NXZ 1004ab10 f i GSClient_d:GSClient_DP8.obj
 0001:00049b50       ?front@?$queue@PAUNetMessage@@V?$deque@PAUNetMessage@@V?$allocator@PAUNetMessage@@@std@@@std@@@std@@QAEAAPAUNetMessage@@XZ 1004ab50 f i GSClient_d:GSClient_DP8.obj
 0001:00049b90       ?push@?$queue@PAUNetMessage@@V?$deque@PAUNetMessage@@V?$allocator@PAUNetMessage@@@std@@@std@@@std@@QAEXABQAUNetMessage@@@Z 1004ab90 f i GSClient_d:GSClient_DP8.obj
 0001:00049be0       ?pop@?$queue@PAUNetMessage@@V?$deque@PAUNetMessage@@V?$allocator@PAUNetMessage@@@std@@@std@@@std@@QAEXXZ 1004abe0 f i GSClient_d:GSClient_DP8.obj
 0001:00049c20       ??1?$deque@PAUNetMessage@@V?$allocator@PAUNetMessage@@@std@@@std@@QAE@XZ 1004ac20 f i GSClient_d:GSClient_DP8.obj
 0001:00049c60       ??0?$deque@PAUNetMessage@@V?$allocator@PAUNetMessage@@@std@@@std@@QAE@XZ 1004ac60 f i GSClient_d:GSClient_DP8.obj
 0001:00049ce0       ?empty@?$deque@PAUNetMessage@@V?$allocator@PAUNetMessage@@@std@@@std@@QBE_NXZ 1004ace0 f i GSClient_d:GSClient_DP8.obj
 0001:00049d20       ?front@?$deque@PAUNetMessage@@V?$allocator@PAUNetMessage@@@std@@@std@@QAEAAPAUNetMessage@@XZ 1004ad20 f i GSClient_d:GSClient_DP8.obj
 0001:00049d70       ?pop_front@?$deque@PAUNetMessage@@V?$allocator@PAUNetMessage@@@std@@@std@@QAEXXZ 1004ad70 f i GSClient_d:GSClient_DP8.obj
 0001:00049e40       ?push_back@?$deque@PAUNetMessage@@V?$allocator@PAUNetMessage@@@std@@@std@@QAEXABQAUNetMessage@@@Z 1004ae40 f i GSClient_d:GSClient_DP8.obj
 0001:00049f50       ?_Tidy@?$deque@PAUNetMessage@@V?$allocator@PAUNetMessage@@@std@@@std@@IAEXXZ 1004af50 f i GSClient_d:GSClient_DP8.obj
 0001:0004a030       ?begin@?$deque@PAUNetMessage@@V?$allocator@PAUNetMessage@@@std@@@std@@QAE?AViterator@12@XZ 1004b030 f i GSClient_d:GSClient_DP8.obj
 0001:0004a080       ?pop_back@?$deque@PAUNetMessage@@V?$allocator@PAUNetMessage@@@std@@@std@@QAEXXZ 1004b080 f i GSClient_d:GSClient_DP8.obj
 0001:0004a150       ?_Growmap@?$deque@PAUNetMessage@@V?$allocator@PAUNetMessage@@@std@@@std@@IAEXI@Z 1004b150 f i GSClient_d:GSClient_DP8.obj
 0001:0004a3a0       ??0?$_Deque_val@PAUNetMessage@@V?$allocator@PAUNetMessage@@@std@@@std@@IAE@V?$allocator@PAUNetMessage@@@1@@Z 1004b3a0 f i GSClient_d:GSClient_DP8.obj
 0001:0004a400       ??0?$allocator@PAUNetMessage@@@std@@QAE@XZ 1004b400 f i GSClient_d:GSClient_DP8.obj
 0001:0004a430       ?deallocate@?$allocator@PAUNetMessage@@@std@@QAEXPAPAUNetMessage@@I@Z 1004b430 f i GSClient_d:GSClient_DP8.obj
 0001:0004a480       ?allocate@?$allocator@PAUNetMessage@@@std@@QAEPAPAUNetMessage@@I@Z 1004b480 f i GSClient_d:GSClient_DP8.obj
 0001:0004a4d0       ?construct@?$allocator@PAUNetMessage@@@std@@QAEXPAPAUNetMessage@@ABQAU3@@Z 1004b4d0 f i GSClient_d:GSClient_DP8.obj
 0001:0004a520       ?destroy@?$allocator@PAUNetMessage@@@std@@QAEXPAPAUNetMessage@@@Z 1004b520 f i GSClient_d:GSClient_DP8.obj
 0001:0004a570       ?deallocate@?$allocator@PAPAUNetMessage@@@std@@QAEXPAPAPAUNetMessage@@I@Z 1004b570 f i GSClient_d:GSClient_DP8.obj
 0001:0004a5c0       ?destroy@?$allocator@PAPAUNetMessage@@@std@@QAEXPAPAPAUNetMessage@@@Z 1004b5c0 f i GSClient_d:GSClient_DP8.obj
 0001:0004a610       ??Diterator@?$deque@PAUNetMessage@@V?$allocator@PAUNetMessage@@@std@@@std@@QBEAAPAUNetMessage@@XZ 1004b610 f i GSClient_d:GSClient_DP8.obj
 0001:0004a650       ?max_size@?$deque@PAUNetMessage@@V?$allocator@PAUNetMessage@@@std@@@std@@QBEIXZ 1004b650 f i GSClient_d:GSClient_DP8.obj
 0001:0004a6a0       ?_Xlen@?$deque@PAUNetMessage@@V?$allocator@PAUNetMessage@@@std@@@std@@IBEXXZ 1004b6a0 f i GSClient_d:GSClient_DP8.obj
 0001:0004a740       ??0?$_Deque_map@PAUNetMessage@@V?$allocator@PAUNetMessage@@@std@@@std@@IAE@V?$allocator@PAUNetMessage@@@1@@Z 1004b740 f i GSClient_d:GSClient_DP8.obj
 0001:0004a790       ??0?$allocator@PAUNetMessage@@@std@@QAE@ABV01@@Z 1004b790 f i GSClient_d:GSClient_DP8.obj
 0001:0004a7c0       ?allocate@?$allocator@PAPAUNetMessage@@@std@@QAEPAPAPAUNetMessage@@I@Z 1004b7c0 f i GSClient_d:GSClient_DP8.obj
 0001:0004a810       ??0iterator@?$deque@PAUNetMessage@@V?$allocator@PAUNetMessage@@@std@@@std@@QAE@IPBV12@@Z 1004b810 f i GSClient_d:GSClient_DP8.obj
 0001:0004a860       ??Dconst_iterator@?$deque@PAUNetMessage@@V?$allocator@PAUNetMessage@@@std@@@std@@QBEABQAUNetMessage@@XZ 1004b860 f i GSClient_d:GSClient_DP8.obj
 0001:0004a8e0       ?max_size@?$allocator@PAUNetMessage@@@std@@QBEIXZ 1004b8e0 f i GSClient_d:GSClient_DP8.obj
 0001:0004a940       ??0const_iterator@?$deque@PAUNetMessage@@V?$allocator@PAUNetMessage@@@std@@@std@@QAE@IPBV12@@Z 1004b940 f i GSClient_d:GSClient_DP8.obj
 0001:0004a980       ??$_Uninitialized_copy@PAPAPAUNetMessage@@PAPAPAU1@V?$allocator@PAPAUNetMessage@@@std@@@std@@YAPAPAPAUNetMessage@@PAPAPAU1@00AAV?$allocator@PAPAUNetMessage@@@0@@Z 1004b980 f i GSClient_d:GSClient_DP8.obj
 0001:0004a9f0       ??$_Uninitialized_fill_n@PAPAPAUNetMessage@@IPAPAU1@V?$allocator@PAPAUNetMessage@@@std@@@std@@YAXPAPAPAUNetMessage@@IABQAPAU1@AAV?$allocator@PAPAUNetMessage@@@0@@Z 1004b9f0 f i GSClient_d:GSClient_DP8.obj
 0001:0004aa60       ??$_Destroy_range@PAPAUNetMessage@@V?$allocator@PAPAUNetMessage@@@std@@@std@@YAXPAPAPAUNetMessage@@0AAV?$allocator@PAPAUNetMessage@@@0@@Z 1004ba60 f i GSClient_d:GSClient_DP8.obj
 0001:0004aad0       ??$_Allocate@PAUNetMessage@@@std@@YAPAPAUNetMessage@@IPAPAU1@@Z 1004bad0 f i GSClient_d:GSClient_DP8.obj
 0001:0004ab20       ??$_Construct@PAUNetMessage@@PAU1@@std@@YAXPAPAUNetMessage@@ABQAU1@@Z 1004bb20 f i GSClient_d:GSClient_DP8.obj
 0001:0004aba0       ??$_Destroy@PAUNetMessage@@@std@@YAXPAPAUNetMessage@@@Z 1004bba0 f i GSClient_d:GSClient_DP8.obj
 0001:0004abd0       ??$_Destroy@PAPAUNetMessage@@@std@@YAXPAPAPAUNetMessage@@@Z 1004bbd0 f i GSClient_d:GSClient_DP8.obj
 0001:0004ac00       ??$?0PAUNetMessage@@@?$allocator@PAPAUNetMessage@@@std@@QAE@ABV?$allocator@PAUNetMessage@@@1@@Z 1004bc00 f i GSClient_d:GSClient_DP8.obj
 0001:0004ac30       ??$_Allocate@PAPAUNetMessage@@@std@@YAPAPAPAUNetMessage@@IPAPAPAU1@@Z 1004bc30 f i GSClient_d:GSClient_DP8.obj
 0001:0004ac80       ??$_Ptr_cat@PAUNetMessage@@@std@@YA?AU_Scalar_ptr_iterator_tag@0@PAPAPAUNetMessage@@0@Z 1004bc80 f i GSClient_d:GSClient_DP8.obj
 0001:0004ace0       ??$_Uninit_copy@PAPAUNetMessage@@PAPAU1@@std@@YAPAPAPAUNetMessage@@PAPAPAU1@00AAV?$allocator@PAPAUNetMessage@@@0@U_Scalar_ptr_iterator_tag@0@@Z 1004bce0 f i GSClient_d:GSClient_DP8.obj
 0001:0004ad50       ??$_Uninit_fill_n@PAPAUNetMessage@@IPAPAU1@@std@@YAXPAPAPAUNetMessage@@IABQAPAU1@AAV?$allocator@PAPAUNetMessage@@@0@U_Scalar_ptr_iterator_tag@0@@Z 1004bd50 f i GSClient_d:GSClient_DP8.obj
 0001:0004ada0       ??$_Destroy_range@PAPAUNetMessage@@V?$allocator@PAPAUNetMessage@@@std@@@std@@YAXPAPAPAUNetMessage@@0AAV?$allocator@PAPAUNetMessage@@@0@U_Scalar_ptr_iterator_tag@0@@Z 1004bda0 f i GSClient_d:GSClient_DP8.obj
 0001:0004add0       ??$fill_n@PAPAPAUNetMessage@@IPAPAU1@@std@@YAXPAPAPAUNetMessage@@IABQAPAU1@@Z 1004bdd0 f i GSClient_d:GSClient_DP8.obj
 0001:0004ae1c       _InitCommonControls@0      1004be1c f   comctl32:COMCTL32.dll
 0001:0004ae22       _CreateEventA@16           1004be22 f   kernel32:KERNEL32.dll
 0001:0004ae28       _InitializeCriticalSection@4 1004be28 f   kernel32:KERNEL32.dll
 0001:0004ae2e       _DeleteCriticalSection@4   1004be2e f   kernel32:KERNEL32.dll
 0001:0004ae34       _WaitForSingleObject@8     1004be34 f   kernel32:KERNEL32.dll
 0001:0004ae3a       _EnterCriticalSection@4    1004be3a f   kernel32:KERNEL32.dll
 0001:0004ae40       _LeaveCriticalSection@4    1004be40 f   kernel32:KERNEL32.dll
 0001:0004ae46       _SetEvent@4                1004be46 f   kernel32:KERNEL32.dll
 0001:0004ae4c       _CloseHandle@4             1004be4c f   kernel32:KERNEL32.dll
 0001:0004ae52       _SetUnhandledExceptionFilter@4 1004be52 f   kernel32:KERNEL32.dll
 0001:0004ae58       _ExitProcess@4             1004be58 f   kernel32:KERNEL32.dll
 0001:0004ae5e       _DisableThreadLibraryCalls@4 1004be5e f   kernel32:KERNEL32.dll
 0001:0004ae64       _DeleteFileA@4             1004be64 f   kernel32:KERNEL32.dll
 0001:0004ae6a       _GetModuleHandleA@4        1004be6a f   kernel32:KERNEL32.dll
 0001:0004ae70       _VirtualProtect@16         1004be70 f   kernel32:KERNEL32.dll
 0001:0004ae76       _ReadProcessMemory@20      1004be76 f   kernel32:KERNEL32.dll
 0001:0004ae7c       _VirtualProtectEx@20       1004be7c f   kernel32:KERNEL32.dll
 0001:0004ae82       _OpenProcess@12            1004be82 f   kernel32:KERNEL32.dll
 0001:0004ae88       _GetCurrentProcessId@0     1004be88 f   kernel32:KERNEL32.dll
 0001:0004ae8e       _MultiByteToWideChar@24    1004be8e f   kernel32:KERNEL32.dll
 0001:0004ae94       _WideCharToMultiByte@32    1004be94 f   kernel32:KERNEL32.dll
 0001:0004ae9a       _CreateFileA@28            1004be9a f   kernel32:KERNEL32.dll
 0001:0004aea0       _GetCurrentThreadId@0      1004bea0 f   kernel32:KERNEL32.dll
 0001:0004aea6       _FormatMessageA@28         1004bea6 f   kernel32:KERNEL32.dll
 0001:0004aeac       _GetLastError@0            1004beac f   kernel32:KERNEL32.dll
 0001:0004aeb2       _GetPrivateProfileStringA@24 1004beb2 f   kernel32:KERNEL32.dll
 0001:0004aeb8       _GetPrivateProfileIntA@16  1004beb8 f   kernel32:KERNEL32.dll
 0001:0004aebe       _WritePrivateProfileStringA@16 1004bebe f   kernel32:KERNEL32.dll
 0001:0004aec4       _QueryPerformanceFrequency@4 1004bec4 f   kernel32:KERNEL32.dll
 0001:0004aeca       _QueryPerformanceCounter@4 1004beca f   kernel32:KERNEL32.dll
 0001:0004aed0       _ReadFile@20               1004bed0 f   kernel32:KERNEL32.dll
 0001:0004aed6       _SetFilePointer@16         1004bed6 f   kernel32:KERNEL32.dll
 0001:0004aedc       _VirtualQuery@12           1004bedc f   kernel32:KERNEL32.dll
 0001:0004aee2       _OutputDebugStringA@4      1004bee2 f   kernel32:KERNEL32.dll
 0001:0004aee8       _GetModuleFileNameA@12     1004bee8 f   kernel32:KERNEL32.dll
 0001:0004aeee       _WriteFile@20              1004beee f   kernel32:KERNEL32.dll
 0001:0004aef4       _lstrlenA@4                1004bef4 f   kernel32:KERNEL32.dll
 0001:0004aefa       _GetSystemInfo@4           1004befa f   kernel32:KERNEL32.dll
 0001:0004af00       _GetFileSize@8             1004bf00 f   kernel32:KERNEL32.dll
 0001:0004af06       _GlobalMemoryStatus@4      1004bf06 f   kernel32:KERNEL32.dll
 0001:0004af0c       _lstrcpyA@8                1004bf0c f   kernel32:KERNEL32.dll
 0001:0004af12       _GetTickCount@0            1004bf12 f   kernel32:KERNEL32.dll
 0001:0004af18       _GetDlgItemInt@16          1004bf18 f   user32:USER32.dll
 0001:0004af1e       _EnableWindow@8            1004bf1e f   user32:USER32.dll
 0001:0004af24       _GetWindowTextLengthA@4    1004bf24 f   user32:USER32.dll
 0001:0004af2a       _EndDialog@8               1004bf2a f   user32:USER32.dll
 0001:0004af30       _GetWindowTextW@12         1004bf30 f   user32:USER32.dll
 0001:0004af36       _GetWindowTextA@12         1004bf36 f   user32:USER32.dll
 0001:0004af3c       _DialogBoxParamA@20        1004bf3c f   user32:USER32.dll
 0001:0004af42       _SwitchToThisWindow@8      1004bf42 f   user32:USER32.dll
 0001:0004af48       _SetDlgItemInt@16          1004bf48 f   user32:USER32.dll
 0001:0004af4e       _GetDlgItem@8              1004bf4e f   user32:USER32.dll
 0001:0004af54       _SetWindowTextA@8          1004bf54 f   user32:USER32.dll
 0001:0004af5a       _ShowWindow@8              1004bf5a f   user32:USER32.dll
 0001:0004af60       _GetMenu@4                 1004bf60 f   user32:USER32.dll
 0001:0004af66       _CreateDialogParamA@20     1004bf66 f   user32:USER32.dll
 0001:0004af6c       _GetDlgItemTextA@16        1004bf6c f   user32:USER32.dll
 0001:0004af72       _SetFocus@4                1004bf72 f   user32:USER32.dll
 0001:0004af78       _DispatchMessageA@4        1004bf78 f   user32:USER32.dll
 0001:0004af7e       _TranslateMessage@4        1004bf7e f   user32:USER32.dll
 0001:0004af84       _IsDialogMessageA@8        1004bf84 f   user32:USER32.dll
 0001:0004af8a       _TranslateAcceleratorA@12  1004bf8a f   user32:USER32.dll
 0001:0004af90       _PeekMessageA@20           1004bf90 f   user32:USER32.dll
 0001:0004af96       _LoadAcceleratorsA@8       1004bf96 f   user32:USER32.dll
 0001:0004af9c       _EnableMenuItem@12         1004bf9c f   user32:USER32.dll
 0001:0004afa2       _MessageBoxA@16            1004bfa2 f   user32:USER32.dll
 0001:0004afa8       _CheckMenuItem@12          1004bfa8 f   user32:USER32.dll
 0001:0004afae       _SendMessageA@16           1004bfae f   user32:USER32.dll
 0001:0004afb4       _SetDlgItemTextA@12        1004bfb4 f   user32:USER32.dll
 0001:0004afba       _DestroyWindow@4           1004bfba f   user32:USER32.dll
 0001:0004afc0       _GetWindowRect@8           1004bfc0 f   user32:USER32.dll
 0001:0004afc6       _SetForegroundWindow@4     1004bfc6 f   user32:USER32.dll
 0001:0004afcc       _AttachThreadInput@12      1004bfcc f   user32:USER32.dll
 0001:0004afd2       _GetWindowThreadProcessId@8 1004bfd2 f   user32:USER32.dll
 0001:0004afd8       _GetForegroundWindow@0     1004bfd8 f   user32:USER32.dll
 0001:0004afde       _wsprintfA                 1004bfde f   user32:USER32.dll
 0001:0004afe4       _wvsprintfA@12             1004bfe4 f   user32:USER32.dll
 0001:0004afea       _CoCreateInstance@20       1004bfea f   ole32:ole32.dll
 0001:0004aff0       __RTC_InitBase             1004bff0 f   MSVCRTD:init.obj
 0001:0004b020       __RTC_Shutdown             1004c020 f   MSVCRTD:init.obj
 0001:0004b040       __RTC_CheckEsp             1004c040 f   MSVCRTD:stack.obj
 0001:0004b070       @_RTC_CheckStackVars@8     1004c070 f   MSVCRTD:stack.obj
 0001:0004b0d4       __assert                   1004c0d4 f   MSVCRTD:MSVCR71D.dll
 0001:0004b0e0       ___CxxFrameHandler         1004c0e0 f   MSVCRTD:MSVCR71D.dll
 0001:0004b0e6       _strlen                    1004c0e6 f   MSVCRTD:MSVCR71D.dll
 0001:0004b0ec       _sprintf                   1004c0ec f   MSVCRTD:MSVCR71D.dll
 0001:0004b100       ??0type_info@@AAE@ABV0@@Z  1004c100 f   MSVCRTD:ti_inst.obj
 0001:0004b120       ??_Etype_info@@UAEPAXI@Z   1004c120 f i MSVCRTD:ti_inst.obj
 0001:0004b190       ??4type_info@@AAEAAV0@ABV0@@Z 1004c190 f   MSVCRTD:ti_inst.obj
 0001:0004b1a0       ??3@YAXPAX@Z               1004c1a0 f   MSVCRTD:MSVCR71D.dll
 0001:0004b1a6       ??2@YAPAXI@Z               1004c1a6 f   MSVCRTD:MSVCR71D.dll
 0001:0004b1ac       ??0exception@@QAE@ABV0@@Z  1004c1ac f   MSVCRTD:MSVCR71D.dll
 0001:0004b1b2       __CxxThrowException@8      1004c1b2 f   MSVCRTD:MSVCR71D.dll
 0001:0004b1b8       ??1exception@@UAE@XZ       1004c1b8 f   MSVCRTD:MSVCR71D.dll
 0001:0004b1be       ??0exception@@QAE@XZ       1004c1be f   MSVCRTD:MSVCR71D.dll
 0001:0004b1d0       __onexit                   1004c1d0 f   MSVCRTD:atonexit.obj
 0001:0004b210       _atexit                    1004c210 f   MSVCRTD:atonexit.obj
 0001:0004b228       __purecall                 1004c228 f   MSVCRTD:MSVCR71D.dll
 0001:0004b22e       _wcslen                    1004c22e f   MSVCRTD:MSVCR71D.dll
 0001:0004b234       _memset                    1004c234 f   MSVCRTD:MSVCR71D.dll
 0001:0004b240       @__security_check_cookie@4 1004c240 f   MSVCRTD:secchk.obj
 0001:0004b2bc       ??_U@YAPAXI@Z              1004c2bc f   MSVCRTD:MSVCR71D.dll
 0001:0004b2c2       ??_V@YAXPAX@Z              1004c2c2 f   MSVCRTD:MSVCR71D.dll
 0001:0004b2c8       _memcpy                    1004c2c8 f   MSVCRTD:MSVCR71D.dll
 0001:0004b2ce       _strcpy                    1004c2ce f   MSVCRTD:MSVCR71D.dll
 0001:0004b2e0       ??_M@YGXPAXIHP6EX0@Z@Z     1004c2e0 f   MSVCRTD:ehvecdtr.obj
 0001:0004b380       ?__ArrayUnwind@@YGXPAXIHP6EX0@Z@Z 1004c380 f   MSVCRTD:ehvecdtr.obj
 0001:0004b430       ??_L@YGXPAXIHP6EX0@Z1@Z    1004c430 f   MSVCRTD:ehvecctr.obj
 0001:0004b4d0       __stricmp                  1004c4d0 f   MSVCRTD:MSVCR71D.dll
 0001:0004b4d6       _atoi                      1004c4d6 f   MSVCRTD:MSVCR71D.dll
 0001:0004b4dc       _atof                      1004c4dc f   MSVCRTD:MSVCR71D.dll
 0001:0004b4e2       _strtok                    1004c4e2 f   MSVCRTD:MSVCR71D.dll
 0001:0004b4e8       __snprintf                 1004c4e8 f   MSVCRTD:MSVCR71D.dll
 0001:0004b4f0       __ftol2                    1004c4f0 f   MSVCRTD:ftol2.obj
 0001:0004b566       _sqrt                      1004c566 f   MSVCRTD:MSVCR71D.dll
 0001:0004b56c       __CrtDbgReport             1004c56c f   MSVCRTD:MSVCR71D.dll
 0001:0004b572       _strcat                    1004c572 f   MSVCRTD:MSVCR71D.dll
 0001:0004b578       __vsnprintf                1004c578 f   MSVCRTD:MSVCR71D.dll
 0001:0004b580       __chkstk                   1004c580 f   MSVCRTD:chkstk.obj
 0001:0004b580       __alloca_probe             1004c580     MSVCRTD:chkstk.obj
 0001:0004b5c0       ?_RTC_Failure@@YAXPAXH@Z   1004c5c0 f   MSVCRTD:error.obj
 0001:0004b820       ?_RTC_MemFailure@@YAXPAXHPBX@Z 1004c820 f   MSVCRTD:error.obj
 0001:0004ba70       ?_RTC_StackFailure@@YAXPAXPBD@Z 1004ca70 f   MSVCRTD:error.obj
 0001:0004bb30       __RTC_UninitUse            1004cb30 f   MSVCRTD:error.obj
 0001:0004bce8       __mkdir                    1004cce8 f   MSVCRTD:MSVCR71D.dll
 0001:0004bcee       _rename                    1004ccee f   MSVCRTD:MSVCR71D.dll
 0001:0004bcf4       ??0bad_cast@@QAE@ABV0@@Z   1004ccf4 f   MSVCRTD:MSVCR71D.dll
 0001:0004bcfa       ??1bad_cast@@UAE@XZ        1004ccfa f   MSVCRTD:MSVCR71D.dll
 0001:0004bd00       ??0bad_cast@@QAE@PBD@Z     1004cd00 f   MSVCRTD:MSVCR71D.dll
 0001:0004bd06       _strchr                    1004cd06 f   MSVCRTD:MSVCR71D.dll
 0001:0004bd0c       _isspace                   1004cd0c f   MSVCRTD:MSVCR71D.dll
 0001:0004bd12       __strdup                   1004cd12 f   MSVCRTD:MSVCR71D.dll
 0001:0004bd18       _memmove                   1004cd18 f   MSVCRTD:MSVCR71D.dll
 0001:0004bd20       __CRT_INIT@12              1004cd20 f   MSVCRTD:crtdll.obj
 0001:0004be40       __DllMainCRTStartup@12     1004ce40 f   MSVCRTD:crtdll.obj
 0001:0004bfc4       _fopen                     1004cfc4 f   MSVCRTD:MSVCR71D.dll
 0001:0004bfca       _fclose                    1004cfca f   MSVCRTD:MSVCR71D.dll
 0001:0004bfd0       _fprintf                   1004cfd0 f   MSVCRTD:MSVCR71D.dll
 0001:0004bfd6       _strftime                  1004cfd6 f   MSVCRTD:MSVCR71D.dll
 0001:0004bfdc       _localtime                 1004cfdc f   MSVCRTD:MSVCR71D.dll
 0001:0004bfe2       _time                      1004cfe2 f   MSVCRTD:MSVCR71D.dll
 0001:0004bfe8       _fwprintf                  1004cfe8 f   MSVCRTD:MSVCR71D.dll
 0001:0004bfee       _wcsftime                  1004cfee f   MSVCRTD:MSVCR71D.dll
 0001:0004bff4       __vsnwprintf               1004cff4 f   MSVCRTD:MSVCR71D.dll
 0001:0004bffa       _fflush                    1004cffa f   MSVCRTD:MSVCR71D.dll
 0001:0004c000       _strncpy                   1004d000 f   MSVCRTD:MSVCR71D.dll
 0001:0004c006       _free                      1004d006 f   MSVCRTD:MSVCR71D.dll
 0001:0004c00c       _malloc                    1004d00c f   MSVCRTD:MSVCR71D.dll
 0001:0004c012       _strcmp                    1004d012 f   MSVCRTD:MSVCR71D.dll
 0001:0004c018       _realloc                   1004d018 f   MSVCRTD:MSVCR71D.dll
 0001:0004c020       __alldiv                   1004d020 f   MSVCRTD:lldiv.obj
 0001:0004c0ca       __strlwr                   1004d0ca f   MSVCRTD:MSVCR71D.dll
 0001:0004c0d0       _strrchr                   1004d0d0 f   MSVCRTD:MSVCR71D.dll
 0001:0004c0d6       __except_handler3          1004d0d6 f   MSVCRTD:MSVCR71D.dll
 0001:0004c0e0       __RTC_NumErrors            1004d0e0 f   MSVCRTD:userapi.obj
 0001:0004c0f0       __RTC_GetErrDesc           1004d0f0 f   MSVCRTD:userapi.obj
 0001:0004c110       __RTC_SetErrorType         1004d110 f   MSVCRTD:userapi.obj
 0001:0004c140       __RTC_SetErrorFunc         1004d140 f   MSVCRTD:userapi.obj
 0001:0004c160       ?_RTC_GetErrorFunc@@YAP6AHHPBDH00ZZPBX@Z 1004d160 f   MSVCRTD:userapi.obj
 0001:0004c166       __CRT_RTC_INIT             1004d166 f   MSVCRTD:MSVCR71D.dll
 0001:0004c16c       ??1type_info@@UAE@XZ       1004d16c f   MSVCRTD:MSVCR71D.dll
 0001:0004c172       ___dllonexit               1004d172 f   MSVCRTD:MSVCR71D.dll
 0001:0004c180       ___security_init_cookie    1004d180 f   MSVCRTD:seccinit.obj
 0001:0004c214       ___security_error_handler  1004d214 f   MSVCRTD:MSVCR71D.dll
 0001:0004c21a       ?terminate@@YAXXZ          1004d21a f   MSVCRTD:MSVCR71D.dll
 0001:0004c220       ?_RTC_GetSrcLine@@YAHKPADHPAHPAPAD@Z 1004d220 f   MSVCRTD:pdblkup.obj
 0001:0004cabe       __free_dbg                 1004dabe f   MSVCRTD:MSVCR71D.dll
 0001:0004cac4       __initterm                 1004dac4 f   MSVCRTD:MSVCR71D.dll
 0001:0004cad0       __RTC_Initialize           1004dad0 f   MSVCRTD:initsect.obj
 0001:0004cb50       __RTC_Terminate            1004db50 f   MSVCRTD:initsect.obj
 0001:0004cbc8       __malloc_dbg               1004dbc8 f   MSVCRTD:MSVCR71D.dll
 0001:0004cbce       ___CppXcptFilter           1004dbce f   MSVCRTD:MSVCR71D.dll
 0001:0004cbd4       ??1?$basic_string@DU?$char_traits@D@std@@V?$allocator@D@2@@std@@QAE@XZ 1004dbd4 f   msvcprtd:MSVCP71D.dll
 0001:0004cbda       ??0?$basic_string@DU?$char_traits@D@std@@V?$allocator@D@2@@std@@QAE@PBD@Z 1004dbda f   msvcprtd:MSVCP71D.dll
 0001:0004cbe0       ??0?$basic_string@DU?$char_traits@D@std@@V?$allocator@D@2@@std@@QAE@ABV01@@Z 1004dbe0 f   msvcprtd:MSVCP71D.dll
 0001:0004cbe6       ?c_str@?$basic_string@DU?$char_traits@D@std@@V?$allocator@D@2@@std@@QBEPBDXZ 1004dbe6 f   msvcprtd:MSVCP71D.dll
 0001:0004cbec       ??4?$basic_string@GU?$char_traits@G@std@@V?$allocator@G@2@@std@@QAEAAV01@PBG@Z 1004dbec f   msvcprtd:MSVCP71D.dll
 0001:0004cbf2       ??4?$basic_string@DU?$char_traits@D@std@@V?$allocator@D@2@@std@@QAEAAV01@PBD@Z 1004dbf2 f   msvcprtd:MSVCP71D.dll
 0001:0004cbf8       ?clear@?$basic_string@DU?$char_traits@D@std@@V?$allocator@D@2@@std@@QAEXXZ 1004dbf8 f   msvcprtd:MSVCP71D.dll
 0001:0004cbfe       ?clear@?$basic_string@GU?$char_traits@G@std@@V?$allocator@G@2@@std@@QAEXXZ 1004dbfe f   msvcprtd:MSVCP71D.dll
 0001:0004cc04       ?c_str@?$basic_string@GU?$char_traits@G@std@@V?$allocator@G@2@@std@@QBEPBGXZ 1004dc04 f   msvcprtd:MSVCP71D.dll
 0001:0004cc0a       ?empty@?$basic_string@GU?$char_traits@G@std@@V?$allocator@G@2@@std@@QBE_NXZ 1004dc0a f   msvcprtd:MSVCP71D.dll
 0001:0004cc10       ??0?$basic_string@GU?$char_traits@G@std@@V?$allocator@G@2@@std@@QAE@XZ 1004dc10 f   msvcprtd:MSVCP71D.dll
 0001:0004cc16       ??0?$basic_string@DU?$char_traits@D@std@@V?$allocator@D@2@@std@@QAE@XZ 1004dc16 f   msvcprtd:MSVCP71D.dll
 0001:0004cc1c       ??1?$basic_string@GU?$char_traits@G@std@@V?$allocator@G@2@@std@@QAE@XZ 1004dc1c f   msvcprtd:MSVCP71D.dll
 0001:0004cc22       ?empty@?$basic_string@DU?$char_traits@D@std@@V?$allocator@D@2@@std@@QBE_NXZ 1004dc22 f   msvcprtd:MSVCP71D.dll
 0001:0004cc28       ??Y?$basic_string@DU?$char_traits@D@std@@V?$allocator@D@2@@std@@QAEAAV01@ABV01@@Z 1004dc28 f   msvcprtd:MSVCP71D.dll
 0001:0004cc2e       ??0?$basic_string@DU?$char_traits@D@std@@V?$allocator@D@2@@std@@QAE@ID@Z 1004dc2e f   msvcprtd:MSVCP71D.dll
 0001:0004cc34       ??Y?$basic_string@DU?$char_traits@D@std@@V?$allocator@D@2@@std@@QAEAAV01@PBD@Z 1004dc34 f   msvcprtd:MSVCP71D.dll
 0001:0004cc3a       ??Y?$basic_string@DU?$char_traits@D@std@@V?$allocator@D@2@@std@@QAEAAV01@D@Z 1004dc3a f   msvcprtd:MSVCP71D.dll
 0001:0004cc40       ??Y?$basic_string@GU?$char_traits@G@std@@V?$allocator@G@2@@std@@QAEAAV01@ABV01@@Z 1004dc40 f   msvcprtd:MSVCP71D.dll
 0001:0004cc46       ??0?$basic_string@GU?$char_traits@G@std@@V?$allocator@G@2@@std@@QAE@ABV01@@Z 1004dc46 f   msvcprtd:MSVCP71D.dll
 0001:0004cc4c       ??0?$basic_string@GU?$char_traits@G@std@@V?$allocator@G@2@@std@@QAE@PBG@Z 1004dc4c f   msvcprtd:MSVCP71D.dll
 0001:0004cc52       ??0?$basic_string@GU?$char_traits@G@std@@V?$allocator@G@2@@std@@QAE@IG@Z 1004dc52 f   msvcprtd:MSVCP71D.dll
 0001:0004cc58       ??Y?$basic_string@GU?$char_traits@G@std@@V?$allocator@G@2@@std@@QAEAAV01@PBG@Z 1004dc58 f   msvcprtd:MSVCP71D.dll
 0001:0004cc5e       ??Y?$basic_string@GU?$char_traits@G@std@@V?$allocator@G@2@@std@@QAEAAV01@G@Z 1004dc5e f   msvcprtd:MSVCP71D.dll
 0001:0004cc64       ?width@ios_base@std@@QAEHH@Z 1004dc64 f   msvcprtd:MSVCP71D.dll
 0001:0004cc6a       ?setstate@?$basic_ios@DU?$char_traits@D@std@@@std@@QAEXH_N@Z 1004dc6a f   msvcprtd:MSVCP71D.dll
 0001:0004cc70       ?append@?$basic_string@DU?$char_traits@D@std@@V?$allocator@D@2@@std@@QAEAAV12@ID@Z 1004dc70 f   msvcprtd:MSVCP71D.dll
 0001:0004cc76       ?is@?$ctype@D@std@@QBE_NFD@Z 1004dc76 f   msvcprtd:MSVCP71D.dll
 0001:0004cc7c       ?to_char_type@?$char_traits@D@std@@SADABH@Z 1004dc7c f   msvcprtd:MSVCP71D.dll
 0001:0004cc82       ?eq_int_type@?$char_traits@D@std@@SA_NABH0@Z 1004dc82 f   msvcprtd:MSVCP71D.dll
 0001:0004cc88       ?eof@?$char_traits@D@std@@SAHXZ 1004dc88 f   msvcprtd:MSVCP71D.dll
 0001:0004cc8e       ?snextc@?$basic_streambuf@DU?$char_traits@D@std@@@std@@QAEHXZ 1004dc8e f   msvcprtd:MSVCP71D.dll
 0001:0004cc94       ?sgetc@?$basic_streambuf@DU?$char_traits@D@std@@@std@@QAEHXZ 1004dc94 f   msvcprtd:MSVCP71D.dll
 0001:0004cc9a       ?rdbuf@?$basic_ios@DU?$char_traits@D@std@@@std@@QBEPAV?$basic_streambuf@DU?$char_traits@D@std@@@2@XZ 1004dc9a f   msvcprtd:MSVCP71D.dll
 0001:0004cca0       ?max_size@?$basic_string@DU?$char_traits@D@std@@V?$allocator@D@2@@std@@QBEIXZ 1004dca0 f   msvcprtd:MSVCP71D.dll
 0001:0004cca6       ?width@ios_base@std@@QBEHXZ 1004dca6 f   msvcprtd:MSVCP71D.dll
 0001:0004ccac       ?erase@?$basic_string@DU?$char_traits@D@std@@V?$allocator@D@2@@std@@QAEAAV12@II@Z 1004dcac f   msvcprtd:MSVCP71D.dll
 0001:0004ccb2       ??1locale@std@@QAE@XZ      1004dcb2 f   msvcprtd:MSVCP71D.dll
 0001:0004ccb8       ?getloc@ios_base@std@@QBE?AVlocale@2@XZ 1004dcb8 f   msvcprtd:MSVCP71D.dll
 0001:0004ccbe       ?_Ipfx@?$basic_istream@DU?$char_traits@D@std@@@std@@QAE_N_N@Z 1004dcbe f   msvcprtd:MSVCP71D.dll
 0001:0004ccc4       ?_Unlock@?$basic_streambuf@DU?$char_traits@D@std@@@std@@QAEXXZ 1004dcc4 f   msvcprtd:MSVCP71D.dll
 0001:0004ccca       ?_Lock@?$basic_streambuf@DU?$char_traits@D@std@@@std@@QAEXXZ 1004dcca f   msvcprtd:MSVCP71D.dll
 0001:0004ccd0       ??1_Lockit@std@@QAE@XZ     1004dcd0 f   msvcprtd:MSVCP71D.dll
 0001:0004ccd6       ?_Register@facet@locale@std@@QAEXXZ 1004dcd6 f   msvcprtd:MSVCP71D.dll
 0001:0004ccdc       ?_Incref@facet@locale@std@@QAEXXZ 1004dcdc f   msvcprtd:MSVCP71D.dll
 0001:0004cce2       ?_Getcat@?$ctype@D@std@@SAIPAPBVfacet@locale@2@@Z 1004dce2 f   msvcprtd:MSVCP71D.dll
 0001:0004cce8       ?_Getfacet@locale@std@@QBEPBVfacet@12@I@Z 1004dce8 f   msvcprtd:MSVCP71D.dll
 0001:0004ccee       ??Bid@locale@std@@QAEIXZ   1004dcee f   msvcprtd:MSVCP71D.dll
 0001:0004ccf4       ??0_Lockit@std@@QAE@H@Z    1004dcf4 f   msvcprtd:MSVCP71D.dll
 0001:0004ccfa       ?widen@?$basic_ios@DU?$char_traits@D@std@@@std@@QBEDD@Z 1004dcfa f   msvcprtd:MSVCP71D.dll
 0001:0004cd00       ?size@?$basic_string@DU?$char_traits@D@std@@V?$allocator@D@2@@std@@QBEIXZ 1004dd00 f   msvcprtd:MSVCP71D.dll
 0001:0004cd06       ?sbumpc@?$basic_streambuf@DU?$char_traits@D@std@@@std@@QAEHXZ 1004dd06 f   msvcprtd:MSVCP71D.dll
 0001:0004cd0c       ?to_int_type@?$char_traits@D@std@@SAHABD@Z 1004dd0c f   msvcprtd:MSVCP71D.dll
 0001:0004cd12       ??A?$basic_string@DU?$char_traits@D@std@@V?$allocator@D@2@@std@@QBEABDI@Z 1004dd12 f   msvcprtd:MSVCP71D.dll
 0001:0004cd18       ?sputc@?$basic_streambuf@DU?$char_traits@D@std@@@std@@QAEHD@Z 1004dd18 f   msvcprtd:MSVCP71D.dll
 0001:0004cd1e       ?fill@?$basic_ios@DU?$char_traits@D@std@@@std@@QBEDXZ 1004dd1e f   msvcprtd:MSVCP71D.dll
 0001:0004cd24       ?flags@ios_base@std@@QBEHXZ 1004dd24 f   msvcprtd:MSVCP71D.dll
 0001:0004cd2a       ?flush@?$basic_ostream@DU?$char_traits@D@std@@@std@@QAEAAV12@XZ 1004dd2a f   msvcprtd:MSVCP71D.dll
 0001:0004cd30       ?tie@?$basic_ios@DU?$char_traits@D@std@@@std@@QBEPAV?$basic_ostream@DU?$char_traits@D@std@@@2@XZ 1004dd30 f   msvcprtd:MSVCP71D.dll
 0001:0004cd36       ?good@ios_base@std@@QBE_NXZ 1004dd36 f   msvcprtd:MSVCP71D.dll
 0001:0004cd3c       ?_Osfx@?$basic_ostream@DU?$char_traits@D@std@@@std@@QAEXXZ 1004dd3c f   msvcprtd:MSVCP71D.dll
 0001:0004cd42       ?uncaught_exception@std@@YA_NXZ 1004dd42 f   msvcprtd:MSVCP71D.dll
 0001:0004cd48       ?setstate@?$basic_ios@GU?$char_traits@G@std@@@std@@QAEXH_N@Z 1004dd48 f   msvcprtd:MSVCP71D.dll
 0001:0004cd4e       ?append@?$basic_string@GU?$char_traits@G@std@@V?$allocator@G@2@@std@@QAEAAV12@IG@Z 1004dd4e f   msvcprtd:MSVCP71D.dll
 0001:0004cd54       ?is@?$ctype@G@std@@QBE_NFG@Z 1004dd54 f   msvcprtd:MSVCP71D.dll
 0001:0004cd5a       ?to_char_type@?$char_traits@G@std@@SAGABG@Z 1004dd5a f   msvcprtd:MSVCP71D.dll
 0001:0004cd60       ?eq_int_type@?$char_traits@G@std@@SA_NABG0@Z 1004dd60 f   msvcprtd:MSVCP71D.dll
 0001:0004cd66       ?eof@?$char_traits@G@std@@SAGXZ 1004dd66 f   msvcprtd:MSVCP71D.dll
 0001:0004cd6c       ?snextc@?$basic_streambuf@GU?$char_traits@G@std@@@std@@QAEGXZ 1004dd6c f   msvcprtd:MSVCP71D.dll
 0001:0004cd72       ?sgetc@?$basic_streambuf@GU?$char_traits@G@std@@@std@@QAEGXZ 1004dd72 f   msvcprtd:MSVCP71D.dll
 0001:0004cd78       ?rdbuf@?$basic_ios@GU?$char_traits@G@std@@@std@@QBEPAV?$basic_streambuf@GU?$char_traits@G@std@@@2@XZ 1004dd78 f   msvcprtd:MSVCP71D.dll
 0001:0004cd7e       ?max_size@?$basic_string@GU?$char_traits@G@std@@V?$allocator@G@2@@std@@QBEIXZ 1004dd7e f   msvcprtd:MSVCP71D.dll
 0001:0004cd84       ?erase@?$basic_string@GU?$char_traits@G@std@@V?$allocator@G@2@@std@@QAEAAV12@II@Z 1004dd84 f   msvcprtd:MSVCP71D.dll
 0001:0004cd8a       ?_Ipfx@?$basic_istream@GU?$char_traits@G@std@@@std@@QAE_N_N@Z 1004dd8a f   msvcprtd:MSVCP71D.dll
 0001:0004cd90       ?_Unlock@?$basic_streambuf@GU?$char_traits@G@std@@@std@@QAEXXZ 1004dd90 f   msvcprtd:MSVCP71D.dll
 0001:0004cd96       ?_Lock@?$basic_streambuf@GU?$char_traits@G@std@@@std@@QAEXXZ 1004dd96 f   msvcprtd:MSVCP71D.dll
 0001:0004cd9c       ?_Getcat@?$ctype@G@std@@SAIPAPBVfacet@locale@2@@Z 1004dd9c f   msvcprtd:MSVCP71D.dll
 0001:0004cda2       ?widen@?$basic_ios@GU?$char_traits@G@std@@@std@@QBEGD@Z 1004dda2 f   msvcprtd:MSVCP71D.dll
 0001:0004cda8       ?size@?$basic_string@GU?$char_traits@G@std@@V?$allocator@G@2@@std@@QBEIXZ 1004dda8 f   msvcprtd:MSVCP71D.dll
 0001:0004cdae       ?sbumpc@?$basic_streambuf@GU?$char_traits@G@std@@@std@@QAEGXZ 1004ddae f   msvcprtd:MSVCP71D.dll
 0001:0004cdb4       ?to_int_type@?$char_traits@G@std@@SAGABG@Z 1004ddb4 f   msvcprtd:MSVCP71D.dll
 0001:0004cdba       ??A?$basic_string@GU?$char_traits@G@std@@V?$allocator@G@2@@std@@QBEABGI@Z 1004ddba f   msvcprtd:MSVCP71D.dll
 0001:0004cdc0       ?sputc@?$basic_streambuf@GU?$char_traits@G@std@@@std@@QAEGG@Z 1004ddc0 f   msvcprtd:MSVCP71D.dll
 0001:0004cdc6       ?fill@?$basic_ios@GU?$char_traits@G@std@@@std@@QBEGXZ 1004ddc6 f   msvcprtd:MSVCP71D.dll
 0001:0004cdcc       ?flush@?$basic_ostream@GU?$char_traits@G@std@@@std@@QAEAAV12@XZ 1004ddcc f   msvcprtd:MSVCP71D.dll
 0001:0004cdd2       ?tie@?$basic_ios@GU?$char_traits@G@std@@@std@@QBEPAV?$basic_ostream@GU?$char_traits@G@std@@@2@XZ 1004ddd2 f   msvcprtd:MSVCP71D.dll
 0001:0004cdd8       ?_Osfx@?$basic_ostream@GU?$char_traits@G@std@@@std@@QAEXXZ 1004ddd8 f   msvcprtd:MSVCP71D.dll
 0001:0004cdde       ??A?$basic_string@DU?$char_traits@D@std@@V?$allocator@D@2@@std@@QAEAADI@Z 1004ddde f   msvcprtd:MSVCP71D.dll
 0001:0004cde4       ?length@?$basic_string@DU?$char_traits@D@std@@V?$allocator@D@2@@std@@QBEIXZ 1004dde4 f   msvcprtd:MSVCP71D.dll
 0001:0004cdea       ?substr@?$basic_string@DU?$char_traits@D@std@@V?$allocator@D@2@@std@@QBE?AV12@II@Z 1004ddea f   msvcprtd:MSVCP71D.dll
 0001:0004cdf0       ?substr@?$basic_string@GU?$char_traits@G@std@@V?$allocator@G@2@@std@@QBE?AV12@II@Z 1004ddf0 f   msvcprtd:MSVCP71D.dll
 0001:0004cdf6       ?length@?$basic_string@GU?$char_traits@G@std@@V?$allocator@G@2@@std@@QBEIXZ 1004ddf6 f   msvcprtd:MSVCP71D.dll
 0001:0004cdfc       _DebugBreak@0              1004ddfc f   kernel32:KERNEL32.dll
 0001:0004ce02       _RaiseException@16         1004de02 f   kernel32:KERNEL32.dll
 0001:0004ce08       _GetVersionExA@4           1004de08 f   kernel32:KERNEL32.dll
 0001:0004ce0e       _GetProcAddress@8          1004de0e f   kernel32:KERNEL32.dll
 0001:0004ce14       _LoadLibraryA@4            1004de14 f   kernel32:KERNEL32.dll
 0001:0004ce1a       _GetSystemTimeAsFileTime@4 1004de1a f   kernel32:KERNEL32.dll
 0001:0004ce20       _HeapFree@12               1004de20 f   kernel32:KERNEL32.dll
 0001:0004ce26       _HeapAlloc@12              1004de26 f   kernel32:KERNEL32.dll
 0001:0004ce2c       _GetProcessHeap@0          1004de2c f   kernel32:KERNEL32.dll
 0001:0004ce32       _GetCurrentProcess@0       1004de32 f   kernel32:KERNEL32.dll
 0001:0004ce38       _FreeLibrary@4             1004de38 f   kernel32:KERNEL32.dll
 0002:00000000       __imp__InitCommonControls@0 10051000     comctl32:COMCTL32.dll
 0002:00000004       \177COMCTL32_NULL_THUNK_DATA 10051004     comctl32:COMCTL32.dll
 0002:00000008       __imp__HeapAlloc@12        10051008     kernel32:KERNEL32.dll
 0002:0000000c       __imp__GetProcessHeap@0    1005100c     kernel32:KERNEL32.dll
 0002:00000010       __imp__GetCurrentProcess@0 10051010     kernel32:KERNEL32.dll
 0002:00000014       __imp__FreeLibrary@4       10051014     kernel32:KERNEL32.dll
 0002:00000018       __imp__CreateEventA@16     10051018     kernel32:KERNEL32.dll
 0002:0000001c       __imp__InitializeCriticalSection@4 1005101c     kernel32:KERNEL32.dll
 0002:00000020       __imp__DeleteCriticalSection@4 10051020     kernel32:KERNEL32.dll
 0002:00000024       __imp__WaitForSingleObject@8 10051024     kernel32:KERNEL32.dll
 0002:00000028       __imp__EnterCriticalSection@4 10051028     kernel32:KERNEL32.dll
 0002:0000002c       __imp__LeaveCriticalSection@4 1005102c     kernel32:KERNEL32.dll
 0002:00000030       __imp__SetEvent@4          10051030     kernel32:KERNEL32.dll
 0002:00000034       __imp__CloseHandle@4       10051034     kernel32:KERNEL32.dll
 0002:00000038       __imp__SetUnhandledExceptionFilter@4 10051038     kernel32:KERNEL32.dll
 0002:0000003c       __imp__ExitProcess@4       1005103c     kernel32:KERNEL32.dll
 0002:00000040       __imp__DisableThreadLibraryCalls@4 10051040     kernel32:KERNEL32.dll
 0002:00000044       __imp__DeleteFileA@4       10051044     kernel32:KERNEL32.dll
 0002:00000048       __imp__GetModuleHandleA@4  10051048     kernel32:KERNEL32.dll
 0002:0000004c       __imp__VirtualProtect@16   1005104c     kernel32:KERNEL32.dll
 0002:00000050       __imp__ReadProcessMemory@20 10051050     kernel32:KERNEL32.dll
 0002:00000054       __imp__VirtualProtectEx@20 10051054     kernel32:KERNEL32.dll
 0002:00000058       __imp__OpenProcess@12      10051058     kernel32:KERNEL32.dll
 0002:0000005c       __imp__GetCurrentProcessId@0 1005105c     kernel32:KERNEL32.dll
 0002:00000060       __imp__MultiByteToWideChar@24 10051060     kernel32:KERNEL32.dll
 0002:00000064       __imp__WideCharToMultiByte@32 10051064     kernel32:KERNEL32.dll
 0002:00000068       __imp__CreateFileA@28      10051068     kernel32:KERNEL32.dll
 0002:0000006c       __imp__GetCurrentThreadId@0 1005106c     kernel32:KERNEL32.dll
 0002:00000070       __imp__FormatMessageA@28   10051070     kernel32:KERNEL32.dll
 0002:00000074       __imp__GetLastError@0      10051074     kernel32:KERNEL32.dll
 0002:00000078       __imp__GetPrivateProfileStringA@24 10051078     kernel32:KERNEL32.dll
 0002:0000007c       __imp__GetPrivateProfileIntA@16 1005107c     kernel32:KERNEL32.dll
 0002:00000080       __imp__WritePrivateProfileStringA@16 10051080     kernel32:KERNEL32.dll
 0002:00000084       __imp__QueryPerformanceFrequency@4 10051084     kernel32:KERNEL32.dll
 0002:00000088       __imp__QueryPerformanceCounter@4 10051088     kernel32:KERNEL32.dll
 0002:0000008c       __imp__ReadFile@20         1005108c     kernel32:KERNEL32.dll
 0002:00000090       __imp__SetFilePointer@16   10051090     kernel32:KERNEL32.dll
 0002:00000094       __imp__VirtualQuery@12     10051094     kernel32:KERNEL32.dll
 0002:00000098       __imp__OutputDebugStringA@4 10051098     kernel32:KERNEL32.dll
 0002:0000009c       __imp__GetModuleFileNameA@12 1005109c     kernel32:KERNEL32.dll
 0002:000000a0       __imp__WriteFile@20        100510a0     kernel32:KERNEL32.dll
 0002:000000a4       __imp__lstrlenA@4          100510a4     kernel32:KERNEL32.dll
 0002:000000a8       __imp__GetSystemInfo@4     100510a8     kernel32:KERNEL32.dll
 0002:000000ac       __imp__GetFileSize@8       100510ac     kernel32:KERNEL32.dll
 0002:000000b0       __imp__GlobalMemoryStatus@4 100510b0     kernel32:KERNEL32.dll
 0002:000000b4       __imp__lstrcpyA@8          100510b4     kernel32:KERNEL32.dll
 0002:000000b8       __imp__GetTickCount@0      100510b8     kernel32:KERNEL32.dll
 0002:000000bc       __imp__HeapFree@12         100510bc     kernel32:KERNEL32.dll
 0002:000000c0       __imp__GetSystemTimeAsFileTime@4 100510c0     kernel32:KERNEL32.dll
 0002:000000c4       __imp__LoadLibraryA@4      100510c4     kernel32:KERNEL32.dll
 0002:000000c8       __imp__GetProcAddress@8    100510c8     kernel32:KERNEL32.dll
 0002:000000cc       __imp__GetVersionExA@4     100510cc     kernel32:KERNEL32.dll
 0002:000000d0       __imp__RaiseException@16   100510d0     kernel32:KERNEL32.dll
 0002:000000d4       __imp__DebugBreak@0        100510d4     kernel32:KERNEL32.dll
 0002:000000d8       \177KERNEL32_NULL_THUNK_DATA 100510d8     kernel32:KERNEL32.dll
 0002:000000dc       __imp_?length@?$basic_string@GU?$char_traits@G@std@@V?$allocator@G@2@@std@@QBEIXZ 100510dc     msvcprtd:MSVCP71D.dll
 0002:000000e0       __imp_?substr@?$basic_string@GU?$char_traits@G@std@@V?$allocator@G@2@@std@@QBE?AV12@II@Z 100510e0     msvcprtd:MSVCP71D.dll
 0002:000000e4       __imp_?substr@?$basic_string@DU?$char_traits@D@std@@V?$allocator@D@2@@std@@QBE?AV12@II@Z 100510e4     msvcprtd:MSVCP71D.dll
 0002:000000e8       __imp_?length@?$basic_string@DU?$char_traits@D@std@@V?$allocator@D@2@@std@@QBEIXZ 100510e8     msvcprtd:MSVCP71D.dll
 0002:000000ec       __imp_??A?$basic_string@DU?$char_traits@D@std@@V?$allocator@D@2@@std@@QAEAADI@Z 100510ec     msvcprtd:MSVCP71D.dll
 0002:000000f0       __imp_?_Osfx@?$basic_ostream@GU?$char_traits@G@std@@@std@@QAEXXZ 100510f0     msvcprtd:MSVCP71D.dll
 0002:000000f4       __imp_?tie@?$basic_ios@GU?$char_traits@G@std@@@std@@QBEPAV?$basic_ostream@GU?$char_traits@G@std@@@2@XZ 100510f4     msvcprtd:MSVCP71D.dll
 0002:000000f8       __imp_?flush@?$basic_ostream@GU?$char_traits@G@std@@@std@@QAEAAV12@XZ 100510f8     msvcprtd:MSVCP71D.dll
 0002:000000fc       __imp_?fill@?$basic_ios@GU?$char_traits@G@std@@@std@@QBEGXZ 100510fc     msvcprtd:MSVCP71D.dll
 0002:00000100       __imp_?sputc@?$basic_streambuf@GU?$char_traits@G@std@@@std@@QAEGG@Z 10051100     msvcprtd:MSVCP71D.dll
 0002:00000104       __imp_??A?$basic_string@GU?$char_traits@G@std@@V?$allocator@G@2@@std@@QBEABGI@Z 10051104     msvcprtd:MSVCP71D.dll
 0002:00000108       __imp_?to_int_type@?$char_traits@G@std@@SAGABG@Z 10051108     msvcprtd:MSVCP71D.dll
 0002:0000010c       __imp_?sbumpc@?$basic_streambuf@GU?$char_traits@G@std@@@std@@QAEGXZ 1005110c     msvcprtd:MSVCP71D.dll
 0002:00000110       __imp_?size@?$basic_string@GU?$char_traits@G@std@@V?$allocator@G@2@@std@@QBEIXZ 10051110     msvcprtd:MSVCP71D.dll
 0002:00000114       __imp_?widen@?$basic_ios@GU?$char_traits@G@std@@@std@@QBEGD@Z 10051114     msvcprtd:MSVCP71D.dll
 0002:00000118       __imp_?id@?$ctype@G@std@@2V0locale@2@A 10051118     msvcprtd:MSVCP71D.dll
 0002:0000011c       __imp_?_Getcat@?$ctype@G@std@@SAIPAPBVfacet@locale@2@@Z 1005111c     msvcprtd:MSVCP71D.dll
 0002:00000120       __imp_?_Lock@?$basic_streambuf@GU?$char_traits@G@std@@@std@@QAEXXZ 10051120     msvcprtd:MSVCP71D.dll
 0002:00000124       __imp_?_Unlock@?$basic_streambuf@GU?$char_traits@G@std@@@std@@QAEXXZ 10051124     msvcprtd:MSVCP71D.dll
 0002:00000128       __imp_?_Ipfx@?$basic_istream@GU?$char_traits@G@std@@@std@@QAE_N_N@Z 10051128     msvcprtd:MSVCP71D.dll
 0002:0000012c       __imp_?npos@?$basic_string@GU?$char_traits@G@std@@V?$allocator@G@2@@std@@2IB 1005112c     msvcprtd:MSVCP71D.dll
 0002:00000130       __imp_?erase@?$basic_string@GU?$char_traits@G@std@@V?$allocator@G@2@@std@@QAEAAV12@II@Z 10051130     msvcprtd:MSVCP71D.dll
 0002:00000134       __imp_?max_size@?$basic_string@GU?$char_traits@G@std@@V?$allocator@G@2@@std@@QBEIXZ 10051134     msvcprtd:MSVCP71D.dll
 0002:00000138       __imp_?rdbuf@?$basic_ios@GU?$char_traits@G@std@@@std@@QBEPAV?$basic_streambuf@GU?$char_traits@G@std@@@2@XZ 10051138     msvcprtd:MSVCP71D.dll
 0002:0000013c       __imp_?sgetc@?$basic_streambuf@GU?$char_traits@G@std@@@std@@QAEGXZ 1005113c     msvcprtd:MSVCP71D.dll
 0002:00000140       __imp_?snextc@?$basic_streambuf@GU?$char_traits@G@std@@@std@@QAEGXZ 10051140     msvcprtd:MSVCP71D.dll
 0002:00000144       __imp_?eof@?$char_traits@G@std@@SAGXZ 10051144     msvcprtd:MSVCP71D.dll
 0002:00000148       __imp_?eq_int_type@?$char_traits@G@std@@SA_NABG0@Z 10051148     msvcprtd:MSVCP71D.dll
 0002:0000014c       __imp_?to_char_type@?$char_traits@G@std@@SAGABG@Z 1005114c     msvcprtd:MSVCP71D.dll
 0002:00000150       __imp_?is@?$ctype@G@std@@QBE_NFG@Z 10051150     msvcprtd:MSVCP71D.dll
 0002:00000154       __imp_?setstate@?$basic_ios@GU?$char_traits@G@std@@@std@@QAEXH_N@Z 10051154     msvcprtd:MSVCP71D.dll
 0002:00000158       __imp_?uncaught_exception@std@@YA_NXZ 10051158     msvcprtd:MSVCP71D.dll
 0002:0000015c       __imp_?_Osfx@?$basic_ostream@DU?$char_traits@D@std@@@std@@QAEXXZ 1005115c     msvcprtd:MSVCP71D.dll
 0002:00000160       __imp_?good@ios_base@std@@QBE_NXZ 10051160     msvcprtd:MSVCP71D.dll
 0002:00000164       __imp_?tie@?$basic_ios@DU?$char_traits@D@std@@@std@@QBEPAV?$basic_ostream@DU?$char_traits@D@std@@@2@XZ 10051164     msvcprtd:MSVCP71D.dll
 0002:00000168       __imp_?flush@?$basic_ostream@DU?$char_traits@D@std@@@std@@QAEAAV12@XZ 10051168     msvcprtd:MSVCP71D.dll
 0002:0000016c       __imp_?flags@ios_base@std@@QBEHXZ 1005116c     msvcprtd:MSVCP71D.dll
 0002:00000170       __imp_?fill@?$basic_ios@DU?$char_traits@D@std@@@std@@QBEDXZ 10051170     msvcprtd:MSVCP71D.dll
 0002:00000174       __imp_?sputc@?$basic_streambuf@DU?$char_traits@D@std@@@std@@QAEHD@Z 10051174     msvcprtd:MSVCP71D.dll
 0002:00000178       __imp_??A?$basic_string@DU?$char_traits@D@std@@V?$allocator@D@2@@std@@QBEABDI@Z 10051178     msvcprtd:MSVCP71D.dll
 0002:0000017c       __imp_?to_int_type@?$char_traits@D@std@@SAHABD@Z 1005117c     msvcprtd:MSVCP71D.dll
 0002:00000180       __imp_?sbumpc@?$basic_streambuf@DU?$char_traits@D@std@@@std@@QAEHXZ 10051180     msvcprtd:MSVCP71D.dll
 0002:00000184       __imp_?size@?$basic_string@DU?$char_traits@D@std@@V?$allocator@D@2@@std@@QBEIXZ 10051184     msvcprtd:MSVCP71D.dll
 0002:00000188       __imp_?widen@?$basic_ios@DU?$char_traits@D@std@@@std@@QBEDD@Z 10051188     msvcprtd:MSVCP71D.dll
 0002:0000018c       __imp_??0_Lockit@std@@QAE@H@Z 1005118c     msvcprtd:MSVCP71D.dll
 0002:00000190       __imp_?id@?$ctype@D@std@@2V0locale@2@A 10051190     msvcprtd:MSVCP71D.dll
 0002:00000194       __imp_??Bid@locale@std@@QAEIXZ 10051194     msvcprtd:MSVCP71D.dll
 0002:00000198       __imp_?_Getfacet@locale@std@@QBEPBVfacet@12@I@Z 10051198     msvcprtd:MSVCP71D.dll
 0002:0000019c       __imp_?_Getcat@?$ctype@D@std@@SAIPAPBVfacet@locale@2@@Z 1005119c     msvcprtd:MSVCP71D.dll
 0002:000001a0       __imp_?_Incref@facet@locale@std@@QAEXXZ 100511a0     msvcprtd:MSVCP71D.dll
 0002:000001a4       __imp_?_Register@facet@locale@std@@QAEXXZ 100511a4     msvcprtd:MSVCP71D.dll
 0002:000001a8       __imp_??1_Lockit@std@@QAE@XZ 100511a8     msvcprtd:MSVCP71D.dll
 0002:000001ac       __imp_?append@?$basic_string@GU?$char_traits@G@std@@V?$allocator@G@2@@std@@QAEAAV12@IG@Z 100511ac     msvcprtd:MSVCP71D.dll
 0002:000001b0       __imp_?_Lock@?$basic_streambuf@DU?$char_traits@D@std@@@std@@QAEXXZ 100511b0     msvcprtd:MSVCP71D.dll
 0002:000001b4       __imp_?_Unlock@?$basic_streambuf@DU?$char_traits@D@std@@@std@@QAEXXZ 100511b4     msvcprtd:MSVCP71D.dll
 0002:000001b8       __imp_?_Ipfx@?$basic_istream@DU?$char_traits@D@std@@@std@@QAE_N_N@Z 100511b8     msvcprtd:MSVCP71D.dll
 0002:000001bc       __imp_?getloc@ios_base@std@@QBE?AVlocale@2@XZ 100511bc     msvcprtd:MSVCP71D.dll
 0002:000001c0       __imp_??1locale@std@@QAE@XZ 100511c0     msvcprtd:MSVCP71D.dll
 0002:000001c4       __imp_?npos@?$basic_string@DU?$char_traits@D@std@@V?$allocator@D@2@@std@@2IB 100511c4     msvcprtd:MSVCP71D.dll
 0002:000001c8       __imp_?erase@?$basic_string@DU?$char_traits@D@std@@V?$allocator@D@2@@std@@QAEAAV12@II@Z 100511c8     msvcprtd:MSVCP71D.dll
 0002:000001cc       __imp_?width@ios_base@std@@QBEHXZ 100511cc     msvcprtd:MSVCP71D.dll
 0002:000001d0       __imp_?max_size@?$basic_string@DU?$char_traits@D@std@@V?$allocator@D@2@@std@@QBEIXZ 100511d0     msvcprtd:MSVCP71D.dll
 0002:000001d4       __imp_?rdbuf@?$basic_ios@DU?$char_traits@D@std@@@std@@QBEPAV?$basic_streambuf@DU?$char_traits@D@std@@@2@XZ 100511d4     msvcprtd:MSVCP71D.dll
 0002:000001d8       __imp_?sgetc@?$basic_streambuf@DU?$char_traits@D@std@@@std@@QAEHXZ 100511d8     msvcprtd:MSVCP71D.dll
 0002:000001dc       __imp_?snextc@?$basic_streambuf@DU?$char_traits@D@std@@@std@@QAEHXZ 100511dc     msvcprtd:MSVCP71D.dll
 0002:000001e0       __imp_?eof@?$char_traits@D@std@@SAHXZ 100511e0     msvcprtd:MSVCP71D.dll
 0002:000001e4       __imp_?eq_int_type@?$char_traits@D@std@@SA_NABH0@Z 100511e4     msvcprtd:MSVCP71D.dll
 0002:000001e8       __imp_?to_char_type@?$char_traits@D@std@@SADABH@Z 100511e8     msvcprtd:MSVCP71D.dll
 0002:000001ec       __imp_?is@?$ctype@D@std@@QBE_NFD@Z 100511ec     msvcprtd:MSVCP71D.dll
 0002:000001f0       __imp_?append@?$basic_string@DU?$char_traits@D@std@@V?$allocator@D@2@@std@@QAEAAV12@ID@Z 100511f0     msvcprtd:MSVCP71D.dll
 0002:000001f4       __imp_?setstate@?$basic_ios@DU?$char_traits@D@std@@@std@@QAEXH_N@Z 100511f4     msvcprtd:MSVCP71D.dll
 0002:000001f8       __imp_?width@ios_base@std@@QAEHH@Z 100511f8     msvcprtd:MSVCP71D.dll
 0002:000001fc       __imp_??Y?$basic_string@GU?$char_traits@G@std@@V?$allocator@G@2@@std@@QAEAAV01@G@Z 100511fc     msvcprtd:MSVCP71D.dll
 0002:00000200       __imp_??Y?$basic_string@GU?$char_traits@G@std@@V?$allocator@G@2@@std@@QAEAAV01@PBG@Z 10051200     msvcprtd:MSVCP71D.dll
 0002:00000204       __imp_??0?$basic_string@GU?$char_traits@G@std@@V?$allocator@G@2@@std@@QAE@IG@Z 10051204     msvcprtd:MSVCP71D.dll
 0002:00000208       __imp_??0?$basic_string@GU?$char_traits@G@std@@V?$allocator@G@2@@std@@QAE@PBG@Z 10051208     msvcprtd:MSVCP71D.dll
 0002:0000020c       __imp_??0?$basic_string@GU?$char_traits@G@std@@V?$allocator@G@2@@std@@QAE@ABV01@@Z 1005120c     msvcprtd:MSVCP71D.dll
 0002:00000210       __imp_??Y?$basic_string@GU?$char_traits@G@std@@V?$allocator@G@2@@std@@QAEAAV01@ABV01@@Z 10051210     msvcprtd:MSVCP71D.dll
 0002:00000214       __imp_??Y?$basic_string@DU?$char_traits@D@std@@V?$allocator@D@2@@std@@QAEAAV01@D@Z 10051214     msvcprtd:MSVCP71D.dll
 0002:00000218       __imp_??Y?$basic_string@DU?$char_traits@D@std@@V?$allocator@D@2@@std@@QAEAAV01@PBD@Z 10051218     msvcprtd:MSVCP71D.dll
 0002:0000021c       __imp_??0?$basic_string@DU?$char_traits@D@std@@V?$allocator@D@2@@std@@QAE@ID@Z 1005121c     msvcprtd:MSVCP71D.dll
 0002:00000220       __imp_??Y?$basic_string@DU?$char_traits@D@std@@V?$allocator@D@2@@std@@QAEAAV01@ABV01@@Z 10051220     msvcprtd:MSVCP71D.dll
 0002:00000224       __imp_?empty@?$basic_string@DU?$char_traits@D@std@@V?$allocator@D@2@@std@@QBE_NXZ 10051224     msvcprtd:MSVCP71D.dll
 0002:00000228       __imp_??1?$basic_string@GU?$char_traits@G@std@@V?$allocator@G@2@@std@@QAE@XZ 10051228     msvcprtd:MSVCP71D.dll
 0002:0000022c       __imp_??0?$basic_string@DU?$char_traits@D@std@@V?$allocator@D@2@@std@@QAE@XZ 1005122c     msvcprtd:MSVCP71D.dll
 0002:00000230       __imp_??0?$basic_string@GU?$char_traits@G@std@@V?$allocator@G@2@@std@@QAE@XZ 10051230     msvcprtd:MSVCP71D.dll
 0002:00000234       __imp_?empty@?$basic_string@GU?$char_traits@G@std@@V?$allocator@G@2@@std@@QBE_NXZ 10051234     msvcprtd:MSVCP71D.dll
 0002:00000238       __imp_?c_str@?$basic_string@GU?$char_traits@G@std@@V?$allocator@G@2@@std@@QBEPBGXZ 10051238     msvcprtd:MSVCP71D.dll
 0002:0000023c       __imp_?clear@?$basic_string@GU?$char_traits@G@std@@V?$allocator@G@2@@std@@QAEXXZ 1005123c     msvcprtd:MSVCP71D.dll
 0002:00000240       __imp_?clear@?$basic_string@DU?$char_traits@D@std@@V?$allocator@D@2@@std@@QAEXXZ 10051240     msvcprtd:MSVCP71D.dll
 0002:00000244       __imp_??4?$basic_string@DU?$char_traits@D@std@@V?$allocator@D@2@@std@@QAEAAV01@PBD@Z 10051244     msvcprtd:MSVCP71D.dll
 0002:00000248       __imp_??4?$basic_string@GU?$char_traits@G@std@@V?$allocator@G@2@@std@@QAEAAV01@PBG@Z 10051248     msvcprtd:MSVCP71D.dll
 0002:0000024c       __imp_?c_str@?$basic_string@DU?$char_traits@D@std@@V?$allocator@D@2@@std@@QBEPBDXZ 1005124c     msvcprtd:MSVCP71D.dll
 0002:00000250       __imp_??0?$basic_string@DU?$char_traits@D@std@@V?$allocator@D@2@@std@@QAE@ABV01@@Z 10051250     msvcprtd:MSVCP71D.dll
 0002:00000254       __imp_??0?$basic_string@DU?$char_traits@D@std@@V?$allocator@D@2@@std@@QAE@PBD@Z 10051254     msvcprtd:MSVCP71D.dll
 0002:00000258       __imp_??1?$basic_string@DU?$char_traits@D@std@@V?$allocator@D@2@@std@@QAE@XZ 10051258     msvcprtd:MSVCP71D.dll
 0002:0000025c       \177MSVCP71D_NULL_THUNK_DATA 1005125c     msvcprtd:MSVCP71D.dll
 0002:00000260       __imp____CppXcptFilter     10051260     MSVCRTD:MSVCR71D.dll
 0002:00000264       __imp___adjust_fdiv        10051264     MSVCRTD:MSVCR71D.dll
 0002:00000268       __imp___malloc_dbg         10051268     MSVCRTD:MSVCR71D.dll
 0002:0000026c       __imp___initterm           1005126c     MSVCRTD:MSVCR71D.dll
 0002:00000270       __imp___free_dbg           10051270     MSVCRTD:MSVCR71D.dll
 0002:00000274       __imp_?terminate@@YAXXZ    10051274     MSVCRTD:MSVCR71D.dll
 0002:00000278       __imp____security_error_handler 10051278     MSVCRTD:MSVCR71D.dll
 0002:0000027c       __imp___onexit             1005127c     MSVCRTD:MSVCR71D.dll
 0002:00000280       __imp____dllonexit         10051280     MSVCRTD:MSVCR71D.dll
 0002:00000284       __imp_??1type_info@@UAE@XZ 10051284     MSVCRTD:MSVCR71D.dll
 0002:00000288       __imp___CRT_RTC_INIT       10051288     MSVCRTD:MSVCR71D.dll
 0002:0000028c       __imp___except_handler3    1005128c     MSVCRTD:MSVCR71D.dll
 0002:00000290       __imp__strrchr             10051290     MSVCRTD:MSVCR71D.dll
 0002:00000294       __imp___strlwr             10051294     MSVCRTD:MSVCR71D.dll
 0002:00000298       __imp__realloc             10051298     MSVCRTD:MSVCR71D.dll
 0002:0000029c       __imp__strcmp              1005129c     MSVCRTD:MSVCR71D.dll
 0002:000002a0       __imp__malloc              100512a0     MSVCRTD:MSVCR71D.dll
 0002:000002a4       __imp__free                100512a4     MSVCRTD:MSVCR71D.dll
 0002:000002a8       __imp__strncpy             100512a8     MSVCRTD:MSVCR71D.dll
 0002:000002ac       __imp__fflush              100512ac     MSVCRTD:MSVCR71D.dll
 0002:000002b0       __imp___vsnwprintf         100512b0     MSVCRTD:MSVCR71D.dll
 0002:000002b4       __imp__wcsftime            100512b4     MSVCRTD:MSVCR71D.dll
 0002:000002b8       __imp__fwprintf            100512b8     MSVCRTD:MSVCR71D.dll
 0002:000002bc       __imp__time                100512bc     MSVCRTD:MSVCR71D.dll
 0002:000002c0       __imp__localtime           100512c0     MSVCRTD:MSVCR71D.dll
 0002:000002c4       __imp__strftime            100512c4     MSVCRTD:MSVCR71D.dll
 0002:000002c8       __imp__fprintf             100512c8     MSVCRTD:MSVCR71D.dll
 0002:000002cc       __imp__fclose              100512cc     MSVCRTD:MSVCR71D.dll
 0002:000002d0       __imp__fopen               100512d0     MSVCRTD:MSVCR71D.dll
 0002:000002d4       __imp__memmove             100512d4     MSVCRTD:MSVCR71D.dll
 0002:000002d8       __imp___strdup             100512d8     MSVCRTD:MSVCR71D.dll
 0002:000002dc       __imp__isspace             100512dc     MSVCRTD:MSVCR71D.dll
 0002:000002e0       __imp__strchr              100512e0     MSVCRTD:MSVCR71D.dll
 0002:000002e4       __imp_??0bad_cast@@QAE@PBD@Z 100512e4     MSVCRTD:MSVCR71D.dll
 0002:000002e8       __imp_??1bad_cast@@UAE@XZ  100512e8     MSVCRTD:MSVCR71D.dll
 0002:000002ec       __imp_??0bad_cast@@QAE@ABV0@@Z 100512ec     MSVCRTD:MSVCR71D.dll
 0002:000002f0       __imp__rename              100512f0     MSVCRTD:MSVCR71D.dll
 0002:000002f4       __imp___mkdir              100512f4     MSVCRTD:MSVCR71D.dll
 0002:000002f8       __imp___vsnprintf          100512f8     MSVCRTD:MSVCR71D.dll
 0002:000002fc       __imp__strcat              100512fc     MSVCRTD:MSVCR71D.dll
 0002:00000300       __imp___CrtDbgReport       10051300     MSVCRTD:MSVCR71D.dll
 0002:00000304       __imp___snprintf           10051304     MSVCRTD:MSVCR71D.dll
 0002:00000308       __imp__strtok              10051308     MSVCRTD:MSVCR71D.dll
 0002:0000030c       __imp__atof                1005130c     MSVCRTD:MSVCR71D.dll
 0002:00000310       __imp__atoi                10051310     MSVCRTD:MSVCR71D.dll
 0002:00000314       __imp___stricmp            10051314     MSVCRTD:MSVCR71D.dll
 0002:00000318       __imp__strcpy              10051318     MSVCRTD:MSVCR71D.dll
 0002:0000031c       __imp__memcpy              1005131c     MSVCRTD:MSVCR71D.dll
 0002:00000320       __imp_??_V@YAXPAX@Z        10051320     MSVCRTD:MSVCR71D.dll
 0002:00000324       __imp_??_U@YAPAXI@Z        10051324     MSVCRTD:MSVCR71D.dll
 0002:00000328       __imp__memset              10051328     MSVCRTD:MSVCR71D.dll
 0002:0000032c       __imp__wcslen              1005132c     MSVCRTD:MSVCR71D.dll
 0002:00000330       __imp___purecall           10051330     MSVCRTD:MSVCR71D.dll
 0002:00000334       __imp_??0exception@@QAE@XZ 10051334     MSVCRTD:MSVCR71D.dll
 0002:00000338       __imp_??1exception@@UAE@XZ 10051338     MSVCRTD:MSVCR71D.dll
 0002:0000033c       __imp___CxxThrowException@8 1005133c     MSVCRTD:MSVCR71D.dll
 0002:00000340       __imp_??0exception@@QAE@ABV0@@Z 10051340     MSVCRTD:MSVCR71D.dll
 0002:00000344       __imp_??2@YAPAXI@Z         10051344     MSVCRTD:MSVCR71D.dll
 0002:00000348       __imp_??3@YAXPAX@Z         10051348     MSVCRTD:MSVCR71D.dll
 0002:0000034c       __imp__sprintf             1005134c     MSVCRTD:MSVCR71D.dll
 0002:00000350       __imp__strlen              10051350     MSVCRTD:MSVCR71D.dll
 0002:00000354       __imp____CxxFrameHandler   10051354     MSVCRTD:MSVCR71D.dll
 0002:00000358       __imp___assert             10051358     MSVCRTD:MSVCR71D.dll
 0002:0000035c       __imp__sqrt                1005135c     MSVCRTD:MSVCR71D.dll
 0002:00000360       \177MSVCR71D_NULL_THUNK_DATA 10051360     MSVCRTD:MSVCR71D.dll
 0002:00000364       __imp__DispatchMessageA@4  10051364     user32:USER32.dll
 0002:00000368       __imp__EnableWindow@8      10051368     user32:USER32.dll
 0002:0000036c       __imp__wvsprintfA@12       1005136c     user32:USER32.dll
 0002:00000370       __imp__wsprintfA           10051370     user32:USER32.dll
 0002:00000374       __imp__GetForegroundWindow@0 10051374     user32:USER32.dll
 0002:00000378       __imp__GetWindowThreadProcessId@8 10051378     user32:USER32.dll
 0002:0000037c       __imp__AttachThreadInput@12 1005137c     user32:USER32.dll
 0002:00000380       __imp__SetForegroundWindow@4 10051380     user32:USER32.dll
 0002:00000384       __imp__GetWindowRect@8     10051384     user32:USER32.dll
 0002:00000388       __imp__DestroyWindow@4     10051388     user32:USER32.dll
 0002:0000038c       __imp__SetDlgItemTextA@12  1005138c     user32:USER32.dll
 0002:00000390       __imp__SendMessageA@16     10051390     user32:USER32.dll
 0002:00000394       __imp__CheckMenuItem@12    10051394     user32:USER32.dll
 0002:00000398       __imp__MessageBoxA@16      10051398     user32:USER32.dll
 0002:0000039c       __imp__EnableMenuItem@12   1005139c     user32:USER32.dll
 0002:000003a0       __imp__LoadAcceleratorsA@8 100513a0     user32:USER32.dll
 0002:000003a4       __imp__PeekMessageA@20     100513a4     user32:USER32.dll
 0002:000003a8       __imp__TranslateAcceleratorA@12 100513a8     user32:USER32.dll
 0002:000003ac       __imp__IsDialogMessageA@8  100513ac     user32:USER32.dll
 0002:000003b0       __imp__TranslateMessage@4  100513b0     user32:USER32.dll
 0002:000003b4       __imp__GetWindowTextLengthA@4 100513b4     user32:USER32.dll
 0002:000003b8       __imp__SetFocus@4          100513b8     user32:USER32.dll
 0002:000003bc       __imp__GetDlgItemTextA@16  100513bc     user32:USER32.dll
 0002:000003c0       __imp__CreateDialogParamA@20 100513c0     user32:USER32.dll
 0002:000003c4       __imp__GetMenu@4           100513c4     user32:USER32.dll
 0002:000003c8       __imp__ShowWindow@8        100513c8     user32:USER32.dll
 0002:000003cc       __imp__SetWindowTextA@8    100513cc     user32:USER32.dll
 0002:000003d0       __imp__GetDlgItem@8        100513d0     user32:USER32.dll
 0002:000003d4       __imp__SetDlgItemInt@16    100513d4     user32:USER32.dll
 0002:000003d8       __imp__SwitchToThisWindow@8 100513d8     user32:USER32.dll
 0002:000003dc       __imp__DialogBoxParamA@20  100513dc     user32:USER32.dll
 0002:000003e0       __imp__GetWindowTextA@12   100513e0     user32:USER32.dll
 0002:000003e4       __imp__GetWindowTextW@12   100513e4     user32:USER32.dll
 0002:000003e8       __imp__EndDialog@8         100513e8     user32:USER32.dll
 0002:000003ec       __imp__GetDlgItemInt@16    100513ec     user32:USER32.dll
 0002:000003f0       \177USER32_NULL_THUNK_DATA 100513f0     user32:USER32.dll
 0002:000003f4       __imp__GetFileVersionInfoA@16 100513f4     Engined:VERSION.dll
 0002:000003f8       __imp__VerQueryValueA@16   100513f8     Engined:VERSION.dll
 0002:000003fc       __imp__GetFileVersionInfoSizeA@8 100513fc     Engined:VERSION.dll
 0002:00000400       \177VERSION_NULL_THUNK_DATA 10051400     Engined:VERSION.dll
 0002:00000404       __imp__CoCreateInstance@20 10051404     ole32:ole32.dll
 0002:00000408       \177ole32_NULL_THUNK_DATA  10051408     ole32:ole32.dll
 0002:000004bc       ?m_Type@CNetMsg_PlayerDeath@@1FB 100514bc     AIManager.obj
 0002:000004c0       ?m_Type@CNetMsg_ScriptMsg@@1FB 100514c0     AIManager.obj
 0002:000004c4       ?m_Type@CNetMsg_GenericReaction@@1FB 100514c4     AIManager.obj
 0002:000004c8       ?kMaxMessages@MessageMgr@@1HB 100514c8     AIManager.obj
 0002:00000624       ?kGoalTextStatusBorder@ObjectivesOverlay@@1HB 10051624     Commands.obj
 0002:000008b4       ?kDefaultNumPingTries@IGSClient@@1HB 100518b4     Net.obj
 0002:00000e3c       ??_C@_0BE@JONHPENG@map?1set?$DMT?$DO?5too?5long?$AA@ 10051e3c     StoredProperty.obj
 0002:00000e50       ??_7length_error@std@@6B@  10051e50     StoredProperty.obj
 0002:00000e58       ??_7logic_error@std@@6B@   10051e58     StoredProperty.obj
 0002:00000e60       ??_C@_0BM@PAPJHAGI@invalid?5map?1set?$DMT?$DO?5iterator?$AA@ 10051e60     StoredProperty.obj
 0002:00000e7c       ??_7out_of_range@std@@6B@  10051e7c     StoredProperty.obj
 0002:000016dc       ??_7CDarkPeer@@6BIEventListener@@@ 100526dc     DarkPeer.obj
 0002:000016e0       ??_7CDarkPeer@@6BIDarkNet@@@ 100526e0     DarkPeer.obj
 0002:00001760       ??_7IDarkNet@@6B@          10052760     DarkPeer.obj
 0002:000017e0       ??_7IEventListener@@6B@    100527e0     DarkPeer.obj
 0002:000017e4       ??_C@_0BE@DLCMCDMB@m_CS?4LockCount?5?$DM?$DN?50?$AA@ 100527e4     DarkPeer.obj
 0002:000017f8       ??_C@_0DG@IHOPACKI@?4?4?2?4?4?2Common?2?4?4?2GlobalServer?2Sha@ 100527f8     DarkPeer.obj
 0002:000019b8       ??_7CDarkSessionManager@@6B@ 100529b8     DarkSessionManager.obj
 0002:00001ac0       ??_C@_0CC@LLHDBBPO@index?5?$DO?$DN?50?5?$CG?$CG?5index?5?$DM?5kMaxPlayer@ 10052ac0     PlayerDB.obj
 0002:00001ae4       ??_C@_0BG@POFJCHLA@?4?4?2include?2PlayerDB?4h?$AA@ 10052ae4     PlayerDB.obj
 0002:00001bb4       ??_7CNetMsg_GenericReaction@@6B@ 10052bb4     T2GenericReaction.obj
 0002:00001bc4       ??_7CMarshalled@@6B@       10052bc4     T2GenericReaction.obj
 0002:00001bdc       ??_7CNetMsg_PlayerDeath@@6B@ 10052bdc     T2PlayerDeath.obj
 0002:00001bfc       ??_7CNetMsg_ScriptMsg@@6B@ 10052bfc     T2ScriptMsg.obj
 0002:00001cd4       ?m_kMaxLines@HistoryManager@@1HB 10052cd4     ConnectDialog.obj
 0002:00001cd8       ??_7CEEditBox@EngCtrls@@6B@ 10052cd8     ConnectDialog.obj
 0002:00001ce4       ??_7CEControl@EngCtrls@@6B@ 10052ce4     ConnectDialog.obj
 0002:00001e14       ??_7CConsoleBase@@6B@      10052e14     ConsoleGUI.obj
 0002:00001e2c       ??_C@_00CNPNBAHC@?$AA@     10052e2c     ConsoleGUI.obj
 0002:00001e30       ??_7HistoryItem@@6B@       10052e30     ConsoleGUI.obj
 0002:00001e34       ??_C@_0BB@MOGOBHAF@list?$DMT?$DO?5too?5long?$AA@ 10052e34     ConsoleGUI.obj
 0002:00001fb4       ??_7InterfaceManager@@6B@  10052fb4     DarkWinGui.obj
 0002:00001fc8       ??_7IInterfaceManager@@6B@ 10052fc8     DarkWinGui.obj
 0002:00001fd8       ??_7CThiefConsole@@6B@     10052fd8     DarkWinGui.obj
 0002:00001ff0       ??_7CEListBox@EngCtrls@@6B@ 10052ff0     DarkWinGui.obj
 0002:00001ff8       ??_7CEComboBox@EngCtrls@@6B@ 10052ff8     DarkWinGui.obj
 0002:00002468       ??_7CEButton@EngCtrls@@6B@ 10053468     HostDialog.obj
 0002:0000292c       __real@3f800000            1005392c     Client.obj
 0002:00002930       __real@3ef0a3d7            10053930     Client.obj
 0002:00002934       __real@00000000            10053934     Client.obj
 0002:00002938       __real@bf800000            10053938     Client.obj
 0002:0000293c       __real@3d23d70a            1005393c     Client.obj
 0002:00002940       __real@3ca3d70a            10053940     Client.obj
 0002:00002944       ??_7CClient@@6B@           10053944     Client.obj
 0002:00003460       __real@42700000            10054460     ClientSynch.obj
 0002:00003810       ??_C@_0CI@OFBEMDBP@?4?4?2?4?4?2Common?2Engine?2inc?2ConfigMa@ 10054810     Config.obj
 0002:000044dc       __real@40000000            100554dc     DarkUIUtils.obj
 0002:000050b0       ??_7CDPWrapper@@6B@        100560b0     DP4Wrapper.obj
 0002:00005e68       ??_7CGamesysManager@@6B@   10056e68     Gamesys.obj
 0002:00005f58       __real@3dcccccd            10056f58     Ghost.obj
 0002:0000603c       __real@447a0000            1005703c     LG.obj
 0002:00006040       ??_7cAvatar@@6B@           10057040     LG.obj
 0002:00006058       ??_7IUnknownImpl@@6B@      10057058     LG.obj
 0002:00006098       _IID_IMalloc               10057098     Main.obj
 0002:000060a8       _IID_IUnknown              100570a8     Main.obj
 0002:000060b8       _IID_INet                  100570b8     Main.obj
 0002:000060c8       _IID_ISearchPath           100570c8     Main.obj
 0002:000060d8       _IID_IStoreManager         100570d8     Main.obj
 0002:000060e8       _IID_IStoreHierarchy       100570e8     Main.obj
 0002:000060f8       _IID_IStoreFactory         100570f8     Main.obj
 0002:00006108       _IID_IStoreStream          10057108     Main.obj
 0002:00006118       _IID_IStore                10057118     Main.obj
 0002:00006128       _IID_IStringRes            10057128     Main.obj
 0002:00006138       _IID_IDataSource           10057138     Main.obj
 0002:00006148       _IID_IResHack              10057148     Main.obj
 0002:00006158       _IID_IResControl           10057158     Main.obj
 0002:00006168       _IID_IResMem               10057168     Main.obj
 0002:00006178       _IID_IResStats             10057178     Main.obj
 0002:00006188       _IID_IResManHelper         10057188     Main.obj
 0002:00006198       _IID_IResMemOverride       10057198     Main.obj
 0002:000061a8       _IID_IResType              100571a8     Main.obj
 0002:000061b8       _IID_IRes                  100571b8     Main.obj
 0002:000061c8       _IID_IResMan               100571c8     Main.obj
 0002:000061d8       _IID_IInputBinder          100571d8     Main.obj
 0002:000061e8       _IID_IStructEditor         100571e8     Main.obj
 0002:000061f8       _IID_IStructDescTools      100571f8     Main.obj
 0002:00006208       _IID_ISndSource            10057208     Main.obj
 0002:00006218       _IID_INullScriptService    10057218     Main.obj
 0002:00006228       _IID_IScriptNet            10057228     Main.obj
 0002:00006238       _IID_IScriptModule         10057238     Main.obj
 0002:00006248       _IID_IScript               10057248     Main.obj
 0002:00006258       _IID_IScriptMan            10057258     Main.obj
 0002:00006268       _IID_ILGDD4Surface         10057268     Main.obj
 0002:00006278       _IID_ILGSurface            10057278     Main.obj
 0002:00006288       _IID_IPinInfo              10057288     Main.obj
 0002:00006298       _IID_IMediaTypeInfo        10057298     Main.obj
 0002:000062a8       _IID_IRegFilterInfo        100572a8     Main.obj
 0002:000062b8       _IID_IFilterInfo           100572b8     Main.obj
 0002:000062c8       _IID_IQueueCommand         100572c8     Main.obj
 0002:000062d8       _IID_IDeferredCommand      100572d8     Main.obj
 0002:000062e8       _IID_IBasicVideo           100572e8     Main.obj
 0002:000062f8       _IID_IVideoWindow          100572f8     Main.obj
 0002:00006308       _IID_IBasicAudio           10057308     Main.obj
 0002:00006318       _IID_IMediaPosition        10057318     Main.obj
 0002:00006328       _IID_IMediaEvent           10057328     Main.obj
 0002:00006338       _IID_IMediaControl         10057338     Main.obj
 0002:00006348       _IID_IAMCollection         10057348     Main.obj
 0002:00006358       _IID_IAMovie               10057358     Main.obj
 0002:00006368       _IID_IDistributorNotify    10057368     Main.obj
 0002:00006378       _IID_IResourceManager      10057378     Main.obj
 0002:00006388       _IID_IResourceConsumer     10057388     Main.obj
 0002:00006398       _IID_IGraphVersion         10057398     Main.obj
 0002:000063a8       _IID_IAsyncReader          100573a8     Main.obj
 0002:000063b8       _IID_IStreamBuilder        100573b8     Main.obj
 0002:000063c8       _IID_IGraphBuilder         100573c8     Main.obj
 0002:000063d8       _IID_IFileAsyncIO          100573d8     Main.obj
 0002:000063e8       _IID_IFileSinkFilter       100573e8     Main.obj
 0002:000063f8       _IID_IFileSourceFilter     100573f8     Main.obj
 0002:00006408       _IID_IMediaEventSink       10057408     Main.obj
 0002:00006418       _IID_IOverlay              10057418     Main.obj
 0002:00006428       _IID_IOverlayNotify        10057428     Main.obj
 0002:00006438       _IID_IQualityControl       10057438     Main.obj
 0002:00006448       _IID_IFilterMapper         10057448     Main.obj
 0002:00006458       _IID_IEnumRegFilters       10057458     Main.obj
 0002:00006468       _IID_IMediaSeeking         10057468     Main.obj
 0002:00006478       _IID_IMediaSelection       10057478     Main.obj
 0002:00006488       _IID_IAMovieSetup          10057488     Main.obj
 0002:00006498       _IID_IMemInputPin          10057498     Main.obj
 0002:000064a8       _IID_IMemAllocator         100574a8     Main.obj
 0002:000064b8       _IID_IMediaSample          100574b8     Main.obj
 0002:000064c8       _IID_IReferenceClock       100574c8     Main.obj
 0002:000064d8       _IID_IFilter               100574d8     Main.obj
 0002:000064e8       _IID_IMediaFilter          100574e8     Main.obj
 0002:000064f8       _IID_IEnumFilters          100574f8     Main.obj
 0002:00006508       _IID_IFilterGraph          10057508     Main.obj
 0002:00006518       _IID_IEnumMediaTypes       10057518     Main.obj
 0002:00006528       _IID_IEnumPins             10057528     Main.obj
 0002:00006538       _IID_IPin                  10057538     Main.obj
 0002:00006548       _IID_IFullScreenVideo      10057548     Main.obj
 0002:00006558       _IID_IQualProp             10057558     Main.obj
 0002:00006568       _IID_IDirectDrawVideo      10057568     Main.obj
 0002:00006578       _IID_IBaseVideoMixer       10057578     Main.obj
 0002:00006588       _IID_IImageExtern          10057588     Main.obj
 0002:00006598       _IID_IVideoRenderer        10057598     Main.obj
 0002:000065a8       _IID_IMidiSequence         100575a8     Main.obj
 0002:000065b8       _IID_IMidiSequencer        100575b8     Main.obj
 0002:000065c8       _IID_ISndMixer             100575c8     Main.obj
 0002:000065d8       _IID_ISndSample            100575d8     Main.obj
 0002:000065e8       _IID_IKsPropertySet        100575e8     Main.obj
 0002:000065f8       _IID_IDirectSoundNotify    100575f8     Main.obj
 0002:00006608       _IID_IDirectSoundCaptureBuffer 10057608     Main.obj
 0002:00006618       _IID_IDirectSoundCapture   10057618     Main.obj
 0002:00006628       _IID_IDirectSound3DBuffer  10057628     Main.obj
 0002:00006638       _IID_IDirectSound3DListener 10057638     Main.obj
 0002:00006648       _IID_IDirectSoundBuffer    10057648     Main.obj
 0002:00006658       _IID_IDirectSound          10057658     Main.obj
 0002:00006668       _IID_IDirect3DVertexBuffer 10057668     Main.obj
 0002:00006678       _IID_IDirect3DViewport3    10057678     Main.obj
 0002:00006688       _IID_IDirect3DViewport2    10057688     Main.obj
 0002:00006698       _IID_IDirect3DViewport     10057698     Main.obj
 0002:000066a8       _IID_IDirect3DExecuteBuffer 100576a8     Main.obj
 0002:000066b8       _IID_IDirect3DMaterial3    100576b8     Main.obj
 0002:000066c8       _IID_IDirect3DMaterial2    100576c8     Main.obj
 0002:000066d8       _IID_IDirect3DMaterial     100576d8     Main.obj
 0002:000066e8       _IID_IDirect3DLight        100576e8     Main.obj
 0002:000066f8       _IID_IDirect3DTexture2     100576f8     Main.obj
 0002:00006708       _IID_IDirect3DTexture      10057708     Main.obj
 0002:00006718       _IID_IDirect3DDevice3      10057718     Main.obj
 0002:00006728       _IID_IDirect3DDevice2      10057728     Main.obj
 0002:00006738       _IID_IDirect3DDevice       10057738     Main.obj
 0002:00006748       _IID_IDirect3DNullDevice   10057748     Main.obj
 0002:00006758       _IID_IDirect3DRefDevice    10057758     Main.obj
 0002:00006768       _IID_IDirect3DMMXDevice    10057768     Main.obj
 0002:00006778       _IID_IDirect3DHALDevice    10057778     Main.obj
 0002:00006788       _IID_IDirect3DRGBDevice    10057788     Main.obj
 0002:00006798       _IID_IDirect3DRampDevice   10057798     Main.obj
 0002:000067a8       _IID_IDirect3D3            100577a8     Main.obj
 0002:000067b8       _IID_IDirect3D2            100577b8     Main.obj
 0002:000067c8       _IID_IDirect3D             100577c8     Main.obj
 0002:000067d8       _IID_IDirectDrawGammaControl 100577d8     Main.obj
 0002:000067e8       _IID_IDirectDrawColorControl 100577e8     Main.obj
 0002:000067f8       _IID_IDirectDrawClipper    100577f8     Main.obj
 0002:00006808       _IID_IDirectDrawPalette    10057808     Main.obj
 0002:00006818       _IID_IDirectDrawSurface4   10057818     Main.obj
 0002:00006828       _IID_IDirectDrawSurface3   10057828     Main.obj
 0002:00006838       _IID_IDirectDrawSurface2   10057838     Main.obj
 0002:00006848       _IID_IDirectDrawSurface    10057848     Main.obj
 0002:00006858       _IID_IDirectDraw4          10057858     Main.obj
 0002:00006868       _IID_IDirectDraw2          10057868     Main.obj
 0002:00006878       _IID_IDirectDraw           10057878     Main.obj
 0002:00006888       _IID_IJoystick             10057888     Main.obj
 0002:00006898       _IID_IInputDevice          10057898     Main.obj
 0002:000068a8       _IID_IInputManager         100578a8     Main.obj
 0002:000068b8       _IID_IWinDisplayDevice     100578b8     Main.obj
 0002:000068c8       _IID_IWinShell             100578c8     Main.obj
 0002:000068d8       _IID_ISharedCache          100578d8     Main.obj
 0002:000068e8       _IID_ICache                100578e8     Main.obj
 0002:000068f8       _IID_IThreadManager        100578f8     Main.obj
 0002:00006908       _IID_IAsyncReadFulfiller   10057908     Main.obj
 0002:00006918       _IID_IAsyncStreamer        10057918     Main.obj
 0002:00006928       _IID_IAsyncReadControl     10057928     Main.obj
 0002:00006938       _IID_IAsyncReadQueue       10057938     Main.obj
 0002:00006948       _IID_IRecorder             10057948     Main.obj
 0002:00006958       _IID_IMoviePlayer1         10057958     Main.obj
 0002:00006968       _IID_ILoopDispatch         10057968     Main.obj
 0002:00006978       _IID_ILoopWatcher          10057978     Main.obj
 0002:00006988       _IID_ILoop                 10057988     Main.obj
 0002:00006998       _IID_ILoopManager          10057998     Main.obj
 0002:000069a8       _IID_ILoopMode             100579a8     Main.obj
 0002:000069b8       _IID_ILoopClientFactory    100579b8     Main.obj
 0002:000069c8       _IID_ILoopClient           100579c8     Main.obj
 0002:000069d8       _IID_IWinAppAdviseSink     100579d8     Main.obj
 0002:000069e8       _IID_IWinApp               100579e8     Main.obj
 0002:000069f8       _IID_IGameShellAdviseSink  100579f8     Main.obj
 0002:00006a08       _IID_IGameShell            10057a08     Main.obj
 0002:00006a18       _IID_IPrimaryInputDevicesSink 10057a18     Main.obj
 0002:00006a28       _IID_IInputDevices         10057a28     Main.obj
 0002:00006a38       _IID_IDeviceComposeBitmap  10057a38     Main.obj
 0002:00006a48       _IID_IDeviceBitmap         10057a48     Main.obj
 0002:00006a58       _IID_IDisplayDevice        10057a58     Main.obj
 0002:00006a68       _IID_IApplication          10057a68     Main.obj
 0002:00006a78       _IID_IAppAdviseSink        10057a78     Main.obj
 0002:00006a88       _IID_IInterfaceSet         10057a88     Main.obj
 0002:00006a98       _IID_IAggregateMemberControl 10057a98     Main.obj
 0002:00006aa8       _IID_IAggregate            10057aa8     Main.obj
 0002:00006ab8       _IID_IDebugMalloc          10057ab8     Main.obj
 0002:00006ac8       _IID_IWeaponScriptService  10057ac8     Main.obj
 0002:00006ad8       _IID_IPlayerLimbsScriptService 10057ad8     Main.obj
 0002:00006ae8       _IID_IPickLockScriptService 10057ae8     Main.obj
 0002:00006af8       _IID_ILootProperty         10057af8     Main.obj
 0002:00006b08       _IID_IDarkUIScriptService  10057b08     Main.obj
 0002:00006b18       _IID_IDarkGameScriptService 10057b18     Main.obj
 0002:00006b28       _IID_IDrkPowerupsScriptService 10057b28     Main.obj
 0002:00006b38       _IID_IDrkInvScriptService  10057b38     Main.obj
 0002:00006b48       _IID_IBreathProperty       10057b48     Main.obj
 0002:00006b58       _IID_IBowScriptService     10057b58     Main.obj
 0002:00006b68       _IID_IObjEditors           10057b68     Main.obj
 0002:00006b78       _IID_IObjEditor            10057b78     Main.obj
 0002:00006b88       _IID_IEditTrait            10057b88     Main.obj
 0002:00006b98       _IID_IPhysicsScriptService 10057b98     Main.obj
 0002:00006ba8       _IID_IDonorCache           10057ba8     Main.obj
 0002:00006bb8       _IID_IDonorQuery           10057bb8     Main.obj
 0002:00006bc8       _IID_ITraitManager         10057bc8     Main.obj
 0002:00006bd8       _IID_ITrait                10057bd8     Main.obj
 0002:00006be8       _IID_IObjectQuery          10057be8     Main.obj
 0002:00006bf8       _IID_ICannisterProperty    10057bf8     Main.obj
 0002:00006c08       _IID_IProjectileProperty   10057c08     Main.obj
 0002:00006c18       _IID_IGunKickProperty      10057c18     Main.obj
 0002:00006c28       _IID_IGunReliabilityProperty 10057c28     Main.obj
 0002:00006c38       _IID_IGunAnimProperty      10057c38     Main.obj
 0002:00006c48       _IID_IPlayerGunDescProperty 10057c48     Main.obj
 0002:00006c58       _IID_IAIGunDescProperty    10057c58     Main.obj
 0002:00006c68       _IID_IGunStateProperty     10057c68     Main.obj
 0002:00006c78       _IID_IBaseGunDescProperty  10057c78     Main.obj
 0002:00006c88       _IID_ISuspiciousProperty   10057c88     Main.obj
 0002:00006c98       _IID_IMotPlayerLimbOffsetsProperty 10057c98     Main.obj
 0002:00006ca8       _IID_IMotActorTagListProperty 10057ca8     Main.obj
 0002:00006cb8       _IID_IMotGaitDescProperty  10057cb8     Main.obj
 0002:00006cc8       _IID_IMotPhysLimitsProperty 10057cc8     Main.obj
 0002:00006cd8       _IID_IAltLinkProperty      10057cd8     Main.obj
 0002:00006ce8       _IID_IBeltLinkProperty     10057ce8     Main.obj
 0002:00006cf8       _IID_IAdvPickStateCfgProperty 10057cf8     Main.obj
 0002:00006d08       _IID_IAdvPickSoundCfgProperty 10057d08     Main.obj
 0002:00006d18       _IID_IAdvPickTransCfgProperty 10057d18     Main.obj
 0002:00006d28       _IID_IPickStateProperty    10057d28     Main.obj
 0002:00006d38       _IID_IPickCfgProperty      10057d38     Main.obj
 0002:00006d48       _IID_IPuppetProperty       10057d48     Main.obj
 0002:00006d58       _IID_IKeyInfoProperty      10057d58     Main.obj
 0002:00006d68       _IID_IScriptProperty       10057d68     Main.obj
 0002:00006d78       _IID_IBitmapWorldspaceProperty 10057d78     Main.obj
 0002:00006d88       _IID_IJointPosProperty     10057d88     Main.obj
 0002:00006d98       _IID_ITweqLockStateProperty 10057d98     Main.obj
 0002:00006da8       _IID_ITweqLockProperty     10057da8     Main.obj
 0002:00006db8       _IID_ITweqEmitterProperty  10057db8     Main.obj
 0002:00006dc8       _IID_ITweqModelsProperty   10057dc8     Main.obj
 0002:00006dd8       _IID_ITweqJointsStateProperty 10057dd8     Main.obj
 0002:00006de8       _IID_ITweqJointsProperty   10057de8     Main.obj
 0002:00006df8       _IID_ITweqVectorStateProperty 10057df8     Main.obj
 0002:00006e08       _IID_ITweqVectorProperty   10057e08     Main.obj
 0002:00006e18       _IID_ITweqSimpleStateProperty 10057e18     Main.obj
 0002:00006e28       _IID_ITweqSimpleProperty   10057e28     Main.obj
 0002:00006e38       _IID_IRoomGravityProperty  10057e38     Main.obj
 0002:00006e48       _IID_IRoomScriptProperty   10057e48     Main.obj
 0002:00006e58       _IID_IAutomapProperty      10057e58     Main.obj
 0002:00006e68       _IID_IAmbientProperty      10057e68     Main.obj
 0002:00006e78       _IID_IAcousticsProperty    10057e78     Main.obj
 0002:00006e88       _IID_IAnimLightProperty    10057e88     Main.obj
 0002:00006e98       _IID_ILightProperty        10057e98     Main.obj
 0002:00006ea8       _IID_IColorProperty        10057ea8     Main.obj
 0002:00006eb8       _IID_IRendFlashProperty    10057eb8     Main.obj
 0002:00006ec8       _IID_IFrameAnimationConfigProperty 10057ec8     Main.obj
 0002:00006ed8       _IID_IFrameAnimationStateProperty 10057ed8     Main.obj
 0002:00006ee8       _IID_IPGroupLaunchInfoProperty 10057ee8     Main.obj
 0002:00006ef8       _IID_IParticleGroupProperty 10057ef8     Main.obj
 0002:00006f08       _IID_IExtraLightProperty   10057f08     Main.obj
 0002:00006f18       _IID_IMeshAttachProperty   10057f18     Main.obj
 0002:00006f28       _IID_ISparkProperty        10057f28     Main.obj
 0002:00006f38       _IID_IHeatDiskProperty     10057f38     Main.obj
 0002:00006f48       _IID_IFrobInfoProperty     10057f48     Main.obj
 0002:00006f58       _IID_IBashParamsProperty   10057f58     Main.obj
 0002:00006f68       _IID_ITransDoorProperty    10057f68     Main.obj
 0002:00006f78       _IID_IRotDoorProperty      10057f78     Main.obj
 0002:00006f88       _IID_IMovingTerrainProperty 10057f88     Main.obj
 0002:00006f98       _IID_IPhysPPlateProperty   10057f98     Main.obj
 0002:00006fa8       _IID_IPhysExplodeProperty  10057fa8     Main.obj
 0002:00006fb8       _IID_IPhysRopeProperty     10057fb8     Main.obj
 0002:00006fc8       _IID_IPhysDimsProperty     10057fc8     Main.obj
 0002:00006fd8       _IID_IPhysControlProperty  10057fd8     Main.obj
 0002:00006fe8       _IID_IPhysStateProperty    10057fe8     Main.obj
 0002:00006ff8       _IID_IPhysAttrProperty     10057ff8     Main.obj
 0002:00007008       _IID_IPhysTypeProperty     10058008     Main.obj
 0002:00007018       _IID_IAmbientSoundProperty 10058018     Main.obj
 0002:00007028       _IID_ISpeechProperty       10058028     Main.obj
 0002:00007038       _IID_ISchemaTagConstraintProperty 10058038     Main.obj
 0002:00007048       _IID_ISchemaLoopParamsProperty 10058048     Main.obj
 0002:00007058       _IID_ISchemaPlayParamsProperty 10058058     Main.obj
 0002:00007068       _IID_IRangedCombatProperty 10058068     Main.obj
 0002:00007078       _IID_IAngleLimitProperty   10058078     Main.obj
 0002:00007088       _IID_ICoverPtProperty      10058088     Main.obj
 0002:00007098       _IID_IVantagePtProperty    10058098     Main.obj
 0002:000070a8       _IID_IAIReservedProperty   100580a8     Main.obj
 0002:000070b8       _IID_IAIProperty           100580b8     Main.obj
 0002:000070c8       _IID_IScaleProperty        100580c8     Main.obj
 0002:000070d8       _IID_ICreaturePoseProperty 100580d8     Main.obj
 0002:000070e8       _IID_ICreatureProperty     100580e8     Main.obj
 0002:000070f8       _IID_IBipedModelProperty   100580f8     Main.obj
 0002:00007108       _IID_IBipedProperty        10058108     Main.obj
 0002:00007118       _IID_IBipedLengthsProperty 10058118     Main.obj
 0002:00007128       _IID_IGlobalIDProperty     10058128     Main.obj
 0002:00007138       _IID_IBrushProperty        10058138     Main.obj
 0002:00007148       _IID_IInvStringProperty    10058148     Main.obj
 0002:00007158       _IID_IStringProperty       10058158     Main.obj
 0002:00007168       _IID_IFloatProperty        10058168     Main.obj
 0002:00007178       _IID_ILabelProperty        10058178     Main.obj
 0002:00007188       _IID_IIntProperty          10058188     Main.obj
 0002:00007198       _IID_IVectorProperty       10058198     Main.obj
 0002:000071a8       _IID_IBoolProperty         100581a8     Main.obj
 0002:000071b8       _IID_IPropertyNetworking   100581b8     Main.obj
 0002:000071c8       _IID_IPropertyStats        100581c8     Main.obj
 0002:000071d8       _IID_IObjIDSink            100581d8     Main.obj
 0002:000071e8       _IID_IObjIDManager         100581e8     Main.obj
 0002:000071f8       _IID_IObjectNetworking     100581f8     Main.obj
 0002:00007208       _IID_IObjectSystem         10058208     Main.obj
 0002:00007218       _IID_IPropertyStore        10058218     Main.obj
 0002:00007228       _IID_IPropertyManager      10058228     Main.obj
 0002:00007238       _IID_IProperty             10058238     Main.obj
 0002:00007248       _IID_ILinkDataStore        10058248     Main.obj
 0002:00007258       _IID_ILinkStore            10058258     Main.obj
 0002:00007268       _IID_ILinkQueryDatabase    10058268     Main.obj
 0002:00007278       _IID_ILinkManagerInternal  10058278     Main.obj
 0002:00007288       _IID_IRelation             10058288     Main.obj
 0002:00007298       _IID_ILinkQuery            10058298     Main.obj
 0002:000072a8       _IID_ILinkManager          100582a8     Main.obj
 0002:000072b8       _IID_IDataOpsMemFile       100582b8     Main.obj
 0002:000072c8       _IID_IDataOpsFile          100582c8     Main.obj
 0002:000072d8       _IID_IDataOps              100582d8     Main.obj
 0002:000072e8       _IID_IActReactEditors      100582e8     Main.obj
 0002:000072f8       _IID_IReactionQuery        100582f8     Main.obj
 0002:00007308       _IID_IStimulator           10058308     Main.obj
 0002:00007318       _IID_IReactions            10058318     Main.obj
 0002:00007328       _IID_IPropagation          10058328     Main.obj
 0002:00007338       _IID_IPropagatorQuery      10058338     Main.obj
 0002:00007348       _IID_IPropagator           10058348     Main.obj
 0002:00007358       _IID_IStimuli              10058358     Main.obj
 0002:00007368       _IID_IStimSensorQuery      10058368     Main.obj
 0002:00007378       _IID_IReceptronQuery       10058378     Main.obj
 0002:00007388       _IID_IStimSourceQuery      10058388     Main.obj
 0002:00007398       _IID_IStimSources          10058398     Main.obj
 0002:000073a8       _IID_IStimSensors          100583a8     Main.obj
 0002:000073b8       _IID_IPeriodicPropagator   100583b8     Main.obj
 0002:000073c8       _IID_ISoundScriptService   100583c8     Main.obj
 0002:000073d8       _IID_IQuestScriptService   100583d8     Main.obj
 0002:000073e8       _IID_IPuppetScriptService  100583e8     Main.obj
 0002:000073f8       _IID_IPropertyScriptService 100583f8     Main.obj
 0002:00007408       _IID_IObjectScriptService  10058408     Main.obj
 0002:00007418       _IID_INetworkingScriptService 10058418     Main.obj
 0002:00007428       _IID_ILightScriptService   10058428     Main.obj
 0002:00007438       _IID_ILinkToolsScriptService 10058438     Main.obj
 0002:00007448       _IID_ILinkScriptService    10058448     Main.obj
 0002:00007458       _IID_IDebugScriptService   10058458     Main.obj
 0002:00007468       _IID_IDoorScriptService    10058468     Main.obj
 0002:00007478       _IID_IDamageScriptService  10058478     Main.obj
 0002:00007488       _IID_IDataScriptService    10058488     Main.obj
 0002:00007498       _IID_ICameraScriptService  10058498     Main.obj
 0002:000074a8       _IID_IActReactScriptService 100584a8     Main.obj
 0002:000074b8       _IID_IAnimTextureScriptService 100584b8     Main.obj
 0002:000074c8       _IID_IWeaponOffsetProperty 100584c8     Main.obj
 0002:000074d8       _IID_IVoiceOverSys         100584d8     Main.obj
 0002:000074e8       _IID_ILockedScriptService  100584e8     Main.obj
 0002:000074f8       _IID_IKeySys               100584f8     Main.obj
 0002:00007508       _IID_IKeyScriptService     10058508     Main.obj
 0002:00007518       _IID_IInvRenderProperty    10058518     Main.obj
 0002:00007528       _IID_IDynTexture           10058528     Main.obj
 0002:00007538       _IID_IContainerScriptService 10058538     Main.obj
 0002:00007548       _IID_IContainSys           10058548     Main.obj
 0002:00007558       _IID_ICDPlayer             10058558     Main.obj
 0002:00007568       _IID_IAIScriptService      10058568     Main.obj
 0002:00007578       _IID_IWeatherProperty      10058578     Main.obj
 0002:00007588       _IID_IAnimTexProperty      10058588     Main.obj
 0002:00007598       _IID_ISongPlayer           10058598     Main.obj
 0002:000075a8       _IID_ISongGoto             100585a8     Main.obj
 0002:000075b8       _IID_ISongEvent            100585b8     Main.obj
 0002:000075c8       _IID_ISongSample           100585c8     Main.obj
 0002:000075d8       _IID_ISongSection          100585d8     Main.obj
 0002:000075e8       _IID_ISong                 100585e8     Main.obj
 0002:000075f8       _IID_ISimManager           100585f8     Main.obj
 0002:00007608       _IID_IQuestVarProperty     10058608     Main.obj
 0002:00007618       _IID_IQuestDataIter        10058618     Main.obj
 0002:00007628       _IID_IQuestData            10058628     Main.obj
 0002:00007638       _IID_IPGroupScriptService  10058638     Main.obj
 0002:00007648       _IID_IPanelMode            10058648     Main.obj
 0002:00007658       _IID_IPositionProperty     10058658     Main.obj
 0002:00007668       _IID_IMeshTexProperty      10058668     Main.obj
 0002:00007678       _IID_IWaterColorProperty   10058678     Main.obj
 0002:00007688       _IID_IGameTools            10058688     Main.obj
 0002:00007698       _IID_IGameStrings          10058698     Main.obj
 0002:000076a8       _IID_IFlowGroupProperty    100586a8     Main.obj
 0002:000076b8       _IID_IFaceStateProperty    100586b8     Main.obj
 0002:000076c8       _IID_IFaceProperty         100586c8     Main.obj
 0002:000076d8       _IID_IESndTagProperty      100586d8     Main.obj
 0002:000076e8       _IID_IEditTools            100586e8     Main.obj
 0002:000076f8       _IID_IDamageModel          100586f8     Main.obj
 0002:00007708       _IID_ICoronaProperty       10058708     Main.obj
 0002:00007718       _IID_ICampaign             10058718     Main.obj
 0002:00007728       _IID_IInventory            10058728     Main.obj
 0002:00007738       _IID_IMessageDispatch      10058738     Main.obj
 0002:00007748       _IID_INetAppServices       10058748     Main.obj
 0002:00007758       _IID_IHeartbeatListProperty 10058758     Main.obj
 0002:00007768       _IID_INetStats             10058768     Main.obj
 0002:00007778       _IID_IAvatar               10058778     Main.obj
 0002:00007788       _IID_INetPlayerProperty    10058788     Main.obj
 0002:00007798       _IID_IHostObjIDProperty    10058798     Main.obj
 0002:000077a8       _IID_INetManager           100587a8     Main.obj
 0002:000077b8       _IID_ITagFileIter          100587b8     Main.obj
 0002:000077c8       _IID_ITagFile              100587c8     Main.obj
 0002:000077d8       _IID_IAISuspiciousResponseProperty 100587d8     Main.obj
 0002:000077e8       _IID_IAIFrustratedProperty 100587e8     Main.obj
 0002:000077f8       _IID_IAINetServices        100587f8     Main.obj
 0002:00007808       _IID_IAINetManager         10058808     Main.obj
 0002:00007818       _IID_IAICombatTimingProperty 10058818     Main.obj
 0002:00007828       _IID_IAIRangedWoundSoundProperty 10058828     Main.obj
 0002:00007838       _IID_IAIRangedShootProperty 10058838     Main.obj
 0002:00007848       _IID_IAIRangedApplicabilitiesProperty 10058848     Main.obj
 0002:00007858       _IID_IAIRangedFleeProperty 10058858     Main.obj
 0002:00007868       _IID_IAIRangedWoundProperty 10058868     Main.obj
 0002:00007878       _IID_IAIRangedRangesProperty 10058878     Main.obj
 0002:00007888       _IID_IAIActor              10058888     Main.obj
 0002:00007898       _IID_IAISubability         10058898     Main.obj
 0002:000078a8       _IID_IAINonCombatDmgRespProperty 100588a8     Main.obj
 0002:000078b8       _IID_IAIBodyResponseProperty 100588b8     Main.obj
 0002:000078c8       _IID_IAIPathQuery          100588c8     Main.obj
 0002:000078d8       _IID_IAIAwareDelayProperty 100588d8     Main.obj
 0002:000078e8       _IID_IAIAlertSenseMultsProperty 100588e8     Main.obj
 0002:000078f8       _IID_IAIAppServices        100588f8     Main.obj
 0002:00007908       _IID_IAIPathfindControl    10058908     Main.obj
 0002:00007918       _IID_IAIPath               10058918     Main.obj
 0002:00007928       _IID_IAIPathfinder         10058928     Main.obj
 0002:00007938       _IID_IAIFrozenProperty     10058938     Main.obj
 0002:00007948       _IID_IAIIdleOriginProperty 10058948     Main.obj
 0002:00007958       _IID_IAIInformResponseProperty 10058958     Main.obj
 0002:00007968       _IID_IAIInform             10058968     Main.obj
 0002:00007978       _IID_IAISenseCombatResponseProperty 10058978     Main.obj
 0002:00007988       _IID_IAIConverse           10058988     Main.obj
 0002:00007998       _IID_IAIConversationManager 10058998     Main.obj
 0002:000079a8       _IID_IAIConversation       100589a8     Main.obj
 0002:000079b8       _IID_IAIConversationProperty 100589b8     Main.obj
 0002:000079c8       _IID_IAIObjectAvoidProperty 100589c8     Main.obj
 0002:000079d8       _IID_IAIVisibilityModProperty 100589d8     Main.obj
 0002:000079e8       _IID_IAIAlertResponseProperty 100589e8     Main.obj
 0002:000079f8       _IID_IAIThreatResponseProperty 100589f8     Main.obj
 0002:00007a08       _IID_IAISignalResponseProperty 10058a08     Main.obj
 0002:00007a18       _IID_IAICameraProperty     10058a18     Main.obj
 0002:00007a28       _IID_IAITurretProperty     10058a28     Main.obj
 0002:00007a38       _IID_IAIDeviceProperty     10058a38     Main.obj
 0002:00007a48       _IID_IAIAlertCapProperty   10058a48     Main.obj
 0002:00007a58       _IID_IAIBroadcastProperty  10058a58     Main.obj
 0002:00007a68       _IID_IAIIdleDirsProperty   10058a68     Main.obj
 0002:00007a78       _IID_IAIWatchPointProperty 10058a78     Main.obj
 0002:00007a88       _IID_IAINonHostilityProperty 10058a88     Main.obj
 0002:00007a98       _IID_IAIInvestKindProperty 10058a98     Main.obj
 0002:00007aa8       _IID_IAIFleeConditionsProperty 10058aa8     Main.obj
 0002:00007ab8       _IID_IAIAwareCapProperty   10058ab8     Main.obj
 0002:00007ac8       _IID_IAIVisCtrlProperty    10058ac8     Main.obj
 0002:00007ad8       _IID_IAIVisionDescProperty 10058ad8     Main.obj
 0002:00007ae8       _IID_IAIModeProperty       10058ae8     Main.obj
 0002:00007af8       _IID_IAIVisibilityProperty 10058af8     Main.obj
 0002:00007b08       _IID_IAIAlertnessProperty  10058b08     Main.obj
 0002:00007b18       _IID_IAISoundTypeProperty  10058b18     Main.obj
 0002:00007b28       _IID_IAIRatingProperty     10058b28     Main.obj
 0002:00007b38       _IID_IAIEfficiencyProperty 10058b38     Main.obj
 0002:00007b48       _IID_IAIBehaviorSet        10058b48     Main.obj
 0002:00007b58       _IID_IAISoundEnactor       10058b58     Main.obj
 0002:00007b68       _IID_IAIAction             10058b68     Main.obj
 0002:00007b78       _IID_IAIAbility            10058b78     Main.obj
 0002:00007b88       _IID_IAIComponent          10058b88     Main.obj
 0002:00007b98       _IID_IAIMoveEnactor        10058b98     Main.obj
 0002:00007ba8       _IID_IAIMoveRegulator      10058ba8     Main.obj
 0002:00007bb8       _IID_IAISenses             10058bb8     Main.obj
 0002:00007bc8       _IID_IInternalAI           10058bc8     Main.obj
 0002:00007bd8       _IID_IAI                   10058bd8     Main.obj
 0002:00007be8       _IID_IAIManager            10058be8     Main.obj
 0002:00007c3c       ??_7Message@@6B@           10058c3c     MessageManager.obj
 0002:00007c40       ??_7MessageMgr@@6B@        10058c40     MessageManager.obj
 0002:00007c44       __real@41200000            10058c44     MessageManager.obj
 0002:00007c48       __real@3f666666            10058c48     MessageManager.obj
 0002:00007c4c       __real@3edc28f6            10058c4c     MessageManager.obj
 0002:00007c50       __real@3e2e147b            10058c50     MessageManager.obj
 0002:00007c54       __real@3ee66666            10058c54     MessageManager.obj
 0002:00007c58       __real@3cf5c28f            10058c58     MessageManager.obj
 0002:00007cb8       ??_7cMultiUI@@6B@          10058cb8     MultiUI.obj
 0002:00007ce4       ??_7cDarkPanel@@6B@        10058ce4     MultiUI.obj
 0002:00007d10       ??_C@_06CHDIMBDP@cursor?$AA@ 10058d10     MultiUI.obj
 0002:00007d18       ??_C@_08LFGJMOMF@intrface?$AA@ 10058d18     MultiUI.obj
 0002:000081ac       ??_7SaveManager@@6B@       100591ac     SaveManager.obj
 0002:00008364       ?kMaxFormatStringSize@NString@@1HB 10059364     stdafx.obj
 0002:00008368       ?end@?$_Iosb@H@std@@2W4_Seekdir@12@B 10059368     stdafx.obj
 0002:0000836c       ?cur@?$_Iosb@H@std@@2W4_Seekdir@12@B 1005936c     stdafx.obj
 0002:00008370       ?beg@?$_Iosb@H@std@@2W4_Seekdir@12@B 10059370     stdafx.obj
 0002:00008374       ?binary@?$_Iosb@H@std@@2W4_Openmode@12@B 10059374     stdafx.obj
 0002:00008378       ?_Noreplace@?$_Iosb@H@std@@2W4_Openmode@12@B 10059378     stdafx.obj
 0002:0000837c       ?_Nocreate@?$_Iosb@H@std@@2W4_Openmode@12@B 1005937c     stdafx.obj
 0002:00008380       ?trunc@?$_Iosb@H@std@@2W4_Openmode@12@B 10059380     stdafx.obj
 0002:00008384       ?app@?$_Iosb@H@std@@2W4_Openmode@12@B 10059384     stdafx.obj
 0002:00008388       ?ate@?$_Iosb@H@std@@2W4_Openmode@12@B 10059388     stdafx.obj
 0002:0000838c       ?out@?$_Iosb@H@std@@2W4_Openmode@12@B 1005938c     stdafx.obj
 0002:00008390       ?in@?$_Iosb@H@std@@2W4_Openmode@12@B 10059390     stdafx.obj
 0002:00008394       ?_Hardfail@?$_Iosb@H@std@@2W4_Iostate@12@B 10059394     stdafx.obj
 0002:00008398       ?badbit@?$_Iosb@H@std@@2W4_Iostate@12@B 10059398     stdafx.obj
 0002:0000839c       ?failbit@?$_Iosb@H@std@@2W4_Iostate@12@B 1005939c     stdafx.obj
 0002:000083a0       ?eofbit@?$_Iosb@H@std@@2W4_Iostate@12@B 100593a0     stdafx.obj
 0002:000083a4       ?goodbit@?$_Iosb@H@std@@2W4_Iostate@12@B 100593a4     stdafx.obj
 0002:000083a8       ?floatfield@?$_Iosb@H@std@@2W4_Fmtflags@12@B 100593a8     stdafx.obj
 0002:000083ac       ?basefield@?$_Iosb@H@std@@2W4_Fmtflags@12@B 100593ac     stdafx.obj
 0002:000083b0       ?adjustfield@?$_Iosb@H@std@@2W4_Fmtflags@12@B 100593b0     stdafx.obj
 0002:000083b4       ?_Stdio@?$_Iosb@H@std@@2W4_Fmtflags@12@B 100593b4     stdafx.obj
 0002:000083b8       ?boolalpha@?$_Iosb@H@std@@2W4_Fmtflags@12@B 100593b8     stdafx.obj
 0002:000083bc       ?fixed@?$_Iosb@H@std@@2W4_Fmtflags@12@B 100593bc     stdafx.obj
 0002:000083c0       ?scientific@?$_Iosb@H@std@@2W4_Fmtflags@12@B 100593c0     stdafx.obj
 0002:000083c4       ?hex@?$_Iosb@H@std@@2W4_Fmtflags@12@B 100593c4     stdafx.obj
 0002:000083c8       ?oct@?$_Iosb@H@std@@2W4_Fmtflags@12@B 100593c8     stdafx.obj
 0002:000083cc       ?dec@?$_Iosb@H@std@@2W4_Fmtflags@12@B 100593cc     stdafx.obj
 0002:000083d0       ?internal@?$_Iosb@H@std@@2W4_Fmtflags@12@B 100593d0     stdafx.obj
 0002:000083d4       ?right@?$_Iosb@H@std@@2W4_Fmtflags@12@B 100593d4     stdafx.obj
 0002:000083d8       ?left@?$_Iosb@H@std@@2W4_Fmtflags@12@B 100593d8     stdafx.obj
 0002:000083dc       ?showpos@?$_Iosb@H@std@@2W4_Fmtflags@12@B 100593dc     stdafx.obj
 0002:000083e0       ?showpoint@?$_Iosb@H@std@@2W4_Fmtflags@12@B 100593e0     stdafx.obj
 0002:000083e4       ?showbase@?$_Iosb@H@std@@2W4_Fmtflags@12@B 100593e4     stdafx.obj
 0002:000083e8       ?uppercase@?$_Iosb@H@std@@2W4_Fmtflags@12@B 100593e8     stdafx.obj
 0002:000083ec       ?unitbuf@?$_Iosb@H@std@@2W4_Fmtflags@12@B 100593ec     stdafx.obj
 0002:000083f0       ?skipws@?$_Iosb@H@std@@2W4_Fmtflags@12@B 100593f0     stdafx.obj
 0002:000083f4       ?none@?$_Locbase@H@std@@2HB 100593f4     stdafx.obj
 0002:000083f8       ?all@?$_Locbase@H@std@@2HB 100593f8     stdafx.obj
 0002:000083fc       ?messages@?$_Locbase@H@std@@2HB 100593fc     stdafx.obj
 0002:00008400       ?time@?$_Locbase@H@std@@2HB 10059400     stdafx.obj
 0002:00008404       ?numeric@?$_Locbase@H@std@@2HB 10059404     stdafx.obj
 0002:00008408       ?monetary@?$_Locbase@H@std@@2HB 10059408     stdafx.obj
 0002:0000840c       ?ctype@?$_Locbase@H@std@@2HB 1005940c     stdafx.obj
 0002:00008410       ?collate@?$_Locbase@H@std@@2HB 10059410     stdafx.obj
 0002:00008414       ??_C@_08EPJLHIJG@bad?5cast?$AA@ 10059414     stdafx.obj
 0002:00008c80       ??_7CServerBrowser@@6B@    10059c80     ServerBrowser.obj
 0002:00008c94       ??_7CServerList@@6B@       10059c94     ServerBrowser.obj
 0002:00008c98       ??_7CEListView@EngCtrls@@6B@ 10059c98     ServerBrowser.obj
 0002:00008ca0       ??_7IGSBrowser@@6B@        10059ca0     ServerBrowser.obj
 0002:00008d9c       ??_7CServerListEntry@@6B@  10059d9c     ServerList.obj
 0002:00008da0       __real@3de56042            10059da0     ServerList.obj
 0002:00008da4       __real@3e0a3d71            10059da4     ServerList.obj
 0002:00008da8       __real@3d8f5c29            10059da8     ServerList.obj
 0002:00008dac       __real@3e851eb8            10059dac     ServerList.obj
 0002:00008db0       __real@3e800000            10059db0     ServerList.obj
 0002:00009148       __real@0000000000000000    1005a148     ScriptHooks.obj
 0002:00009b20       ??_7DarkOverlayManager@@6B@ 1005ab20     DarkOverlay.obj
 0002:00009b24       ??_7DarkOverlay@@6B@       1005ab24     DarkOverlay.obj
 0002:00009b4c       ??_7IDarkOverlay@@6B@      1005ab4c     DarkOverlay.obj
 0002:00009b70       ??_7PlayersOverlay@@6B@    1005ab70     DarkOverlay.obj
 0002:00009b98       __real@3d4ccccd            1005ab98     DarkOverlay.obj
 0002:00009b9c       __real@43960000            1005ab9c     DarkOverlay.obj
 0002:00009ba0       ??_7MapOverlay@@6B@        1005aba0     DarkOverlay.obj
 0002:00009bc8       ??_7BookOverlay@@6B@       1005abc8     DarkOverlay.obj
 0002:00009bf0       ??_7SimOverlay@@6B@        1005abf0     DarkOverlay.obj
 0002:00009c18       ??_7ObjectivesOverlay@@6B@ 1005ac18     DarkOverlay.obj
 0002:00009c40       ??_7StagingOverlay@@6B@    1005ac40     DarkOverlay.obj
 0002:00009c68       ??_C@_0BD@OLBABOEK@vector?$DMT?$DO?5too?5long?$AA@ 1005ac68     DarkOverlay.obj
 0002:00009ccc       ??_7DialogElement@@6B@     1005accc     DialogElement.obj
 0002:00009ce8       ??_7Element_Text@@6B@      1005ace8     DialogElement.obj
 0002:00009d04       ??_7Element_Button@@6B@    1005ad04     DialogElement.obj
 0002:00009d20       ??_7Element_Image@@6B@     1005ad20     DialogElement.obj
 0002:00009d3c       ??_7Element_Edit@@6B@      1005ad3c     DialogElement.obj
 0002:00009d58       __real@40800000            1005ad58     DialogElement.obj
 0002:00009d5c       _IID_IDxDiagContainer      1005ad5c     dxguid:dxguid.obj
 0002:00009d6c       _IID_IDxDiagProvider       1005ad6c     dxguid:dxguid.obj
 0002:00009d7c       _CLSID_DxDiagProvider      1005ad7c     dxguid:dxguid.obj
 0002:00009d8c       _KSDATAFORMAT_SUBTYPE_DIRECTMUSIC 1005ad8c     dxguid:dxguid.obj
 0002:00009d9c       _KSDATAFORMAT_SUBTYPE_MIDI 1005ad9c     dxguid:dxguid.obj
 0002:00009dac       _IID_IKsControl            1005adac     dxguid:dxguid.obj
 0002:00009dbc       _IID_IDirectMusicAudioPath 1005adbc     dxguid:dxguid.obj
 0002:00009dcc       _IID_IDirectMusicContainer 1005adcc     dxguid:dxguid.obj
 0002:00009ddc       _IID_IDirectMusicScript    1005addc     dxguid:dxguid.obj
 0002:00009dec       _IID_IDirectMusicPatternTrack 1005adec     dxguid:dxguid.obj
 0002:00009dfc       _IID_IDirectMusicStyle8    1005adfc     dxguid:dxguid.obj
 0002:00009e0c       _IID_IDirectMusicSegmentState8 1005ae0c     dxguid:dxguid.obj
 0002:00009e1c       _IID_IDirectMusicSegment8  1005ae1c     dxguid:dxguid.obj
 0002:00009e2c       _IID_IDirectMusicPerformance8 1005ae2c     dxguid:dxguid.obj
 0002:00009e3c       _IID_IDirectMusicLoader8   1005ae3c     dxguid:dxguid.obj
 0002:00009e4c       _IID_IDirectMusicSegment2  1005ae4c     dxguid:dxguid.obj
 0002:00009e5c       _IID_IDirectMusicPerformance2 1005ae5c     dxguid:dxguid.obj
 0002:00009e6c       _IID_IDirectMusicBand      1005ae6c     dxguid:dxguid.obj
 0002:00009e7c       _IID_IDirectMusicComposer  1005ae7c     dxguid:dxguid.obj
 0002:00009e8c       _IID_IDirectMusicChordMap  1005ae8c     dxguid:dxguid.obj
 0002:00009e9c       _IID_IDirectMusicStyle     1005ae9c     dxguid:dxguid.obj
 0002:00009eac       _IID_IDirectMusicGraph     1005aeac     dxguid:dxguid.obj
 0002:00009ebc       _IID_IDirectMusicPerformance 1005aebc     dxguid:dxguid.obj
 0002:00009ecc       _IID_IDirectMusicSegmentState 1005aecc     dxguid:dxguid.obj
 0002:00009edc       _IID_IDirectMusicSegment   1005aedc     dxguid:dxguid.obj
 0002:00009eec       _IID_IDirectMusicObject    1005aeec     dxguid:dxguid.obj
 0002:00009efc       _IID_IDirectMusicGetLoader 1005aefc     dxguid:dxguid.obj
 0002:00009f0c       _IID_IDirectMusicLoader    1005af0c     dxguid:dxguid.obj
 0002:00009f1c       _GUID_Buffer_Mono          1005af1c     dxguid:dxguid.obj
 0002:00009f2c       _GUID_Buffer_3D_Dry        1005af2c     dxguid:dxguid.obj
 0002:00009f3c       _GUID_Buffer_Stereo        1005af3c     dxguid:dxguid.obj
 0002:00009f4c       _GUID_Buffer_EnvReverb     1005af4c     dxguid:dxguid.obj
 0002:00009f5c       _GUID_Buffer_Reverb        1005af5c     dxguid:dxguid.obj
 0002:00009f6c       _GUID_Synth_Default        1005af6c     dxguid:dxguid.obj
 0002:00009f7c       _GUID_DefaultGMCollection  1005af7c     dxguid:dxguid.obj
 0002:00009f8c       _GUID_PerfAutoDownload     1005af8c     dxguid:dxguid.obj
 0002:00009f9c       _GUID_PerfMasterGrooveLevel 1005af9c     dxguid:dxguid.obj
 0002:00009fac       _GUID_PerfMasterVolume     1005afac     dxguid:dxguid.obj
 0002:00009fbc       _GUID_PerfMasterTempo      1005afbc     dxguid:dxguid.obj
 0002:00009fcc       _GUID_UnloadFromAudioPath  1005afcc     dxguid:dxguid.obj
 0002:00009fdc       _GUID_DownloadToAudioPath  1005afdc     dxguid:dxguid.obj
 0002:00009fec       _GUID_Variations           1005afec     dxguid:dxguid.obj
 0002:00009ffc       _GUID_SeedVariations       1005affc     dxguid:dxguid.obj
 0002:0000a00c       _GUID_EnableTempo          1005b00c     dxguid:dxguid.obj
 0002:0000a01c       _GUID_DisableTempo         1005b01c     dxguid:dxguid.obj
 0002:0000a02c       _GUID_EnableTimeSig        1005b02c     dxguid:dxguid.obj
 0002:0000a03c       _GUID_DisableTimeSig       1005b03c     dxguid:dxguid.obj
 0002:0000a04c       _GUID_StandardMIDIFile     1005b04c     dxguid:dxguid.obj
 0002:0000a05c       _GUID_Clear_All_Bands      1005b05c     dxguid:dxguid.obj
 0002:0000a06c       _GUID_Disable_Auto_Download 1005b06c     dxguid:dxguid.obj
 0002:0000a07c       _GUID_Enable_Auto_Download 1005b07c     dxguid:dxguid.obj
 0002:0000a08c       _GUID_ConnectToDLSCollection 1005b08c     dxguid:dxguid.obj
 0002:0000a09c       _GUID_Unload               1005b09c     dxguid:dxguid.obj
 0002:0000a0ac       _GUID_Download             1005b0ac     dxguid:dxguid.obj
 0002:0000a0bc       _GUID_MuteParam            1005b0bc     dxguid:dxguid.obj
 0002:0000a0cc       _GUID_IDirectMusicChordMap 1005b0cc     dxguid:dxguid.obj
 0002:0000a0dc       _GUID_IDirectMusicBand     1005b0dc     dxguid:dxguid.obj
 0002:0000a0ec       _GUID_BandParam            1005b0ec     dxguid:dxguid.obj
 0002:0000a0fc       _GUID_Play_Marker          1005b0fc     dxguid:dxguid.obj
 0002:0000a10c       _GUID_Valid_Start_Time     1005b10c     dxguid:dxguid.obj
 0002:0000a11c       _GUID_TempoParam           1005b11c     dxguid:dxguid.obj
 0002:0000a12c       _GUID_TimeSignature        1005b12c     dxguid:dxguid.obj
 0002:0000a13c       _GUID_IDirectMusicStyle    1005b13c     dxguid:dxguid.obj
 0002:0000a14c       _GUID_RhythmParam          1005b14c     dxguid:dxguid.obj
 0002:0000a15c       _GUID_ChordParam           1005b15c     dxguid:dxguid.obj
 0002:0000a16c       _GUID_CommandParamNext     1005b16c     dxguid:dxguid.obj
 0002:0000a17c       _GUID_CommandParam2        1005b17c     dxguid:dxguid.obj
 0002:0000a18c       _GUID_CommandParam         1005b18c     dxguid:dxguid.obj
 0002:0000a19c       _GUID_NOTIFICATION_RECOMPOSE 1005b19c     dxguid:dxguid.obj
 0002:0000a1ac       _GUID_NOTIFICATION_COMMAND 1005b1ac     dxguid:dxguid.obj
 0002:0000a1bc       _GUID_NOTIFICATION_CHORD   1005b1bc     dxguid:dxguid.obj
 0002:0000a1cc       _GUID_NOTIFICATION_MEASUREANDBEAT 1005b1cc     dxguid:dxguid.obj
 0002:0000a1dc       _GUID_NOTIFICATION_PERFORMANCE 1005b1dc     dxguid:dxguid.obj
 0002:0000a1ec       _GUID_NOTIFICATION_SEGMENT 1005b1ec     dxguid:dxguid.obj
 0002:0000a1fc       _GUID_DirectMusicAllTypes  1005b1fc     dxguid:dxguid.obj
 0002:0000a20c       _CLSID_DirectMusicAudioPathConfig 1005b20c     dxguid:dxguid.obj
 0002:0000a21c       _CLSID_DirectSoundWave     1005b21c     dxguid:dxguid.obj
 0002:0000a22c       _CLSID_DirectMusicContainer 1005b22c     dxguid:dxguid.obj
 0002:0000a23c       _CLSID_DirectMusicScript   1005b23c     dxguid:dxguid.obj
 0002:0000a24c       _CLSID_DirectMusicPatternTrack 1005b24c     dxguid:dxguid.obj
 0002:0000a25c       _CLSID_DirectMusicBand     1005b25c     dxguid:dxguid.obj
 0002:0000a26c       _CLSID_DirectMusicLoader   1005b26c     dxguid:dxguid.obj
 0002:0000a27c       _CLSID_DirectMusicComposer 1005b27c     dxguid:dxguid.obj
 0002:0000a28c       _CLSID_DirectMusicChordMap 1005b28c     dxguid:dxguid.obj
 0002:0000a29c       _CLSID_DirectMusicStyle    1005b29c     dxguid:dxguid.obj
 0002:0000a2ac       _CLSID_DirectMusicGraph    1005b2ac     dxguid:dxguid.obj
 0002:0000a2bc       _CLSID_DirectMusicSegmentState 1005b2bc     dxguid:dxguid.obj
 0002:0000a2cc       _CLSID_DirectMusicSegment  1005b2cc     dxguid:dxguid.obj
 0002:0000a2dc       _CLSID_DirectMusicPerformance 1005b2dc     dxguid:dxguid.obj
 0002:0000a2ec       _IID_IDirectMusicTrack8    1005b2ec     dxguid:dxguid.obj
 0002:0000a2fc       _IID_IDirectMusicTool8     1005b2fc     dxguid:dxguid.obj
 0002:0000a30c       _IID_IDirectMusicTool      1005b30c     dxguid:dxguid.obj
 0002:0000a31c       _IID_IDirectMusicTrack     1005b31c     dxguid:dxguid.obj
 0002:0000a32c       _CLSID_DirectMusicWaveTrack 1005b32c     dxguid:dxguid.obj
 0002:0000a33c       _CLSID_DirectMusicParamControlTrack 1005b33c     dxguid:dxguid.obj
 0002:0000a34c       _CLSID_DirectMusicLyricsTrack 1005b34c     dxguid:dxguid.obj
 0002:0000a35c       _CLSID_DirectMusicSegmentTriggerTrack 1005b35c     dxguid:dxguid.obj
 0002:0000a36c       _CLSID_DirectMusicMarkerTrack 1005b36c     dxguid:dxguid.obj
 0002:0000a37c       _CLSID_DirectMusicScriptTrack 1005b37c     dxguid:dxguid.obj
 0002:0000a38c       _CLSID_DirectMusicMuteTrack 1005b38c     dxguid:dxguid.obj
 0002:0000a39c       _CLSID_DirectMusicChordMapTrack 1005b39c     dxguid:dxguid.obj
 0002:0000a3ac       _CLSID_DirectMusicBandTrack 1005b3ac     dxguid:dxguid.obj
 0002:0000a3bc       _CLSID_DirectMusicSignPostTrack 1005b3bc     dxguid:dxguid.obj
 0002:0000a3cc       _CLSID_DirectMusicMotifTrack 1005b3cc     dxguid:dxguid.obj
 0002:0000a3dc       _CLSID_DirectMusicStyleTrack 1005b3dc     dxguid:dxguid.obj
 0002:0000a3ec       _CLSID_DirectMusicCommandTrack 1005b3ec     dxguid:dxguid.obj
 0002:0000a3fc       _CLSID_DirectMusicChordTrack 1005b3fc     dxguid:dxguid.obj
 0002:0000a40c       _CLSID_DirectMusicTimeSigTrack 1005b40c     dxguid:dxguid.obj
 0002:0000a41c       _CLSID_DirectMusicSysExTrack 1005b41c     dxguid:dxguid.obj
 0002:0000a42c       _CLSID_DirectMusicSeqTrack 1005b42c     dxguid:dxguid.obj
 0002:0000a43c       _CLSID_DirectMusicTempoTrack 1005b43c     dxguid:dxguid.obj
 0002:0000a44c       _GUID_DMUS_PROP_Volume     1005b44c     dxguid:dxguid.obj
 0002:0000a45c       _GUID_DMUS_PROP_LegacyCaps 1005b45c     dxguid:dxguid.obj
 0002:0000a46c       _GUID_DMUS_PROP_Effects    1005b46c     dxguid:dxguid.obj
 0002:0000a47c       _GUID_DMUS_PROP_WavesReverb 1005b47c     dxguid:dxguid.obj
 0002:0000a48c       _GUID_DMUS_PROP_MemorySize 1005b48c     dxguid:dxguid.obj
 0002:0000a49c       _GUID_DMUS_PROP_WritePeriod 1005b49c     dxguid:dxguid.obj
 0002:0000a4ac       _GUID_DMUS_PROP_WriteLatency 1005b4ac     dxguid:dxguid.obj
 0002:0000a4bc       _GUID_DMUS_PROP_SamplePlaybackRate 1005b4bc     dxguid:dxguid.obj
 0002:0000a4cc       _GUID_DMUS_PROP_SampleMemorySize 1005b4cc     dxguid:dxguid.obj
 0002:0000a4dc       _GUID_DMUS_PROP_SynthSink_WAVE 1005b4dc     dxguid:dxguid.obj
 0002:0000a4ec       _GUID_DMUS_PROP_SynthSink_DSOUND 1005b4ec     dxguid:dxguid.obj
 0002:0000a4fc       _GUID_DMUS_PROP_INSTRUMENT2 1005b4fc     dxguid:dxguid.obj
 0002:0000a50c       _GUID_DMUS_PROP_DLS2       1005b50c     dxguid:dxguid.obj
 0002:0000a51c       _GUID_DMUS_PROP_DLS1       1005b51c     dxguid:dxguid.obj
 0002:0000a52c       _GUID_DMUS_PROP_GS_Capable 1005b52c     dxguid:dxguid.obj
 0002:0000a53c       _GUID_DMUS_PROP_XG_Capable 1005b53c     dxguid:dxguid.obj
 0002:0000a54c       _GUID_DMUS_PROP_XG_Hardware 1005b54c     dxguid:dxguid.obj
 0002:0000a55c       _GUID_DMUS_PROP_GS_Hardware 1005b55c     dxguid:dxguid.obj
 0002:0000a56c       _GUID_DMUS_PROP_GM_Hardware 1005b56c     dxguid:dxguid.obj
 0002:0000a57c       _IID_IDirectMusic8         1005b57c     dxguid:dxguid.obj
 0002:0000a58c       _IID_IDirectMusic2         1005b58c     dxguid:dxguid.obj
 0002:0000a59c       _IID_IDirectMusicDownloadedInstrument 1005b59c     dxguid:dxguid.obj
 0002:0000a5ac       _IID_IDirectMusicInstrument 1005b5ac     dxguid:dxguid.obj
 0002:0000a5bc       _IID_IDirectMusicCollection 1005b5bc     dxguid:dxguid.obj
 0002:0000a5cc       _IID_IDirectMusicDownload  1005b5cc     dxguid:dxguid.obj
 0002:0000a5dc       _IID_IDirectMusicPortDownload 1005b5dc     dxguid:dxguid.obj
 0002:0000a5ec       _IID_IDirectMusicThru      1005b5ec     dxguid:dxguid.obj
 0002:0000a5fc       _IID_IDirectMusicPort      1005b5fc     dxguid:dxguid.obj
 0002:0000a60c       _IID_IDirectMusicBuffer    1005b60c     dxguid:dxguid.obj
 0002:0000a61c       _IID_IDirectMusic          1005b61c     dxguid:dxguid.obj
 0002:0000a62c       _CLSID_DirectMusicSynth    1005b62c     dxguid:dxguid.obj
 0002:0000a63c       _CLSID_DirectMusicCollection 1005b63c     dxguid:dxguid.obj
 0002:0000a64c       _CLSID_DirectMusic         1005b64c     dxguid:dxguid.obj
 0002:0000a65c       _IID_IDirectPlay8LobbyClient 1005b65c     dxguid:dxguid.obj
 0002:0000a66c       _IID_IDirectPlay8LobbiedApplication 1005b66c     dxguid:dxguid.obj
 0002:0000a67c       _CLSID_DirectPlay8LobbyClient 1005b67c     dxguid:dxguid.obj
 0002:0000a68c       _CLSID_DirectPlay8LobbiedApplication 1005b68c     dxguid:dxguid.obj
 0002:0000a69c       _CLSID_DP8SP_BLUETOOTH     1005b69c     dxguid:dxguid.obj
 0002:0000a6ac       _CLSID_DP8SP_TCPIP         1005b6ac     dxguid:dxguid.obj
 0002:0000a6bc       _CLSID_DP8SP_SERIAL        1005b6bc     dxguid:dxguid.obj
 0002:0000a6cc       _CLSID_DP8SP_MODEM         1005b6cc     dxguid:dxguid.obj
 0002:0000a6dc       _CLSID_DP8SP_IPX           1005b6dc     dxguid:dxguid.obj
 0002:0000a6ec       _IID_IDirectPlay8NATResolver 1005b6ec     dxguid:dxguid.obj
 0002:0000a6fc       _IID_IDirectPlay8ThreadPool 1005b6fc     dxguid:dxguid.obj
 0002:0000a70c       _IID_IDirectPlay8Peer      1005b70c     dxguid:dxguid.obj
 0002:0000a71c       _IID_IDirectPlay8Server    1005b71c     dxguid:dxguid.obj
 0002:0000a72c       _IID_IDirectPlay8Client    1005b72c     dxguid:dxguid.obj
 0002:0000a73c       _CLSID_DirectPlay8NATResolver 1005b73c     dxguid:dxguid.obj
 0002:0000a74c       _CLSID_DirectPlay8ThreadPool 1005b74c     dxguid:dxguid.obj
 0002:0000a75c       _CLSID_DirectPlay8Peer     1005b75c     dxguid:dxguid.obj
 0002:0000a76c       _CLSID_DirectPlay8Server   1005b76c     dxguid:dxguid.obj
 0002:0000a77c       _CLSID_DirectPlay8Client   1005b77c     dxguid:dxguid.obj
 0002:0000a78c       _IID_IDirectPlay8AddressIP 1005b78c     dxguid:dxguid.obj
 0002:0000a79c       _IID_IDirectPlay8Address   1005b79c     dxguid:dxguid.obj
 0002:0000a7ac       _CLSID_DirectPlay8Address  1005b7ac     dxguid:dxguid.obj
 0002:0000a7bc       _DPVCTGUID_VR12            1005b7bc     dxguid:dxguid.obj
 0002:0000a7cc       _DPVCTGUID_TRUESPEECH      1005b7cc     dxguid:dxguid.obj
 0002:0000a7dc       _DPVCTGUID_SC06            1005b7dc     dxguid:dxguid.obj
 0002:0000a7ec       _DPVCTGUID_SC03            1005b7ec     dxguid:dxguid.obj
 0002:0000a7fc       _DPVCTGUID_NONE            1005b7fc     dxguid:dxguid.obj
 0002:0000a80c       _DPVCTGUID_GSM             1005b80c     dxguid:dxguid.obj
 0002:0000a81c       _DPVCTGUID_ADPCM           1005b81c     dxguid:dxguid.obj
 0002:0000a82c       _IID_IDirectPlayVoiceTest  1005b82c     dxguid:dxguid.obj
 0002:0000a83c       _IID_IDirectPlayVoiceServer 1005b83c     dxguid:dxguid.obj
 0002:0000a84c       _IID_IDirectPlayVoiceClient 1005b84c     dxguid:dxguid.obj
 0002:0000a85c       _CLSID_DirectPlayVoiceTest 1005b85c     dxguid:dxguid.obj
 0002:0000a86c       _CLSID_DirectPlayVoiceServer 1005b86c     dxguid:dxguid.obj
 0002:0000a87c       _CLSID_DirectPlayVoiceClient 1005b87c     dxguid:dxguid.obj
 0002:0000a88c       _GUID_DSCFX_SYSTEM_NS      1005b88c     dxguid:dxguid.obj
 0002:0000a89c       _GUID_DSCFX_MS_NS          1005b89c     dxguid:dxguid.obj
 0002:0000a8ac       _GUID_DSCFX_CLASS_NS       1005b8ac     dxguid:dxguid.obj
 0002:0000a8bc       _GUID_DSCFX_SYSTEM_AEC     1005b8bc     dxguid:dxguid.obj
 0002:0000a8cc       _GUID_DSCFX_MS_AEC         1005b8cc     dxguid:dxguid.obj
 0002:0000a8dc       _GUID_DSCFX_CLASS_AEC      1005b8dc     dxguid:dxguid.obj
 0002:0000a8ec       _GUID_DSFX_WAVES_REVERB    1005b8ec     dxguid:dxguid.obj
 0002:0000a8fc       _GUID_DSFX_STANDARD_I3DL2REVERB 1005b8fc     dxguid:dxguid.obj
 0002:0000a90c       _GUID_DSFX_STANDARD_PARAMEQ 1005b90c     dxguid:dxguid.obj
 0002:0000a91c       _GUID_DSFX_STANDARD_COMPRESSOR 1005b91c     dxguid:dxguid.obj
 0002:0000a92c       _GUID_DSFX_STANDARD_DISTORTION 1005b92c     dxguid:dxguid.obj
 0002:0000a93c       _GUID_DSFX_STANDARD_ECHO   1005b93c     dxguid:dxguid.obj
 0002:0000a94c       _GUID_DSFX_STANDARD_FLANGER 1005b94c     dxguid:dxguid.obj
 0002:0000a95c       _GUID_DSFX_STANDARD_CHORUS 1005b95c     dxguid:dxguid.obj
 0002:0000a96c       _GUID_DSFX_STANDARD_GARGLE 1005b96c     dxguid:dxguid.obj
 0002:0000a97c       _DS3DALG_HRTF_LIGHT        1005b97c     dxguid:dxguid.obj
 0002:0000a98c       _DS3DALG_HRTF_FULL         1005b98c     dxguid:dxguid.obj
 0002:0000a99c       _DS3DALG_NO_VIRTUALIZATION 1005b99c     dxguid:dxguid.obj
 0002:0000a9ac       _IID_IDirectSoundFullDuplex 1005b9ac     dxguid:dxguid.obj
 0002:0000a9bc       _IID_IDirectSoundCaptureFXNoiseSuppress 1005b9bc     dxguid:dxguid.obj
 0002:0000a9cc       _IID_IDirectSoundCaptureFXAec 1005b9cc     dxguid:dxguid.obj
 0002:0000a9dc       _IID_IDirectSoundFXWavesReverb 1005b9dc     dxguid:dxguid.obj
 0002:0000a9ec       _IID_IDirectSoundFXI3DL2Reverb 1005b9ec     dxguid:dxguid.obj
 0002:0000a9fc       _IID_IDirectSoundFXParamEq 1005b9fc     dxguid:dxguid.obj
 0002:0000aa0c       _IID_IDirectSoundFXCompressor 1005ba0c     dxguid:dxguid.obj
 0002:0000aa1c       _IID_IDirectSoundFXDistortion 1005ba1c     dxguid:dxguid.obj
 0002:0000aa2c       _IID_IDirectSoundFXEcho    1005ba2c     dxguid:dxguid.obj
 0002:0000aa3c       _IID_IDirectSoundFXFlanger 1005ba3c     dxguid:dxguid.obj
 0002:0000aa4c       _IID_IDirectSoundFXChorus  1005ba4c     dxguid:dxguid.obj
 0002:0000aa5c       _IID_IDirectSoundFXGargle  1005ba5c     dxguid:dxguid.obj
 0002:0000aa6c       _IID_IDirectSoundCaptureBuffer8 1005ba6c     dxguid:dxguid.obj
 0002:0000aa7c       _GUID_All_Objects          1005ba7c     dxguid:dxguid.obj
 0002:0000aa8c       _IID_IDirectSoundBuffer8   1005ba8c     dxguid:dxguid.obj
 0002:0000aa9c       _IID_IDirectSound8         1005ba9c     dxguid:dxguid.obj
 0002:0000aaac       _DSDEVID_DefaultVoiceCapture 1005baac     dxguid:dxguid.obj
 0002:0000aabc       _DSDEVID_DefaultVoicePlayback 1005babc     dxguid:dxguid.obj
 0002:0000aacc       _DSDEVID_DefaultCapture    1005bacc     dxguid:dxguid.obj
 0002:0000aadc       _DSDEVID_DefaultPlayback   1005badc     dxguid:dxguid.obj
 0002:0000aaec       _CLSID_DirectSoundFullDuplex 1005baec     dxguid:dxguid.obj
 0002:0000aafc       _CLSID_DirectSoundCapture8 1005bafc     dxguid:dxguid.obj
 0002:0000ab0c       _CLSID_DirectSoundCapture  1005bb0c     dxguid:dxguid.obj
 0002:0000ab1c       _CLSID_DirectSound8        1005bb1c     dxguid:dxguid.obj
 0002:0000ab2c       _CLSID_DirectSound         1005bb2c     dxguid:dxguid.obj
 0002:0000ab3c       _DPAID_ComPort             1005bb3c     dxguid:dxguid.obj
 0002:0000ab4c       _DPAID_INetPort            1005bb4c     dxguid:dxguid.obj
 0002:0000ab5c       _DPAID_INetW               1005bb5c     dxguid:dxguid.obj
 0002:0000ab6c       _DPAID_INet                1005bb6c     dxguid:dxguid.obj
 0002:0000ab7c       _DPAID_ModemW              1005bb7c     dxguid:dxguid.obj
 0002:0000ab8c       _DPAID_Modem               1005bb8c     dxguid:dxguid.obj
 0002:0000ab9c       _DPAID_PhoneW              1005bb9c     dxguid:dxguid.obj
 0002:0000abac       _DPAID_Phone               1005bbac     dxguid:dxguid.obj
 0002:0000abbc       _DPAID_LobbyProvider       1005bbbc     dxguid:dxguid.obj
 0002:0000abcc       _DPAID_ServiceProvider     1005bbcc     dxguid:dxguid.obj
 0002:0000abdc       _DPAID_TotalSize           1005bbdc     dxguid:dxguid.obj
 0002:0000abec       _DPLPROPERTY_PlayerScore   1005bbec     dxguid:dxguid.obj
 0002:0000abfc       _DPLPROPERTY_PlayerGuid    1005bbfc     dxguid:dxguid.obj
 0002:0000ac0c       _DPLPROPERTY_LobbyGuid     1005bc0c     dxguid:dxguid.obj
 0002:0000ac1c       _DPLPROPERTY_MessagesSupported 1005bc1c     dxguid:dxguid.obj
 0002:0000ac2c       _CLSID_DirectPlayLobby     1005bc2c     dxguid:dxguid.obj
 0002:0000ac3c       _IID_IDirectPlayLobby3A    1005bc3c     dxguid:dxguid.obj
 0002:0000ac4c       _IID_IDirectPlayLobby3     1005bc4c     dxguid:dxguid.obj
 0002:0000ac5c       _IID_IDirectPlayLobby2A    1005bc5c     dxguid:dxguid.obj
 0002:0000ac6c       _IID_IDirectPlayLobby2     1005bc6c     dxguid:dxguid.obj
 0002:0000ac7c       _IID_IDirectPlayLobbyA     1005bc7c     dxguid:dxguid.obj
 0002:0000ac8c       _IID_IDirectPlayLobby      1005bc8c     dxguid:dxguid.obj
 0002:0000ac9c       _IID_IDirectPlay           1005bc9c     dxguid:dxguid.obj
 0002:0000acac       _DPSPGUID_MODEM            1005bcac     dxguid:dxguid.obj
 0002:0000acbc       _DPSPGUID_SERIAL           1005bcbc     dxguid:dxguid.obj
 0002:0000accc       _DPSPGUID_TCPIP            1005bccc     dxguid:dxguid.obj
 0002:0000acdc       _DPSPGUID_IPX              1005bcdc     dxguid:dxguid.obj
 0002:0000acec       _CLSID_DirectPlay          1005bcec     dxguid:dxguid.obj
 0002:0000acfc       _IID_IDirectPlay4A         1005bcfc     dxguid:dxguid.obj
 0002:0000ad0c       _IID_IDirectPlay4          1005bd0c     dxguid:dxguid.obj
 0002:0000ad1c       _IID_IDirectPlay3A         1005bd1c     dxguid:dxguid.obj
 0002:0000ad2c       _IID_IDirectPlay3          1005bd2c     dxguid:dxguid.obj
 0002:0000ad3c       _IID_IDirectPlay2A         1005bd3c     dxguid:dxguid.obj
 0002:0000ad4c       _IID_IDirectPlay2          1005bd4c     dxguid:dxguid.obj
 0002:0000ad5c       _GUID_HIDClass             1005bd5c     dxguid:dxguid.obj
 0002:0000ad6c       _GUID_MouseClass           1005bd6c     dxguid:dxguid.obj
 0002:0000ad7c       _GUID_MediaClass           1005bd7c     dxguid:dxguid.obj
 0002:0000ad8c       _GUID_KeyboardClass        1005bd8c     dxguid:dxguid.obj
 0002:0000ad9c       _IID_IDirectInputJoyConfig8 1005bd9c     dxguid:dxguid.obj
 0002:0000adac       _IID_IDirectInputPIDDriver 1005bdac     dxguid:dxguid.obj
 0002:0000adbc       _IID_IDirectInputJoyConfig 1005bdbc     dxguid:dxguid.obj
 0002:0000adcc       _IID_IDirectInputEffectDriver 1005bdcc     dxguid:dxguid.obj
 0002:0000addc       _GUID_CustomForce          1005bddc     dxguid:dxguid.obj
 0002:0000adec       _GUID_Friction             1005bdec     dxguid:dxguid.obj
 0002:0000adfc       _GUID_Inertia              1005bdfc     dxguid:dxguid.obj
 0002:0000ae0c       _GUID_Damper               1005be0c     dxguid:dxguid.obj
 0002:0000ae1c       _GUID_Spring               1005be1c     dxguid:dxguid.obj
 0002:0000ae2c       _GUID_SawtoothDown         1005be2c     dxguid:dxguid.obj
 0002:0000ae3c       _GUID_SawtoothUp           1005be3c     dxguid:dxguid.obj
 0002:0000ae4c       _GUID_Triangle             1005be4c     dxguid:dxguid.obj
 0002:0000ae5c       _GUID_Sine                 1005be5c     dxguid:dxguid.obj
 0002:0000ae6c       _GUID_Square               1005be6c     dxguid:dxguid.obj
 0002:0000ae7c       _GUID_RampForce            1005be7c     dxguid:dxguid.obj
 0002:0000ae8c       _GUID_ConstantForce        1005be8c     dxguid:dxguid.obj
 0002:0000ae9c       _GUID_SysKeyboardEm2       1005be9c     dxguid:dxguid.obj
 0002:0000aeac       _GUID_SysKeyboardEm        1005beac     dxguid:dxguid.obj
 0002:0000aebc       _GUID_SysMouseEm2          1005bebc     dxguid:dxguid.obj
 0002:0000aecc       _GUID_SysMouseEm           1005becc     dxguid:dxguid.obj
 0002:0000aedc       _GUID_Joystick             1005bedc     dxguid:dxguid.obj
 0002:0000aeec       _GUID_SysKeyboard          1005beec     dxguid:dxguid.obj
 0002:0000aefc       _GUID_SysMouse             1005befc     dxguid:dxguid.obj
 0002:0000af0c       _GUID_Unknown              1005bf0c     dxguid:dxguid.obj
 0002:0000af1c       _GUID_POV                  1005bf1c     dxguid:dxguid.obj
 0002:0000af2c       _GUID_Key                  1005bf2c     dxguid:dxguid.obj
 0002:0000af3c       _GUID_Button               1005bf3c     dxguid:dxguid.obj
 0002:0000af4c       _GUID_Slider               1005bf4c     dxguid:dxguid.obj
 0002:0000af5c       _GUID_RzAxis               1005bf5c     dxguid:dxguid.obj
 0002:0000af6c       _GUID_RyAxis               1005bf6c     dxguid:dxguid.obj
 0002:0000af7c       _GUID_RxAxis               1005bf7c     dxguid:dxguid.obj
 0002:0000af8c       _GUID_ZAxis                1005bf8c     dxguid:dxguid.obj
 0002:0000af9c       _GUID_YAxis                1005bf9c     dxguid:dxguid.obj
 0002:0000afac       _GUID_XAxis                1005bfac     dxguid:dxguid.obj
 0002:0000afbc       _IID_IDirectInputEffect    1005bfbc     dxguid:dxguid.obj
 0002:0000afcc       _IID_IDirectInputDevice8W  1005bfcc     dxguid:dxguid.obj
 0002:0000afdc       _IID_IDirectInputDevice8A  1005bfdc     dxguid:dxguid.obj
 0002:0000afec       _IID_IDirectInputDevice7W  1005bfec     dxguid:dxguid.obj
 0002:0000affc       _IID_IDirectInputDevice7A  1005bffc     dxguid:dxguid.obj
 0002:0000b00c       _IID_IDirectInputDevice2W  1005c00c     dxguid:dxguid.obj
 0002:0000b01c       _IID_IDirectInputDevice2A  1005c01c     dxguid:dxguid.obj
 0002:0000b02c       _IID_IDirectInputDeviceW   1005c02c     dxguid:dxguid.obj
 0002:0000b03c       _IID_IDirectInputDeviceA   1005c03c     dxguid:dxguid.obj
 0002:0000b04c       _IID_IDirectInput8W        1005c04c     dxguid:dxguid.obj
 0002:0000b05c       _IID_IDirectInput8A        1005c05c     dxguid:dxguid.obj
 0002:0000b06c       _IID_IDirectInput7W        1005c06c     dxguid:dxguid.obj
 0002:0000b07c       _IID_IDirectInput7A        1005c07c     dxguid:dxguid.obj
 0002:0000b08c       _IID_IDirectInput2W        1005c08c     dxguid:dxguid.obj
 0002:0000b09c       _IID_IDirectInput2A        1005c09c     dxguid:dxguid.obj
 0002:0000b0ac       _IID_IDirectInputW         1005c0ac     dxguid:dxguid.obj
 0002:0000b0bc       _IID_IDirectInputA         1005c0bc     dxguid:dxguid.obj
 0002:0000b0cc       _CLSID_DirectInputDevice8  1005c0cc     dxguid:dxguid.obj
 0002:0000b0dc       _CLSID_DirectInput8        1005c0dc     dxguid:dxguid.obj
 0002:0000b0ec       _CLSID_DirectInputDevice   1005c0ec     dxguid:dxguid.obj
 0002:0000b0fc       _CLSID_DirectInput         1005c0fc     dxguid:dxguid.obj
 0002:0000b10c       _TID_DXFILEHeader          1005c10c     dxguid:dxguid.obj
 0002:0000b11c       _IID_IDirectXFileBinary    1005c11c     dxguid:dxguid.obj
 0002:0000b12c       _IID_IDirectXFileDataReference 1005c12c     dxguid:dxguid.obj
 0002:0000b13c       _IID_IDirectXFileData      1005c13c     dxguid:dxguid.obj
 0002:0000b14c       _IID_IDirectXFileObject    1005c14c     dxguid:dxguid.obj
 0002:0000b15c       _IID_IDirectXFileSaveObject 1005c15c     dxguid:dxguid.obj
 0002:0000b16c       _IID_IDirectXFileEnumObject 1005c16c     dxguid:dxguid.obj
 0002:0000b17c       _IID_IDirectXFile          1005c17c     dxguid:dxguid.obj
 0002:0000b18c       _CLSID_CDirectXFile        1005c18c     dxguid:dxguid.obj
 0002:0000b19c       _TID_D3DRMRightHanded      1005c19c     dxguid:dxguid.obj
 0002:0000b1ac       _TID_D3DRMPropertyBag      1005c1ac     dxguid:dxguid.obj
 0002:0000b1bc       _TID_D3DRMStringProperty   1005c1bc     dxguid:dxguid.obj
 0002:0000b1cc       _TID_D3DRMExternalVisual   1005c1cc     dxguid:dxguid.obj
 0002:0000b1dc       _TID_D3DRMProgressiveMesh  1005c1dc     dxguid:dxguid.obj
 0002:0000b1ec       _TID_D3DRMUrl              1005c1ec     dxguid:dxguid.obj
 0002:0000b1fc       _TID_D3DRMInlineData       1005c1fc     dxguid:dxguid.obj
 0002:0000b20c       _TID_D3DRMLightAttenuation 1005c20c     dxguid:dxguid.obj
 0002:0000b21c       _TID_D3DRMLightPenumbra    1005c21c     dxguid:dxguid.obj
 0002:0000b22c       _TID_D3DRMLightRange       1005c22c     dxguid:dxguid.obj
 0002:0000b23c       _TID_D3DRMLightUmbra       1005c23c     dxguid:dxguid.obj
 0002:0000b24c       _TID_D3DRMAppData          1005c24c     dxguid:dxguid.obj
 0002:0000b25c       _TID_D3DRMCamera           1005c25c     dxguid:dxguid.obj
 0002:0000b26c       _TID_D3DRMLight            1005c26c     dxguid:dxguid.obj
 0002:0000b27c       _TID_D3DRMFrameRotation    1005c27c     dxguid:dxguid.obj
 0002:0000b28c       _TID_D3DRMFrameVelocity    1005c28c     dxguid:dxguid.obj
 0002:0000b29c       _TID_D3DRMFramePosition    1005c29c     dxguid:dxguid.obj
 0002:0000b2ac       _TID_D3DRMAnimationOptions 1005c2ac     dxguid:dxguid.obj
 0002:0000b2bc       _TID_D3DRMTimedFloatKeys   1005c2bc     dxguid:dxguid.obj
 0002:0000b2cc       _TID_D3DRMBoolean2d        1005c2cc     dxguid:dxguid.obj
 0002:0000b2dc       _TID_D3DRMMeshFaceWraps    1005c2dc     dxguid:dxguid.obj
 0002:0000b2ec       _TID_D3DRMBoolean          1005c2ec     dxguid:dxguid.obj
 0002:0000b2fc       _TID_D3DRMMaterialWrap     1005c2fc     dxguid:dxguid.obj
 0002:0000b30c       _TID_D3DRMMeshVertexColors 1005c30c     dxguid:dxguid.obj
 0002:0000b31c       _TID_D3DRMIndexedColor     1005c31c     dxguid:dxguid.obj
 0002:0000b32c       _TID_D3DRMTextureReference 1005c32c     dxguid:dxguid.obj
 0002:0000b33c       _TID_D3DRMTextureFilename  1005c33c     dxguid:dxguid.obj
 0002:0000b34c       _TID_D3DRMGuid             1005c34c     dxguid:dxguid.obj
 0002:0000b35c       _TID_D3DRMColorRGB         1005c35c     dxguid:dxguid.obj
 0002:0000b36c       _TID_D3DRMColorRGBA        1005c36c     dxguid:dxguid.obj
 0002:0000b37c       _TID_D3DRMMaterialPower    1005c37c     dxguid:dxguid.obj
 0002:0000b38c       _TID_D3DRMMaterialEmissiveColor 1005c38c     dxguid:dxguid.obj
 0002:0000b39c       _TID_D3DRMMaterialSpecularColor 1005c39c     dxguid:dxguid.obj
 0002:0000b3ac       _TID_D3DRMMaterialDiffuseColor 1005c3ac     dxguid:dxguid.obj
 0002:0000b3bc       _TID_D3DRMMaterialAmbientColor 1005c3bc     dxguid:dxguid.obj
 0002:0000b3cc       _TID_D3DRMFloatKeys        1005c3cc     dxguid:dxguid.obj
 0002:0000b3dc       _TID_D3DRMAnimationKey     1005c3dc     dxguid:dxguid.obj
 0002:0000b3ec       _TID_D3DRMAnimationSet     1005c3ec     dxguid:dxguid.obj
 0002:0000b3fc       _TID_D3DRMAnimation        1005c3fc     dxguid:dxguid.obj
 0002:0000b40c       _TID_D3DRMMatrix4x4        1005c40c     dxguid:dxguid.obj
 0002:0000b41c       _TID_D3DRMCoords2d         1005c41c     dxguid:dxguid.obj
 0002:0000b42c       _TID_D3DRMMeshNormals      1005c42c     dxguid:dxguid.obj
 0002:0000b43c       _TID_D3DRMMeshTextureCoords 1005c43c     dxguid:dxguid.obj
 0002:0000b44c       _TID_D3DRMMeshMaterialList 1005c44c     dxguid:dxguid.obj
 0002:0000b45c       _TID_D3DRMFrameTransformMatrix 1005c45c     dxguid:dxguid.obj
 0002:0000b46c       _TID_D3DRMFrame            1005c46c     dxguid:dxguid.obj
 0002:0000b47c       _TID_D3DRMMaterialArray    1005c47c     dxguid:dxguid.obj
 0002:0000b48c       _TID_D3DRMMaterial         1005c48c     dxguid:dxguid.obj
 0002:0000b49c       _TID_D3DRMMeshFace         1005c49c     dxguid:dxguid.obj
 0002:0000b4ac       _TID_D3DRMVector           1005c4ac     dxguid:dxguid.obj
 0002:0000b4bc       _TID_D3DRMMesh             1005c4bc     dxguid:dxguid.obj
 0002:0000b4cc       _TID_D3DRMInfo             1005c4cc     dxguid:dxguid.obj
 0002:0000b4dc       _IID_IDirect3DRMWinDevice  1005c4dc     dxguid:dxguid.obj
 0002:0000b4ec       _CLSID_CDirect3DRM         1005c4ec     dxguid:dxguid.obj
 0002:0000b4fc       _IID_IDirect3DRM3          1005c4fc     dxguid:dxguid.obj
 0002:0000b50c       _IID_IDirect3DRM2          1005c50c     dxguid:dxguid.obj
 0002:0000b51c       _IID_IDirect3DRM           1005c51c     dxguid:dxguid.obj
 0002:0000b52c       _IID_IDirect3DRMClippedVisual 1005c52c     dxguid:dxguid.obj
 0002:0000b53c       _IID_IDirect3DRMPicked2Array 1005c53c     dxguid:dxguid.obj
 0002:0000b54c       _IID_IDirect3DRMProgressiveMesh 1005c54c     dxguid:dxguid.obj
 0002:0000b55c       _IID_IDirect3DRMInterpolator 1005c55c     dxguid:dxguid.obj
 0002:0000b56c       _IID_IDirect3DRMShadow2    1005c56c     dxguid:dxguid.obj
 0002:0000b57c       _IID_IDirect3DRMShadow     1005c57c     dxguid:dxguid.obj
 0002:0000b58c       _IID_IDirect3DRMUserVisual 1005c58c     dxguid:dxguid.obj
 0002:0000b59c       _IID_IDirect3DRMAnimationArray 1005c59c     dxguid:dxguid.obj
 0002:0000b5ac       _IID_IDirect3DRMFaceArray  1005c5ac     dxguid:dxguid.obj
 0002:0000b5bc       _IID_IDirect3DRMPickedArray 1005c5bc     dxguid:dxguid.obj
 0002:0000b5cc       _IID_IDirect3DRMLightArray 1005c5cc     dxguid:dxguid.obj
 0002:0000b5dc       _IID_IDirect3DRMVisualArray 1005c5dc     dxguid:dxguid.obj
 0002:0000b5ec       _IID_IDirect3DRMFrameArray 1005c5ec     dxguid:dxguid.obj
 0002:0000b5fc       _IID_IDirect3DRMViewportArray 1005c5fc     dxguid:dxguid.obj
 0002:0000b60c       _IID_IDirect3DRMDeviceArray 1005c60c     dxguid:dxguid.obj
 0002:0000b61c       _IID_IDirect3DRMObjectArray 1005c61c     dxguid:dxguid.obj
 0002:0000b62c       _IID_IDirect3DRMAnimationSet2 1005c62c     dxguid:dxguid.obj
 0002:0000b63c       _IID_IDirect3DRMAnimationSet 1005c63c     dxguid:dxguid.obj
 0002:0000b64c       _IID_IDirect3DRMAnimation2 1005c64c     dxguid:dxguid.obj
 0002:0000b65c       _IID_IDirect3DRMAnimation  1005c65c     dxguid:dxguid.obj
 0002:0000b66c       _IID_IDirect3DRMMaterial2  1005c66c     dxguid:dxguid.obj
 0002:0000b67c       _IID_IDirect3DRMMaterial   1005c67c     dxguid:dxguid.obj
 0002:0000b68c       _IID_IDirect3DRMWrap       1005c68c     dxguid:dxguid.obj
 0002:0000b69c       _IID_IDirect3DRMTexture3   1005c69c     dxguid:dxguid.obj
 0002:0000b6ac       _IID_IDirect3DRMTexture2   1005c6ac     dxguid:dxguid.obj
 0002:0000b6bc       _IID_IDirect3DRMTexture    1005c6bc     dxguid:dxguid.obj
 0002:0000b6cc       _IID_IDirect3DRMLight      1005c6cc     dxguid:dxguid.obj
 0002:0000b6dc       _IID_IDirect3DRMFace2      1005c6dc     dxguid:dxguid.obj
 0002:0000b6ec       _IID_IDirect3DRMFace       1005c6ec     dxguid:dxguid.obj
 0002:0000b6fc       _IID_IDirect3DRMMeshBuilder3 1005c6fc     dxguid:dxguid.obj
 0002:0000b70c       _IID_IDirect3DRMMeshBuilder2 1005c70c     dxguid:dxguid.obj
 0002:0000b71c       _IID_IDirect3DRMMeshBuilder 1005c71c     dxguid:dxguid.obj
 0002:0000b72c       _IID_IDirect3DRMMesh       1005c72c     dxguid:dxguid.obj
 0002:0000b73c       _IID_IDirect3DRMVisual     1005c73c     dxguid:dxguid.obj
 0002:0000b74c       _IID_IDirect3DRMFrame3     1005c74c     dxguid:dxguid.obj
 0002:0000b75c       _IID_IDirect3DRMFrame2     1005c75c     dxguid:dxguid.obj
 0002:0000b76c       _IID_IDirect3DRMFrame      1005c76c     dxguid:dxguid.obj
 0002:0000b77c       _IID_IDirect3DRMViewport2  1005c77c     dxguid:dxguid.obj
 0002:0000b78c       _IID_IDirect3DRMViewport   1005c78c     dxguid:dxguid.obj
 0002:0000b79c       _IID_IDirect3DRMDevice3    1005c79c     dxguid:dxguid.obj
 0002:0000b7ac       _IID_IDirect3DRMDevice2    1005c7ac     dxguid:dxguid.obj
 0002:0000b7bc       _IID_IDirect3DRMDevice     1005c7bc     dxguid:dxguid.obj
 0002:0000b7cc       _IID_IDirect3DRMObject2    1005c7cc     dxguid:dxguid.obj
 0002:0000b7dc       _IID_IDirect3DRMObject     1005c7dc     dxguid:dxguid.obj
 0002:0000b7ec       _CLSID_CDirect3DRMClippedVisual 1005c7ec     dxguid:dxguid.obj
 0002:0000b7fc       _CLSID_CDirect3DRMProgressiveMesh 1005c7fc     dxguid:dxguid.obj
 0002:0000b80c       _CLSID_CDirect3DRMTextureInterpolator 1005c80c     dxguid:dxguid.obj
 0002:0000b81c       _CLSID_CDirect3DRMMaterialInterpolator 1005c81c     dxguid:dxguid.obj
 0002:0000b82c       _CLSID_CDirect3DRMLightInterpolator 1005c82c     dxguid:dxguid.obj
 0002:0000b83c       _CLSID_CDirect3DRMMeshInterpolator 1005c83c     dxguid:dxguid.obj
 0002:0000b84c       _CLSID_CDirect3DRMFrameInterpolator 1005c84c     dxguid:dxguid.obj
 0002:0000b85c       _CLSID_CDirect3DRMViewportInterpolator 1005c85c     dxguid:dxguid.obj
 0002:0000b86c       _CLSID_CDirect3DRMShadow   1005c86c     dxguid:dxguid.obj
 0002:0000b87c       _CLSID_CDirect3DRMUserVisual 1005c87c     dxguid:dxguid.obj
 0002:0000b88c       _CLSID_CDirect3DRMAnimationSet 1005c88c     dxguid:dxguid.obj
 0002:0000b89c       _CLSID_CDirect3DRMAnimation 1005c89c     dxguid:dxguid.obj
 0002:0000b8ac       _CLSID_CDirect3DRMMaterial 1005c8ac     dxguid:dxguid.obj
 0002:0000b8bc       _CLSID_CDirect3DRMWrap     1005c8bc     dxguid:dxguid.obj
 0002:0000b8cc       _CLSID_CDirect3DRMTexture  1005c8cc     dxguid:dxguid.obj
 0002:0000b8dc       _CLSID_CDirect3DRMLight    1005c8dc     dxguid:dxguid.obj
 0002:0000b8ec       _CLSID_CDirect3DRMFace     1005c8ec     dxguid:dxguid.obj
 0002:0000b8fc       _CLSID_CDirect3DRMMeshBuilder 1005c8fc     dxguid:dxguid.obj
 0002:0000b90c       _CLSID_CDirect3DRMMesh     1005c90c     dxguid:dxguid.obj
 0002:0000b91c       _CLSID_CDirect3DRMFrame    1005c91c     dxguid:dxguid.obj
 0002:0000b92c       _CLSID_CDirect3DRMViewport 1005c92c     dxguid:dxguid.obj
 0002:0000b93c       _CLSID_CDirect3DRMDevice   1005c93c     dxguid:dxguid.obj
 0002:0000b94c       _IID_IDirect3DSwapChain8   1005c94c     dxguid:dxguid.obj
 0002:0000b95c       _IID_IDirect3DVolume8      1005c95c     dxguid:dxguid.obj
 0002:0000b96c       _IID_IDirect3DSurface8     1005c96c     dxguid:dxguid.obj
 0002:0000b97c       _IID_IDirect3DIndexBuffer8 1005c97c     dxguid:dxguid.obj
 0002:0000b98c       _IID_IDirect3DVertexBuffer8 1005c98c     dxguid:dxguid.obj
 0002:0000b99c       _IID_IDirect3DVolumeTexture8 1005c99c     dxguid:dxguid.obj
 0002:0000b9ac       _IID_IDirect3DCubeTexture8 1005c9ac     dxguid:dxguid.obj
 0002:0000b9bc       _IID_IDirect3DTexture8     1005c9bc     dxguid:dxguid.obj
 0002:0000b9cc       _IID_IDirect3DBaseTexture8 1005c9cc     dxguid:dxguid.obj
 0002:0000b9dc       _IID_IDirect3DResource8    1005c9dc     dxguid:dxguid.obj
 0002:0000b9ec       _IID_IDirect3DDevice8      1005c9ec     dxguid:dxguid.obj
 0002:0000b9fc       _IID_IDirect3D8            1005c9fc     dxguid:dxguid.obj
 0002:0000ba0c       _IID_IDirect3DVertexBuffer7 1005ca0c     dxguid:dxguid.obj
 0002:0000ba1c       _IID_IDirect3DDevice7      1005ca1c     dxguid:dxguid.obj
 0002:0000ba2c       _IID_IDirect3DTnLHalDevice 1005ca2c     dxguid:dxguid.obj
 0002:0000ba3c       _IID_IDirect3D7            1005ca3c     dxguid:dxguid.obj
 0002:0000ba4c       _DDVPTYPE_PHILIPS          1005ca4c     dxguid:dxguid.obj
 0002:0000ba5c       _DDVPTYPE_BROOKTREE        1005ca5c     dxguid:dxguid.obj
 0002:0000ba6c       _DDVPTYPE_CCIR656          1005ca6c     dxguid:dxguid.obj
 0002:0000ba7c       _DDVPTYPE_E_HREFL_VREFL    1005ca7c     dxguid:dxguid.obj
 0002:0000ba8c       _DDVPTYPE_E_HREFL_VREFH    1005ca8c     dxguid:dxguid.obj
 0002:0000ba9c       _DDVPTYPE_E_HREFH_VREFL    1005ca9c     dxguid:dxguid.obj
 0002:0000baac       _DDVPTYPE_E_HREFH_VREFH    1005caac     dxguid:dxguid.obj
 0002:0000babc       _IID_IDirectDrawVideoPortNotify 1005cabc     dxguid:dxguid.obj
 0002:0000bacc       _IID_IDirectDrawVideoPort  1005cacc     dxguid:dxguid.obj
 0002:0000badc       _IID_IDDVideoPortContainer 1005cadc     dxguid:dxguid.obj
 0002:0000baec       _IID_IXACTEngine           1005caec     dxguid:dxguid.obj
 0002:0000bafc       _CLSID_XACTDebugEngine     1005cafc     dxguid:dxguid.obj
 0002:0000bb0c       _CLSID_XACTAuditionEngine  1005cb0c     dxguid:dxguid.obj
 0002:0000bb1c       _CLSID_XACTEngine          1005cb1c     dxguid:dxguid.obj
 0002:0000bb2c       _GUID_DDMoreCaps           1005cb2c     dxguid:dxguid.obj
 0002:0000bb3c       _GUID_Miscellaneous2Callbacks 1005cb3c     dxguid:dxguid.obj
 0002:0000bb4c       _GUID_NTCallbacks          1005cb4c     dxguid:dxguid.obj
 0002:0000bb5c       _GUID_MotionCompCallbacks  1005cb5c     dxguid:dxguid.obj
 0002:0000bb6c       _GUID_D3DParseUnknownCommandCallback 1005cb6c     dxguid:dxguid.obj
 0002:0000bb7c       _GUID_UserModeDriverPassword 1005cb7c     dxguid:dxguid.obj
 0002:0000bb8c       _GUID_UserModeDriverInfo   1005cb8c     dxguid:dxguid.obj
 0002:0000bb9c       _GUID_OptSurfaceUmodeInfo  1005cb9c     dxguid:dxguid.obj
 0002:0000bbac       _GUID_OptSurfaceKmodeInfo  1005cbac     dxguid:dxguid.obj
 0002:0000bbbc       _GUID_DDStereoMode         1005cbbc     dxguid:dxguid.obj
 0002:0000bbcc       _GUID_DDMoreSurfaceCaps    1005cbcc     dxguid:dxguid.obj
 0002:0000bbdc       _GUID_ZPixelFormats        1005cbdc     dxguid:dxguid.obj
 0002:0000bbec       _GUID_D3DExtendedCaps      1005cbec     dxguid:dxguid.obj
 0002:0000bbfc       _GUID_KernelCaps           1005cbfc     dxguid:dxguid.obj
 0002:0000bc0c       _GUID_KernelCallbacks      1005cc0c     dxguid:dxguid.obj
 0002:0000bc1c       _GUID_NonLocalVidMemCaps   1005cc1c     dxguid:dxguid.obj
 0002:0000bc2c       _GUID_D3DCallbacks3        1005cc2c     dxguid:dxguid.obj
 0002:0000bc3c       _GUID_D3DCallbacks2        1005cc3c     dxguid:dxguid.obj
 0002:0000bc4c       _GUID_VideoPortCaps        1005cc4c     dxguid:dxguid.obj
 0002:0000bc5c       _GUID_ColorControlCallbacks 1005cc5c     dxguid:dxguid.obj
 0002:0000bc6c       _GUID_VideoPortCallbacks   1005cc6c     dxguid:dxguid.obj
 0002:0000bc7c       _GUID_MiscellaneousCallbacks 1005cc7c     dxguid:dxguid.obj
 0002:0000bc8c       _IID_IDirectDrawPalette2   1005cc8c     dxguid:dxguid.obj
 0002:0000bc9c       _IID_IDirectDrawOptSurface 1005cc9c     dxguid:dxguid.obj
 0002:0000bcac       _GUID_DirectDrawPaletteStream 1005ccac     dxguid:dxguid.obj
 0002:0000bcbc       _GUID_DirectDrawSurfaceStream 1005ccbc     dxguid:dxguid.obj
 0002:0000bccc       _IID_IDirectDrawFactory2   1005cccc     dxguid:dxguid.obj
 0002:0000bcdc       _CLSID_DirectDrawFactory2  1005ccdc     dxguid:dxguid.obj
 0002:0000bcec       _IID_IDirectDrawSurfaceNew 1005ccec     dxguid:dxguid.obj
 0002:0000bcfc       _IID_IDirectDrawSurface7   1005ccfc     dxguid:dxguid.obj
 0002:0000bd0c       _IID_IDirectDraw7          1005cd0c     dxguid:dxguid.obj
 0002:0000bd1c       _CLSID_DirectDrawClipper   1005cd1c     dxguid:dxguid.obj
 0002:0000bd2c       _CLSID_DirectDraw7         1005cd2c     dxguid:dxguid.obj
 0002:0000bd3c       _CLSID_DirectDraw          1005cd3c     dxguid:dxguid.obj
 0002:0000bde8       ??_7ConfigManager@@6B@     1005cde8     Engined:ConfigManager.obj
 0002:0000bdec       ??_C@_0BB@JMMJKNDP@m_Type?5?$DN?$DN?5CV_Int?$AA@ 1005cdec     Engined:ConfigManager.obj
 0002:0000be00       ??_C@_0BE@OMHLHDAH@inc?2ConfigManager?4h?$AA@ 1005ce00     Engined:ConfigManager.obj
 0002:0000be14       ??_C@_0BD@POHBEFGO@m_Type?5?$DN?$DN?5CV_Float?$AA@ 1005ce14     Engined:ConfigManager.obj
 0002:0000be28       ??_C@_0BE@BGFOKOJP@m_Type?5?$DN?$DN?5CV_String?$AA@ 1005ce28     Engined:ConfigManager.obj
 0002:0000c11c       __real@3a83126f            1005d11c     Engined:Timing.obj
 0002:0000c120       __real@3e19999a            1005d120     Engined:Timing.obj
 0002:0000c124       __real@3f400000            1005d124     Engined:Timing.obj
 0002:0000c664       ??_C@_0P@PMJPJKJI@SetSP?$CI?$CJ?5failed?$AA@ 1005d664     GSClient_d:GSClient_DP8.obj
 0002:0000c674       ??_C@_0CA@EEDCMLGH@Could?5not?5initialize?5DirectPlay?$AA@ 1005d674     GSClient_d:GSClient_DP8.obj
 0002:0000c694       ??_C@_0BK@FBFLCICJ@COM?5initialization?5failed?$AA@ 1005d694     GSClient_d:GSClient_DP8.obj
 0002:0000c6b0       ??_C@_0BC@IMFCEGLB@gls?5enum?5response?$AA@ 1005d6b0     GSClient_d:GSClient_DP8.obj
 0002:0000c6c4       ??_C@_0M@PLDAEHDP@gls?5receive?$AA@ 1005d6c4     GSClient_d:GSClient_DP8.obj
 0002:0000c6d0       ??_7GSClient_DP8@@6B@      1005d6d0     GSClient_d:GSClient_DP8.obj
 0002:0000c700       ??_7IGSClient@@6B@         1005d700     GSClient_d:GSClient_DP8.obj
 0002:0000c730       ??_C@_19EBEADLAH@?$AAp?$AAo?$AAr?$AAt?$AA?$AA@ 1005d730     GSClient_d:GSClient_DP8.obj
 0002:0000c73c       ??_C@_1BC@FGKBPBF@?$AAh?$AAo?$AAs?$AAt?$AAn?$AAa?$AAm?$AAe?$AA?$AA@ 1005d73c     GSClient_d:GSClient_DP8.obj
 0002:0000c750       ??_C@_0L@DPAEBDDD@m_pBrowser?$AA@ 1005d750     GSClient_d:GSClient_DP8.obj
 0002:0000c75c       ??_C@_0CM@FMCNGIMP@c?3?2dev?2globalserver?2client?2gscli@ 1005d75c     GSClient_d:GSClient_DP8.obj
 0002:0000c788       ??_C@_0CN@OCNBAHNI@c?3?2dev?2globalserver?2shared?2criti@ 1005d788     GSClient_d:GSClient_DP8.obj
 0002:0000c7b8       ??_C@_0BC@KBDMBKEH@deque?$DMT?$DO?5too?5long?$AA@ 1005d7b8     GSClient_d:GSClient_DP8.obj
 0002:0000c7d0       ??_7type_info@@6B@         1005d7d0     MSVCRTD:ti_inst.obj
 0002:0000c828       ??_C@_0BO@GNIAFIKK@Unknown?5Runtime?5Check?5Error?6?$AN?$AA@ 1005d828     MSVCRTD:error.obj
 0002:0000c848       ??_C@_0DG@HKJMLLLP@A?5local?5variable?5was?5used?5before@ 1005d848     MSVCRTD:error.obj
 0002:0000c880       ??_C@_0BN@FFOINMNJ@Stack?5memory?5was?5corrupted?6?$AN?$AA@ 1005d880     MSVCRTD:error.obj
 0002:0000c8a0       ??_C@_0BBN@GPMLNJCF@A?5cast?5to?5a?5smaller?5data?5type?5ha@ 1005d8a0     MSVCRTD:error.obj
 0002:0000c9c0       ??_C@_0NN@NGPKDKPD@The?5value?5of?5ESP?5was?5not?5properl@ 1005d9c0     MSVCRTD:error.obj
 0002:0000caa0       ??_C@_0CA@IODNCDPG@Run?9Time?5Check?5Failure?5?$CD?$CFd?5?9?5?$CFs?$AA@ 1005daa0     MSVCRTD:error.obj
 0002:0000cadc       ??_C@_0L@CJCNHJJG@?6?$ANModule?3?7?$AA@ 1005dadc     MSVCRTD:error.obj
 0002:0000cae8       ??_C@_08GJEJCAJD@?6?$ANLine?3?7?$AA@ 1005dae8     MSVCRTD:error.obj
 0002:0000caf4       ??_C@_0CI@INCLAPNB@Invalid?5pointer?5was?5assigned?5at?6@ 1005daf4     MSVCRTD:error.obj
 0002:0000cb1c       ??_C@_0BB@JEGFEAAM@?8?5was?5corrupted?4?$AA@ 1005db1c     MSVCRTD:error.obj
 0002:0000cb30       ??_C@_0BM@FGFAMDLF@Stack?5around?5the?5variable?5?8?$AA@ 1005db30     MSVCRTD:error.obj
 0002:0000cb4c       ??_C@_0DA@BEGFPCGG@A?5variable?5is?5being?5used?5without@ 1005db4c     MSVCRTD:error.obj
 0002:0000cb7c       ??_C@_0CH@LOIIHGKM@?8?5is?5being?5used?5without?5being?5de@ 1005db7c     MSVCRTD:error.obj
 0002:0000cba4       ??_C@_0P@HLKMHJCG@The?5variable?5?8?$AA@ 1005dba4     MSVCRTD:error.obj
 0002:0000cbb4       ??_C@_0BC@KNBMEBEO@IsDebuggerPresent?$AA@ 1005dbb4     MSVCRTD:error.obj
 0002:0000cbc8       ??_C@_0N@HAOHNMDE@Kernel32?4dll?$AA@ 1005dbc8     MSVCRTD:error.obj
 0002:0000cbd8       ??_C@_08EIBOPINA@crtdll?4c?$AA@ 1005dbd8     MSVCRTD:crtdll.obj
 0002:0000cbf4       ??_C@_0CK@CNLNOEPB@Local?5variable?5used?5before?5initi@ 1005dbf4     MSVCRTD:userapi.obj
 0002:0000cc20       ??_C@_0BI@CIGMDCBH@Stack?5memory?5corruption?$AA@ 1005dc20     MSVCRTD:userapi.obj
 0002:0000cc38       ??_C@_0CK@FEGOIOPB@Cast?5to?5smaller?5type?5causing?5los@ 1005dc38     MSVCRTD:userapi.obj
 0002:0000cc64       ??_C@_0BJ@HEGAHDFO@Stack?5pointer?5corruption?$AA@ 1005dc64     MSVCRTD:userapi.obj
 0002:0000cc80       ??_C@_0M@HHEBEAAO@MSPDB71?4DLL?$AA@ 1005dc80     MSVCRTD:pdblkup.obj
 0002:0000cc8c       ??_C@_01KDCPPGHE@r?$AA@    1005dc8c     MSVCRTD:pdblkup.obj
 0002:0000cc90       ??_C@_08ONJBEOFA@PDBClose?$AA@ 1005dc90     MSVCRTD:pdblkup.obj
 0002:0000cc9c       ??_C@_08NINFAAFA@DBIClose?$AA@ 1005dc9c     MSVCRTD:pdblkup.obj
 0002:0000cca8       ??_C@_08LIGPJJNA@ModClose?$AA@ 1005dca8     MSVCRTD:pdblkup.obj
 0002:0000ccb4       ??_C@_0O@IPLOKOKN@ModQueryLines?$AA@ 1005dcb4     MSVCRTD:pdblkup.obj
 0002:0000ccc4       ??_C@_0BE@GDNPNLGH@DBIQueryModFromAddr?$AA@ 1005dcc4     MSVCRTD:pdblkup.obj
 0002:0000ccd8       ??_C@_0L@KPMOCKEL@PDBOpenDBI?$AA@ 1005dcd8     MSVCRTD:pdblkup.obj
 0002:0000cce4       ??_C@_0BB@PENKIMFE@PDBOpenValidate3?$AA@ 1005dce4     MSVCRTD:pdblkup.obj
 0002:0000ccf8       ??_C@_0N@KIGOLBLC@Module32Next?$AA@ 1005dcf8     MSVCRTD:pdblkup.obj
 0002:0000cd08       ??_C@_0O@CNMFJJGO@Module32First?$AA@ 1005dd08     MSVCRTD:pdblkup.obj
 0002:0000cd18       ??_C@_0BF@OCLFCNKN@GetModuleInformation?$AA@ 1005dd18     MSVCRTD:pdblkup.obj
 0002:0000cd30       ??_C@_0BD@FIEJBLME@EnumProcessModules?$AA@ 1005dd30     MSVCRTD:pdblkup.obj
 0002:0000cd44       ??_C@_09EPMADGLA@PSAPI?4DLL?$AA@ 1005dd44     MSVCRTD:pdblkup.obj
 0002:0000cd50       ??_C@_0BJ@JEFKDHMD@CreateToolhelp32Snapshot?$AA@ 1005dd50     MSVCRTD:pdblkup.obj
 0002:0000cd6c       ??_C@_0O@CHDGJGFP@ImageNtHeader?$AA@ 1005dd6c     MSVCRTD:pdblkup.obj
 0002:0000cd7c       ??_C@_0N@KBGMOMJO@IMAGEHLP?4DLL?$AA@ 1005dd7c     MSVCRTD:pdblkup.obj
 0002:0000cd8c       ??_C@_0N@NHGLKGEC@KERNEL32?4DLL?$AA@ 1005dd8c     MSVCRTD:pdblkup.obj
 0002:0000cd9c       ??_C@_0BF@BMIHBHCA@EnvironmentDirectory?$AA@ 1005dd9c     MSVCRTD:pdblkup.obj
 0002:0000cdb4       ??_C@_0CN@KGLAKABH@SOFTWARE?2Microsoft?2VisualStudio?2@ 1005ddb4     MSVCRTD:pdblkup.obj
 0002:0000cde4       ??_C@_0M@HLOHPNFA@RegCloseKey?$AA@ 1005dde4     MSVCRTD:pdblkup.obj
 0002:0000cdf0       ??_C@_0BB@HHEIPGME@RegQueryValueExA?$AA@ 1005ddf0     MSVCRTD:pdblkup.obj
 0002:0000ce04       ??_C@_0O@DCOGKJGG@RegOpenKeyExA?$AA@ 1005de04     MSVCRTD:pdblkup.obj
 0002:0000ce14       ??_C@_0N@JJPEKNFO@ADVAPI32?4DLL?$AA@ 1005de14     MSVCRTD:pdblkup.obj
 0002:0000ce84       ??_R1A@?0A@A@type_info@@8  1005de84     MSVCRTD:ti_inst.obj
 0002:0000ce9c       ??_R2type_info@@8          1005de9c     MSVCRTD:ti_inst.obj
 0002:0000cea4       ??_R3type_info@@8          1005dea4     MSVCRTD:ti_inst.obj
 0002:0000ceb4       ??_R4type_info@@6B@        1005deb4     MSVCRTD:ti_inst.obj
 0002:0000cec8       ___rtc_iaa                 1005dec8     MSVCRTD:initsect.obj
 0002:0000d038       ___rtc_izz                 1005e038     MSVCRTD:initsect.obj
 0002:0000d03c       ___rtc_taa                 1005e03c     MSVCRTD:initsect.obj
 0002:0000d1ac       ___rtc_tzz                 1005e1ac     MSVCRTD:initsect.obj
 0002:0000d22c       __CT??_R0?AVexception@@@8??0exception@@QAE@ABV0@@Z12 1005e22c     StoredProperty.obj
 0002:0000d248       __CT??_R0?AVlogic_error@std@@@8??0logic_error@std@@QAE@ABV01@@Z40 1005e248     StoredProperty.obj
 0002:0000d264       __CT??_R0?AVlength_error@std@@@8??0length_error@std@@QAE@ABV01@@Z40 1005e264     StoredProperty.obj
 0002:0000d280       __CTA3?AVlength_error@std@@ 1005e280     StoredProperty.obj
 0002:0000d290       __TI3?AVlength_error@std@@ 1005e290     StoredProperty.obj
 0002:0000d3d8       __CT??_R0?AVout_of_range@std@@@8??0out_of_range@std@@QAE@ABV01@@Z40 1005e3d8     StoredProperty.obj
 0002:0000d3f4       __CTA3?AVout_of_range@std@@ 1005e3f4     StoredProperty.obj
 0002:0000d404       __TI3?AVout_of_range@std@@ 1005e404     StoredProperty.obj
 0002:0000d658       __CT??_R0?AVDPlayException@@@88 1005e658     DarkPeer.obj
 0002:0000d674       __CTA1?AVDPlayException@@  1005e674     DarkPeer.obj
 0002:0000d67c       __TI1?AVDPlayException@@   1005e67c     DarkPeer.obj
 0002:0000e630       __CT??_R0?AVbad_cast@@@8??0bad_cast@@QAE@ABV0@@Z12 1005f630     stdafx.obj
 0002:0000e64c       __CTA2?AVbad_cast@@        1005f64c     stdafx.obj
 0002:0000e658       __TI2?AVbad_cast@@         1005f658     stdafx.obj
 0002:0000f7ec       __IMPORT_DESCRIPTOR_VERSION 100607ec     Engined:VERSION.dll
 0002:0000f800       __IMPORT_DESCRIPTOR_COMCTL32 10060800     comctl32:COMCTL32.dll
 0002:0000f814       __IMPORT_DESCRIPTOR_KERNEL32 10060814     kernel32:KERNEL32.dll
 0002:0000f828       __IMPORT_DESCRIPTOR_USER32 10060828     user32:USER32.dll
 0002:0000f83c       __IMPORT_DESCRIPTOR_ole32  1006083c     ole32:ole32.dll
 0002:0000f850       __IMPORT_DESCRIPTOR_MSVCR71D 10060850     MSVCRTD:MSVCR71D.dll
 0002:0000f864       __IMPORT_DESCRIPTOR_MSVCP71D 10060864     msvcprtd:MSVCP71D.dll
 0002:0000f878       __NULL_IMPORT_DESCRIPTOR   10060878     Engined:VERSION.dll
 0003:00000000       ___xc_a                    10063000     MSVCRTD:cinitexe.obj
 0003:0000014c       ___xc_z                    1006314c     MSVCRTD:cinitexe.obj
 0003:00000150       ___xi_a                    10063150     MSVCRTD:cinitexe.obj
 0003:00000154       ___xi_z                    10063154     MSVCRTD:cinitexe.obj
 0003:000004c0       ?lastWeap@@3PAKA           100634c0     Commands.obj
 0003:000004c8       ?CommandList@@3PAUCommandPatchList@@A 100634c8     Commands.obj
 0003:00000530       ??_R0?AVDPlayException@@@8 10063530     Net.obj
 0003:00000550       ??_R0?AVexception@@@8      10063550     StoredProperty.obj
 0003:00000568       ??_R0?AVlogic_error@std@@@8 10063568     StoredProperty.obj
 0003:00000588       ??_R0?AVlength_error@std@@@8 10063588     StoredProperty.obj
 0003:000005a8       ??_R0?AVout_of_range@std@@@8 100635a8     StoredProperty.obj
 0003:000005c8       ?kDefaultName@@3PBDB       100635c8     PlayerDB.obj
 0003:000005e8       ?ConsoleCmds@@3PAUConsoleCommand@@A 100635e8     Console.obj
 0003:000008e8       ?g_numCommands@@3HA        100638e8     Console.obj
 0003:00000914       ?scriptWarning@@3PBDB      10063914     FileHash.obj
 0003:00000920       ?g_ppDamageModel@@3PAPAUIDamageModel@@A 10063920     Main.obj
 0003:00000924       ?g_pActReact@@3PAUIActReactSrv@@A 10063924     Main.obj
 0003:00000928       ?g_pNetSrv@@3PAUINetworkingSrv@@A 10063928     Main.obj
 0003:0000092c       ?g_cDamageSrvScriptService@@3PAUIDamageSrv@@A 1006392c     Main.obj
 0003:00000930       ?g_cDarkGameSrvScriptService@@3PAUIDarkGameSrv@@A 10063930     Main.obj
 0003:00000934       ?g_cSoundScrSrvScriptService@@3PAUISoundScrSrv@@A 10063934     Main.obj
 0003:00000938       ?g_ModelNameDesc@@3PAUsPropertyDesc@@A 10063938     Main.obj
 0003:0000093c       ?g_MeshAttachDesc@@3PAUsPropertyDesc@@A 1006393c     Main.obj
 0003:00000940       ?g_PickStateDesc@@3PAUsPropertyDesc@@A 10063940     Main.obj
 0003:00000944       ?g_CurWpnDmgDesc@@3PAUsPropertyDesc@@A 10063944     Main.obj
 0003:00000948       ?g_InvBeingTakenDesc@@3PAUsPropertyDesc@@A 10063948     Main.obj
 0003:0000094c       ?g_SelfIllumDesc@@3PAUsPropertyDesc@@A 1006394c     Main.obj
 0003:00000950       ?g_AmbientHackedDesc@@3PAUsPropertyDesc@@A 10063950     Main.obj
 0003:00000954       ?g_StackCountDesc@@3PAUsPropertyDesc@@A 10063954     Main.obj
 0003:00000958       ?g_DeathStageDesc@@3PAUsPropertyDesc@@A 10063958     Main.obj
 0003:0000095c       ?g_SpeechHandles@@3PAV?$cDynArray@H@@A 1006395c     Main.obj
 0003:00000960       ?_highlit_obj@@3PAKA       10063960     Main.obj
 0003:00000964       ?_g_PickCurrentObj@@3PAKA  10063964     Main.obj
 0003:00000968       ?_frobWorldSelectObj@@3PAKA 10063968     Main.obj
 0003:0000096c       ?_g_arrowObj@@3PAKA        1006396c     Main.obj
 0003:00000970       ?_gPlayerCam@@3PAPAUPlayerCamera@@A 10063970     Main.obj
 0003:00000974       ?_gNoMoveKeys@@3PAHA       10063974     Main.obj
 0003:00000978       ?_gPlayerObj@@3PAKA        10063978     Main.obj
 0003:0000097c       ?pConsoleState@@3PAKA      1006397c     Main.obj
 0003:00000980       ?pMissFlags@@3PAKA         10063980     Main.obj
 0003:00000984       ?pSlowFrame@@3PAHA         10063984     Main.obj
 0003:00000988       ?pChNil@@3PADA             10063988     Main.obj
 0003:0000098c       ?DarkMessageFont@@3PAPAUIRes@@A 1006398c     Main.obj
 0003:00000990       ?mission_map@@3PAHA        10063990     Main.obj
 0003:00000994       ?GhostRemTag@@3PAU_TagFileTag@@A 10063994     Main.obj
 0003:00000998       ?cmdterm_text@@3PADA       10063998     Main.obj
 0003:0000099c       ?net_cap_physics@@3PAHA    1006399c     Main.obj
 0003:000009a0       ?g_gamesysName@@3PADA      100639a0     Main.obj
 0003:000009a4       ?g_ModeBaseSpeeds@@3PAMA   100639a4     Main.obj
 0003:000009a8       ?g_AllPlayersFinishedSynch@@3PAHA 100639a8     Main.obj
 0003:000009ac       ?g_NumPlayersNotInGameMode@@3PAHA 100639ac     Main.obj
 0003:000009b0       ?g_bSpeechDatabaseLoaded@@3PAHA 100639b0     Main.obj
 0003:000009b4       ?g_Domain@@3PAVcSpeechDomain@@A 100639b4     Main.obj
 0003:000009b8       ?g_pLastSchemaPlay@@3PAUsSchemaPlay@@A 100639b8     Main.obj
 0003:000009bc       ?playingSchemas@@3PAVSchemaPlayList@@A 100639bc     Main.obj
 0003:000009c0       ?g_AIActTypeNames@@3PAPADA 100639c0     Main.obj
 0003:000009c4       ?g_ppszAISpeed@@3PAPADA    100639c4     Main.obj
 0003:000009c8       ?g_AISpeeds@@3PAPAMA       100639c8     Main.obj
 0003:000009cc       ?dword_6F55D4@@3PAKA       100639cc     Main.obj
 0003:000009d0       ?dword_6F55DC@@3PAKA       100639d0     Main.obj
 0003:000009d4       ?dword_671B8C@@3PAKA       100639d4     Main.obj
 0003:000009d8       ?g_SynchPanelDesc@@3PBUsDarkPanelDesc@@B 100639d8     Main.obj
 0003:000009dc       ?g_DefaultPanelStyle@@3PAUguiStyle@@A 100639dc     Main.obj
 0003:000009e0       ?g_pAIDefAwareDelay@@3PAUsAIAwareDelay@@A 100639e0     Main.obj
 0003:000009e4       ?enable_inv@@3PAHA         100639e4     Main.obj
 0003:000009e8       ?g_TotalBowFrames@@3PAHA   100639e8     Main.obj
 0003:000009ec       ?g_BowEquippedTime@@3PAJA  100639ec     Main.obj
 0003:000009f0       ?g_BowAttackStarted@@3PAHA 100639f0     Main.obj
 0003:000009f4       ?g_BowIsForceFinished@@3PAHA 100639f4     Main.obj
 0003:000009f8       ?g_BowWobble@@3PAMA        100639f8     Main.obj
 0003:000009fc       ?g_BowPutAwayTime@@3PAHA   100639fc     Main.obj
 0003:00000a00       ?arrowNocked@@3PAHA        10063a00     Main.obj
 0003:00000a04       ?pSD_eAIPriority@@3PBUsStructDesc@@B 10063a04     Main.obj
 0003:00000a08       ?pSD_tMetaPropertyPriority@@3PBUsStructDesc@@B 10063a08     Main.obj
 0003:00000a0c       ?pSD_ContainRelType@@3PBUsStructDesc@@B 10063a0c     Main.obj
 0003:00000a10       ?pSD_sAmplifyParam@@3PBUsStructDesc@@B 10063a10     Main.obj
 0003:00000a14       ?pSD_sWeakPointParam@@3PBUsStructDesc@@B 10063a14     Main.obj
 0003:00000a18       ?pSD_sStimSourceData@@3PBUsStructDesc@@B 10063a18     Main.obj
 0003:00000a1c       ?pSD_sStimSourceDesc@@3PBUsStructDesc@@B 10063a1c     Main.obj
 0003:00000a20       ?pSD_eSlayResult@@3PBUsStructDesc@@B 10063a20     Main.obj
 0003:00000a24       ?pSD_PropagateSourceScale@@3PBUsStructDesc@@B 10063a24     Main.obj
 0003:00000a28       ?pSD_sFlinder@@3PBUsStructDesc@@B 10063a28     Main.obj
 0003:00000a2c       ?pSD_sReceptron@@3PBUsStructDesc@@B 10063a2c     Main.obj
 0003:00000a30       ?pSD_tSensorCount@@3PBUsStructDesc@@B 10063a30     Main.obj
 0003:00000a34       ?pSD_ReceptronID@@3PBUsStructDesc@@B 10063a34     Main.obj
 0003:00000a38       ?pSD_sStimulateParam@@3PBUsStructDesc@@B 10063a38     Main.obj
 0003:00000a3c       ?pSD_eInventoryType@@3PBUsStructDesc@@B 10063a3c     Main.obj
 0003:00000a40       ?pSD_BOOL@@3PBUsStructDesc@@B 10063a40     Main.obj
 0003:00000a44       ?pSD_int@@3PBUsStructDesc@@B 10063a44     Main.obj
 0003:00000a48       ?pSD_float@@3PBUsStructDesc@@B 10063a48     Main.obj
 0003:00000a4c       ?pSD_Label@@3PBUsStructDesc@@B 10063a4c     Main.obj
 0003:00000a50       ?pSD_Vector@@3PBUsStructDesc@@B 10063a50     Main.obj
 0003:00000a54       ?pSD_CollType@@3PBUsStructDesc@@B 10063a54     Main.obj
 0003:00000a58       ?pSD_sLightProp@@3PBUsStructDesc@@B 10063a58     Main.obj
 0003:00000a5c       ?pSD_ColorInfo@@3PBUsStructDesc@@B 10063a5c     Main.obj
 0003:00000a60       ?pSD_sAnimLightProp@@3PBUsStructDesc@@B 10063a60     Main.obj
 0003:00000a64       ?pSD_sExtraLightProp@@3PBUsStructDesc@@B 10063a64     Main.obj
 0003:00000a68       ?pSD_Position@@3PBUsStructDesc@@B 10063a68     Main.obj
 0003:00000a6c       ?pSD_sMotActorTagList@@3PBUsStructDesc@@B 10063a6c     Main.obj
 0003:00000a70       ?pSD_tMotorControllerType@@3PBUsStructDesc@@B 10063a70     Main.obj
 0003:00000a74       ?pSD_eMSwordActionType@@3PBUsStructDesc@@B 10063a74     Main.obj
 0003:00000a78       ?pSD_sMotPhysLimits@@3PBUsStructDesc@@B 10063a78     Main.obj
 0003:00000a7c       ?pSD_sMGaitSkillData@@3PBUsStructDesc@@B 10063a7c     Main.obj
 0003:00000a80       ?pSD_sMPlayerLimbOffsets@@3PBUsStructDesc@@B 10063a80     Main.obj
 0003:00000a84       ?pSD_sScriptProp@@3PBUsStructDesc@@B 10063a84     Main.obj
 0003:00000a88       ?pSD_sStimMsgParam@@3PBUsStructDesc@@B 10063a88     Main.obj
 0003:00000a8c       ?pSD_TrapFlags@@3PBUsStructDesc@@B 10063a8c     Main.obj
 0003:00000a90       ?pSD_sHeatDiskCluster@@3PBUsStructDesc@@B 10063a90     Main.obj
 0003:00000a94       ?pSD_sSpark@@3PBUsStructDesc@@B 10063a94     Main.obj
 0003:00000a98       ?pSD_sMeshAttach@@3PBUsStructDesc@@B 10063a98     Main.obj
 0003:00000a9c       ?pSD_sFrobInfo@@3PBUsStructDesc@@B 10063a9c     Main.obj
 0003:00000aa0       ?pSD_FrobProxyInfo@@3PBUsStructDesc@@B 10063aa0     Main.obj
 0003:00000aa4       ?pSD_eFrobHandler@@3PBUsStructDesc@@B 10063aa4     Main.obj
 0003:00000aa8       ?pSD_sRotDoorProp@@3PBUsStructDesc@@B 10063aa8     Main.obj
 0003:00000aac       ?pSD_sTransDoorProp@@3PBUsStructDesc@@B 10063aac     Main.obj
 0003:00000ab0       ?pSD_sTweqSimpleConfig@@3PBUsStructDesc@@B 10063ab0     Main.obj
 0003:00000ab4       ?pSD_sTweqVectorConfig@@3PBUsStructDesc@@B 10063ab4     Main.obj
 0003:00000ab8       ?pSD_sTweqJointsConfig@@3PBUsStructDesc@@B 10063ab8     Main.obj
 0003:00000abc       ?pSD_sTweqLockConfig@@3PBUsStructDesc@@B 10063abc     Main.obj
 0003:00000ac0       ?pSD_sTweqModelsConfig@@3PBUsStructDesc@@B 10063ac0     Main.obj
 0003:00000ac4       ?pSD_sTweqEmitterConfig@@3PBUsStructDesc@@B 10063ac4     Main.obj
 0003:00000ac8       ?pSD_sTweqSimpleState@@3PBUsStructDesc@@B 10063ac8     Main.obj
 0003:00000acc       ?pSD_sTweqLockState@@3PBUsStructDesc@@B 10063acc     Main.obj
 0003:00000ad0       ?pSD_sTweqVectorState@@3PBUsStructDesc@@B 10063ad0     Main.obj
 0003:00000ad4       ?pSD_sTweqJointsState@@3PBUsStructDesc@@B 10063ad4     Main.obj
 0003:00000ad8       ?pSD_sTweqControl@@3PBUsStructDesc@@B 10063ad8     Main.obj
 0003:00000adc       ?pSD_sWeaponOffset@@3PBUsStructDesc@@B 10063adc     Main.obj
 0003:00000ae0       ?pSD_sKeyInfo@@3PBUsStructDesc@@B 10063ae0     Main.obj
 0003:00000ae4       ?pSD_sInvRenderType@@3PBUsStructDesc@@B 10063ae4     Main.obj
 0003:00000ae8       ?pSD_sSuspiciousInfo@@3PBUsStructDesc@@B 10063ae8     Main.obj
 0003:00000aec       ?pSD_sQVarParam@@3PBUsStructDesc@@B 10063aec     Main.obj
 0003:00000af0       ?pSD_sBashParamsProp@@3PBUsStructDesc@@B 10063af0     Main.obj
 0003:00000af4       ?pSD_sBashVars@@3PBUsStructDesc@@B 10063af4     Main.obj
 0003:00000af8       ?pSD_sCollParam@@3PBUsStructDesc@@B 10063af8     Main.obj
 0003:00000afc       ?pSD_sPermeate@@3PBUsStructDesc@@B 10063afc     Main.obj
 0003:00000b00       ?pSD_sPropAddParam@@3PBUsStructDesc@@B 10063b00     Main.obj
 0003:00000b04       ?pSD_sPropRemParam@@3PBUsStructDesc@@B 10063b04     Main.obj
 0003:00000b08       ?pSD_sObjCreateParam@@3PBUsStructDesc@@B 10063b08     Main.obj
 0003:00000b0c       ?pSD_sObjMoveParam@@3PBUsStructDesc@@B 10063b0c     Main.obj
 0003:00000b10       ?pSD_sDamageParam@@3PBUsStructDesc@@B 10063b10     Main.obj
 0003:00000b14       ?pSD_sSpoofDamageParam@@3PBUsStructDesc@@B 10063b14     Main.obj
 0003:00000b18       ?pSD_sSetModelParam@@3PBUsStructDesc@@B 10063b18     Main.obj
 0003:00000b1c       ?pSD_sAware@@3PBUsStructDesc@@B 10063b1c     Main.obj
 0003:00000b20       ?pSD_sCreatureAttachInfo@@3PBUsStructDesc@@B 10063b20     Main.obj
 0003:00000b24       ?pSD_sCreatureHandle@@3PBUsStructDesc@@B 10063b24     Main.obj
 0003:00000b28       ?pSD_sCreaturePose@@3PBUsStructDesc@@B 10063b28     Main.obj
 0003:00000b2c       ?pSD_sAdvPickTransCfg@@3PBUsStructDesc@@B 10063b2c     Main.obj
 0003:00000b30       ?pSD_sAdvPickSoundCfg@@3PBUsStructDesc@@B 10063b30     Main.obj
 0003:00000b34       ?pSD_sAdvPickStateCfg@@3PBUsStructDesc@@B 10063b34     Main.obj
 0003:00000b38       ?pSD_PickSrc@@3PBUsStructDesc@@B 10063b38     Main.obj
 0003:00000b3c       ?pSD_sPickCfg@@3PBUsStructDesc@@B 10063b3c     Main.obj
 0003:00000b40       ?pSD_sPickState@@3PBUsStructDesc@@B 10063b40     Main.obj
 0003:00000b44       ?pSD_sBeltLink@@3PBUsStructDesc@@B 10063b44     Main.obj
 0003:00000b48       ?pSD_sAltLink@@3PBUsStructDesc@@B 10063b48     Main.obj
 0003:00000b4c       ?pSD_sBreathConfig@@3PBUsStructDesc@@B 10063b4c     Main.obj
 0003:00000b50       ?pSD_sCombatVars@@3PBUsStructDesc@@B 10063b50     Main.obj
 0003:00000b54       ?pSD_cBaseGunDescs@@3PBUsStructDesc@@B 10063b54     Main.obj
 0003:00000b58       ?pSD_sAIGunDesc@@3PBUsStructDesc@@B 10063b58     Main.obj
 0003:00000b5c       ?pSD_sGunState@@3PBUsStructDesc@@B 10063b5c     Main.obj
 0003:00000b60       ?pSD_sProjectileData@@3PBUsStructDesc@@B 10063b60     Main.obj
 0003:00000b64       ?pSD_sProjectile@@3PBUsStructDesc@@B 10063b64     Main.obj
 0003:00000b68       ?pSD_sFlashData@@3PBUsStructDesc@@B 10063b68     Main.obj
 0003:00000b6c       ?pSD_sLootProp@@3PBUsStructDesc@@B 10063b6c     Main.obj
 0003:00000b70       ?pSD_sMissionData@@3PBUsStructDesc@@B 10063b70     Main.obj
 0003:00000b74       ?pSD_sMapSourceData@@3PBUsStructDesc@@B 10063b74     Main.obj
 0003:00000b78       ?pSD_sAutomapProperty@@3PBUsStructDesc@@B 10063b78     Main.obj
 0003:00000b7c       ?pSD_tQVarVal@@3PBUsStructDesc@@B 10063b7c     Main.obj
 0003:00000b80       ?pSD_sVoiceData@@3PBUsStructDesc@@B 10063b80     Main.obj
 0003:00000b84       ?pSD_tDarkStat@@3PBUsStructDesc@@B 10063b84     Main.obj
 0003:00000b88       ?pSD_sAIProp@@3PBUsStructDesc@@B 10063b88     Main.obj
 0003:00000b8c       ?pSD_sAIEfficiency@@3PBUsStructDesc@@B 10063b8c     Main.obj
 0003:00000b90       ?pSD_sAIAlertness@@3PBUsStructDesc@@B 10063b90     Main.obj
 0003:00000b94       ?pSD_sAIFrustrated@@3PBUsStructDesc@@B 10063b94     Main.obj
 0003:00000b98       ?pSD_sAIAlertCap@@3PBUsStructDesc@@B 10063b98     Main.obj
 0003:00000b9c       ?pSD_sAIVisibility@@3PBUsStructDesc@@B 10063b9c     Main.obj
 0003:00000ba0       ?pSD_eAIMode@@3PBUsStructDesc@@B 10063ba0     Main.obj
 0003:00000ba4       ?pSD_eAITeam@@3PBUsStructDesc@@B 10063ba4     Main.obj
 0003:00000ba8       ?pSD_VisionJoint@@3PBUsStructDesc@@B 10063ba8     Main.obj
 0003:00000bac       ?pSD_sAIVisionDesc@@3PBUsStructDesc@@B 10063bac     Main.obj
 0003:00000bb0       ?pSD_sAIVisibilityMods@@3PBUsStructDesc@@B 10063bb0     Main.obj
 0003:00000bb4       ?pSD_sAIVisibilityControl@@3PBUsStructDesc@@B 10063bb4     Main.obj
 0003:00000bb8       ?pSD_sAIAwareCapacitor@@3PBUsStructDesc@@B 10063bb8     Main.obj
 0003:00000bbc       ?pSD_sAIAlertSenseMults@@3PBUsStructDesc@@B 10063bbc     Main.obj
 0003:00000bc0       ?pSD_sAIAwareDelay@@3PBUsStructDesc@@B 10063bc0     Main.obj
 0003:00000bc4       ?pSD_cAIDeviceParams@@3PBUsStructDesc@@B 10063bc4     Main.obj
 0003:00000bc8       ?pSD_cAITurretParams@@3PBUsStructDesc@@B 10063bc8     Main.obj
 0003:00000bcc       ?pSD_cAICameraParams@@3PBUsStructDesc@@B 10063bcc     Main.obj
 0003:00000bd0       ?pSD_ActorID@@3PBUsStructDesc@@B 10063bd0     Main.obj
 0003:00000bd4       ?pSD_eAIRating@@3PBUsStructDesc@@B 10063bd4     Main.obj
 0003:00000bd8       ?pSD_eAIInvestKind@@3PBUsStructDesc@@B 10063bd8     Main.obj
 0003:00000bdc       ?pSD_eAINonHostility@@3PBUsStructDesc@@B 10063bdc     Main.obj
 0003:00000be0       ?pSD_cAINonCombatDmgResp@@3PBUsStructDesc@@B 10063be0     Main.obj
 0003:00000be4       ?pSD_sAIProjectileRel@@3PBUsStructDesc@@B 10063be4     Main.obj
 0003:00000be8       ?pSD_sAIRangedCombatProp@@3PBUsStructDesc@@B 10063be8     Main.obj
 0003:00000bec       ?pSD_sAISoundType@@3PBUsStructDesc@@B 10063bec     Main.obj
 0003:00000bf0       ?pSD_sVantagePtProp@@3PBUsStructDesc@@B 10063bf0     Main.obj
 0003:00000bf4       ?pSD_sCoverPtProp@@3PBUsStructDesc@@B 10063bf4     Main.obj
 0003:00000bf8       ?pSD_sAngleLimitProp@@3PBUsStructDesc@@B 10063bf8     Main.obj
 0003:00000bfc       ?pSD_sAIPathOptions@@3PBUsStructDesc@@B 10063bfc     Main.obj
 0003:00000c00       ?pSD_sAIGamesysPathOptions@@3PBUsStructDesc@@B 10063c00     Main.obj
 0003:00000c04       ?pSD_sAICreatureSizes@@3PBUsStructDesc@@B 10063c04     Main.obj
 0003:00000c08       ?pSD_sAICombatTiming@@3PBUsStructDesc@@B 10063c08     Main.obj
 0003:00000c0c       ?pSD_sAIRangedRanges@@3PBUsStructDesc@@B 10063c0c     Main.obj
 0003:00000c10       ?pSD_cAIRangedWound@@3PBUsStructDesc@@B 10063c10     Main.obj
 0003:00000c14       ?pSD_sAIRangedApplicabilities@@3PBUsStructDesc@@B 10063c14     Main.obj
 0003:00000c18       ?pSD_sAIRangedFleeParams@@3PBUsStructDesc@@B 10063c18     Main.obj
 0003:00000c1c       ?pSD_sAIRangedShootParams@@3PBUsStructDesc@@B 10063c1c     Main.obj
 0003:00000c20       ?pSD_sAIFleeConditions@@3PBUsStructDesc@@B 10063c20     Main.obj
 0003:00000c24       ?pSD_sAINoFleeLink@@3PBUsStructDesc@@B 10063c24     Main.obj
 0003:00000c28       ?pSD_sAIFleeDest@@3PBUsStructDesc@@B 10063c28     Main.obj
 0003:00000c2c       ?pSD_sAIWatchPoint@@3PBUsStructDesc@@B 10063c2c     Main.obj
 0003:00000c30       ?pSD_sAIDefendPoint@@3PBUsStructDesc@@B 10063c30     Main.obj
 0003:00000c34       ?pSD_sAIIdleDirs@@3PBUsStructDesc@@B 10063c34     Main.obj
 0003:00000c38       ?pSD_sAIIdleOrigin@@3PBUsStructDesc@@B 10063c38     Main.obj
 0003:00000c3c       ?pSD_sAICameraLinkData@@3PBUsStructDesc@@B 10063c3c     Main.obj
 0003:00000c40       ?pSD_sAIAcuitySets@@3PBUsStructDesc@@B 10063c40     Main.obj
 0003:00000c44       ?pSD_sAISoundTweaks@@3PBUsStructDesc@@B 10063c44     Main.obj
 0003:00000c48       ?pSD_sHearingStats@@3PBUsStructDesc@@B 10063c48     Main.obj
 0003:00000c4c       ?pSD_sAIBroadcastSettings@@3PBUsStructDesc@@B 10063c4c     Main.obj
 0003:00000c50       ?pSD_sAIFollowLink@@3PBUsStructDesc@@B 10063c50     Main.obj
 0003:00000c54       ?pSD_sAISignalResponse@@3PBUsStructDesc@@B 10063c54     Main.obj
 0003:00000c58       ?pSD_sAIThreatResponse@@3PBUsStructDesc@@B 10063c58     Main.obj
 0003:00000c5c       ?pSD_sAIAlertResponse@@3PBUsStructDesc@@B 10063c5c     Main.obj
 0003:00000c60       ?pSD_sAIBodyResponse@@3PBUsStructDesc@@B 10063c60     Main.obj
 0003:00000c64       ?pSD_sAISuspiciousResponse@@3PBUsStructDesc@@B 10063c64     Main.obj
 0003:00000c68       ?pSD_sAIObjectAvoid@@3PBUsStructDesc@@B 10063c68     Main.obj
 0003:00000c6c       ?pSD_sAIInformResponse@@3PBUsStructDesc@@B 10063c6c     Main.obj
 0003:00000c70       ?pSD_sAISenseCombatResponse@@3PBUsStructDesc@@B 10063c70     Main.obj
 0003:00000c74       ?pSD_sAIFrozen@@3PBUsStructDesc@@B 10063c74     Main.obj
 0003:00000c78       ?pSD_sFreezeReactionParam@@3PBUsStructDesc@@B 10063c78     Main.obj
 0003:00000c7c       ?pSD_sAIAwareness@@3PBUsStructDesc@@B 10063c7c     Main.obj
 0003:00000c80       ?pSD_sAISuspiciousLink@@3PBUsStructDesc@@B 10063c80     Main.obj
 0003:00000c84       ?pSD_sMissionSongParams@@3PBUsStructDesc@@B 10063c84     Main.obj
 0003:00000c88       ?pSD_AmbientSound@@3PBUsStructDesc@@B 10063c88     Main.obj
 0003:00000c8c       ?pSD_sAcousticsProperty@@3PBUsStructDesc@@B 10063c8c     Main.obj
 0003:00000c90       ?pSD_sAmbientProperty@@3PBUsStructDesc@@B 10063c90     Main.obj
 0003:00000c94       ?pSD_cPhysTypeProp@@3PBUsStructDesc@@B 10063c94     Main.obj
 0003:00000c98       ?pSD_cPhysAttrProp@@3PBUsStructDesc@@B 10063c98     Main.obj
 0003:00000c9c       ?pSD_cPhysStateProp@@3PBUsStructDesc@@B 10063c9c     Main.obj
 0003:00000ca0       ?pSD_cPhysControlProp@@3PBUsStructDesc@@B 10063ca0     Main.obj
 0003:00000ca4       ?pSD_cPhysDimsProp@@3PBUsStructDesc@@B 10063ca4     Main.obj
 0003:00000ca8       ?pSD_cMovingTerrainProp@@3PBUsStructDesc@@B 10063ca8     Main.obj
 0003:00000cac       ?pSD_tCanAttachType@@3PBUsStructDesc@@B 10063cac     Main.obj
 0003:00000cb0       ?pSD_sPhysExplodeProp@@3PBUsStructDesc@@B 10063cb0     Main.obj
 0003:00000cb4       ?pSD_sPhysRopeProp@@3PBUsStructDesc@@B 10063cb4     Main.obj
 0003:00000cb8       ?pSD_sPhysPPlateProp@@3PBUsStructDesc@@B 10063cb8     Main.obj
 0003:00000cbc       ?pSD_sTerrainPath@@3PBUsStructDesc@@B 10063cbc     Main.obj
 0003:00000cc0       ?pSD_sPhysAttachData@@3PBUsStructDesc@@B 10063cc0     Main.obj
 0003:00000cc4       ?pSD_sSchemaLoopParams@@3PBUsStructDesc@@B 10063cc4     Main.obj
 0003:00000cc8       ?pSD_sSchemaPlayParams@@3PBUsStructDesc@@B 10063cc8     Main.obj
 0003:00000ccc       ?pSD_sSpeech@@3PBUsStructDesc@@B 10063ccc     Main.obj
 0003:00000cd0       ?pSD_sESndTagList@@3PBUsStructDesc@@B 10063cd0     Main.obj
 0003:00000cd4       ?pSD_sEnvSoundReactionParam@@3PBUsStructDesc@@B 10063cd4     Main.obj
 0003:00000cd8       ?pSD_tRendType@@3PBUsStructDesc@@B 10063cd8     Main.obj
 0003:00000cdc       ?pSD_sJointPos@@3PBUsStructDesc@@B 10063cdc     Main.obj
 0003:00000ce0       ?pSD_ParticleGroup@@3PBUsStructDesc@@B 10063ce0     Main.obj
 0003:00000ce4       ?pSD_ParticleLaunchInfo@@3PBUsStructDesc@@B 10063ce4     Main.obj
 0003:00000ce8       ?pSD_sParticleAttachLinkData@@3PBUsStructDesc@@B 10063ce8     Main.obj
 0003:00000cec       ?pSD_FrameAnimationState@@3PBUsStructDesc@@B 10063cec     Main.obj
 0003:00000cf0       ?pSD_FrameAnimationConfig@@3PBUsStructDesc@@B 10063cf0     Main.obj
 0003:00000cf4       ?pSD_FlashbombRender@@3PBUsStructDesc@@B 10063cf4     Main.obj
 0003:00000cf8       ?pSD_cBitmapWorldspaceProperty@@3PBUsStructDesc@@B 10063cf8     Main.obj
 0003:00000cfc       ?pSD_tBitmapAnimationType@@3PBUsStructDesc@@B 10063cfc     Main.obj
 0003:00000d00       ?pSD_sAnimTexProp@@3PBUsStructDesc@@B 10063d00     Main.obj
 0003:00000d04       ?pSD_sSkyMode@@3PBUsStructDesc@@B 10063d04     Main.obj
 0003:00000d08       ?pSD_sMissionRenderParams@@3PBUsStructDesc@@B 10063d08     Main.obj
 0003:00000d0c       ?pSD_sRGBA@@3PBUsStructDesc@@B 10063d0c     Main.obj
 0003:00000d10       ?pSD_sWaterBanks@@3PBUsStructDesc@@B 10063d10     Main.obj
 0003:00000d14       ?pSD_sMissionSkyObj@@3PBUsStructDesc@@B 10063d14     Main.obj
 0003:00000d18       ?pSD_sMissionStarObj@@3PBUsStructDesc@@B 10063d18     Main.obj
 0003:00000d1c       ?pSD_sMissionCelestialObj@@3PBUsStructDesc@@B 10063d1c     Main.obj
 0003:00000d20       ?pSD_sMissionCloudObj@@3PBUsStructDesc@@B 10063d20     Main.obj
 0003:00000d24       ?pSD_sMissionDistantObj@@3PBUsStructDesc@@B 10063d24     Main.obj
 0003:00000d28       ?pSD_eNetworkCategory@@3PBUsStructDesc@@B 10063d28     Main.obj
 0003:00000d2c       ?pSD_cWeatherProperty@@3PBUsStructDesc@@B 10063d2c     Main.obj
 0003:00000d30       ?pSD_cMeshTexProperty@@3PBUsStructDesc@@B 10063d30     Main.obj
 0003:00000d34       ?pSD_cFaceProperty@@3PBUsStructDesc@@B 10063d34     Main.obj
 0003:00000d38       ?pSD_cFaceStateProperty@@3PBUsStructDesc@@B 10063d38     Main.obj
 0003:00000d3c       ?pSD_cCoronaProperty@@3PBUsStructDesc@@B 10063d3c     Main.obj
 0003:00000d40       ?pFD_MissionFlags@@3PBUsFieldDesc@@B 10063d40     Main.obj
 0003:00000d44       ?_gGhostRemotes@@3PAVcHashSet@@A 10063d44     Main.obj
 0003:00000d48       ?g_currFrob@@3PAUsFrobActivate@@A 10063d48     Main.obj
 0003:00000d4c       ?_AppGetAggregated@@3P6GPAXABU_GUID@@@ZA 10063d4c     Main.obj
 0003:00000d50       ?DarkNew@@3P6APAXI@ZA      10063d50     Main.obj
 0003:00000d54       ?DarkFree@@3P6AXPAX@ZA     10063d54     Main.obj
 0003:00000d58       ?dark_delete@@3P6AXPAX@ZA  10063d58     Main.obj
 0003:00000d5c       ?dark_strdup@@3P6APBDPBD@ZA 10063d5c     Main.obj
 0003:00000d60       ?PumpEvents@@3P6G?AW4eWinPumpResult@@PAKHW4eWinPumpDuration@@@ZA 10063d60     Main.obj
 0003:00000d64       ?_quit_game@@3P6AXXZA      10063d64     Main.obj
 0003:00000d68       ?FetchUIString@@3P6A?AVcAnsiStr@@PBD00@ZA 10063d68     Main.obj
 0003:00000d6c       ?FetchUIImage@@3P6APAUIDarkDataSource@@PBD0@ZA 10063d6c     Main.obj
 0003:00000d70       ?FetchUIRects@@3P6AHPBDAAV?$cDynArray@URect@@@@0@ZA 10063d70     Main.obj
 0003:00000d74       ?_extension_p@@3P6APBDPBD@ZA 10063d74     Main.obj
 0003:00000d78       ?_GetMissionData@@3P6APAUsMissionData@@XZA 10063d78     Main.obj
 0003:00000d7c       ?UpdateLootTotals@@3P6AXHPAUsLoot@@@ZA 10063d7c     Main.obj
 0003:00000d80       ?_AIGetStun@@3P6AHH@ZA     10063d80     Main.obj
 0003:00000d84       ?AwarenessFilter@@3P6GHPAUsReactionEvent@@PBUsReactionParam@@K@ZA 10063d84     Main.obj
 0003:00000d88       ?AutomapGetCurrentRoom@@3P6APAUsAutomapProperty@@XZA 10063d88     Main.obj
 0003:00000d8c       ?AutomapHighlightArea@@3P6AXPAUIRes@@PAURect@@H@ZA 10063d8c     Main.obj
 0003:00000d90       ?_IsBowEquipped@@3P6AHXZA  10063d90     Main.obj
 0003:00000d94       ?WobbleBow@@3P6AXJ@ZA      10063d94     Main.obj
 0003:00000d98       ?UpdateBowTime@@3P6AXHH@ZA 10063d98     Main.obj
 0003:00000d9c       ?_RenockBow@@3P6AHJ@ZA     10063d9c     Main.obj
 0003:00000da0       ?_ClearPlayerArmFilter@@3P6AXXZA 10063da0     Main.obj
 0003:00000da4       ?ZoomClear@@3P6AXXZA       10063da4     Main.obj
 0003:00000da8       ?DoBowAttack@@3P6AHXZA     10063da8     Main.obj
 0003:00000dac       ?PutTheBowAway@@3P6AXH@ZA  10063dac     Main.obj
 0003:00000db0       ?sub_56EB50@@3P6AXXZA      10063db0     Main.obj
 0003:00000db4       ?_CreatureAttachItem@@3P6AXHHPAUWeaponAttachment@@@ZA 10063db4     Main.obj
 0003:00000db8       ?_CreatureDetachItem@@3P6AXHH@ZA 10063db8     Main.obj
 0003:00000dbc       ?_CreatureAttachWeapon@@3P6AXHHPAUWeaponAttachment@@@ZA 10063dbc     Main.obj
 0003:00000dc0       ?_CreatureFromObj@@3P6APAVcCreature@@H@ZA 10063dc0     Main.obj
 0003:00000dc4       ?_ObjGetCreatureType@@3P6AHHAAH@ZA 10063dc4     Main.obj
 0003:00000dc8       ?_ObjSetCreatureType@@3P6AXHH@ZA 10063dc8     Main.obj
 0003:00000dcc       ?_CreatureHandle@@3P6APAUsCreatureHandle@@H@ZA 10063dcc     Main.obj
 0003:00000dd0       ?CreatureGetMotorInterface@@3P6APAVIMotor@@H@ZA 10063dd0     Main.obj
 0003:00000dd4       ?_dark_init_game@@3P6AXXZA 10063dd4     Main.obj
 0003:00000dd8       ?_dark_term_game@@3P6AXXZA 10063dd8     Main.obj
 0003:00000ddc       ?_DarkStatIntAdd@@3P6AXPBDH@ZA 10063ddc     Main.obj
 0003:00000de0       ?_DarkStatIntGet@@3P6AHPADH@ZA 10063de0     Main.obj
 0003:00000de4       ?_DarkAutomapSetLocationVisited@@3P6AXHH@ZA 10063de4     Main.obj
 0003:00000de8       ?_DarkAutomapGetLocationVisited@@3P6AHHH@ZA 10063de8     Main.obj
 0003:00000dec       ?_gr_alloc_bitmap@@3P6APAUgrs_bitmap@@HHHH@ZA 10063dec     Main.obj
 0003:00000df0       ?_gr_make_canvas@@3P6AXPAUgrs_bitmap@@PAUgrd_canvas@@@ZA 10063df0     Main.obj
 0003:00000df4       ?_gr_push_canvas@@3P6AXPAUgrd_canvas@@@ZA 10063df4     Main.obj
 0003:00000df8       ?_gr_pop_canvas@@3P6AXXZA  10063df8     Main.obj
 0003:00000dfc       ?_gr_make_screen_fcolor@@3P6AHH@ZA 10063dfc     Main.obj
 0003:00000e00       ?_guiScreenColor@@3P6AHH@ZA 10063e00     Main.obj
 0003:00000e04       ?_GUIsetup@@3P6AXPAUGUIsetupStruct@@PBURect@@HH@ZA 10063e04     Main.obj
 0003:00000e08       ?_GUIdone@@3P6AXPAUGUIsetupStruct@@@ZA 10063e08     Main.obj
 0003:00000e0c       ?_uiGameLoadStyle@@3P6AXPBDPAUguiStyle@@0@ZA 10063e0c     Main.obj
 0003:00000e10       ?_uiGameUnloadStyle@@3P6AXPAUguiStyle@@@ZA 10063e10     Main.obj
 0003:00000e14       ?_DarkMessage@@3P6AXPBD@ZA 10063e14     Main.obj
 0003:00000e18       ?_gr_font_string@@3P6AXPAXPBDHH@ZA 10063e18     Main.obj
 0003:00000e1c       ?_gr_font_string_wrap@@3P6AXPAXPBDF@ZA 10063e1c     Main.obj
 0003:00000e20       ?_gr_font_string_size@@3P6AXPAXPBDPAF2@ZA 10063e20     Main.obj
 0003:00000e24       ?_gr_font_string_unwrap@@3P6AXPBD@ZA 10063e24     Main.obj
 0003:00000e28       ?_gr_font_string_height@@3P6AFPAXPBD@ZA 10063e28     Main.obj
 0003:00000e2c       ?_gr_font_string_width@@3P6AFPAXPBD@ZA 10063e2c     Main.obj
 0003:00000e30       ?_guiStyleGetColor@@3P6AHPAUguiStyle@@H@ZA 10063e30     Main.obj
 0003:00000e34       ?_guiStyleCleanupFont@@3P6AXPAUguiStyle@@H@ZA 10063e34     Main.obj
 0003:00000e38       ?_guiStyleSetupFont@@3P6AXPAUguiStyle@@H@ZA 10063e38     Main.obj
 0003:00000e3c       ?_uiInstallRegionHandler@@3P6AXHHP6AXPAU_ui_event@@PAU_Region@@PAX@Z2H@ZA 10063e3c     Main.obj
 0003:00000e40       ?_GetCurrentStyle@@3P6APAUguiStyle@@XZA 10063e40     Main.obj
 0003:00000e44       ?_SetCurrentStyle@@3P6AXPAUguiStyle@@@ZA 10063e44     Main.obj
 0003:00000e48       ?_guiStyleGetFont@@3P6APAUIRes@@HH@ZA 10063e48     Main.obj
 0003:00000e4c       ?_mouse_get_xy@@3P6AFPAF0@ZA 10063e4c     Main.obj
 0003:00000e50       ?_mouse_put_xy@@3P6AFFF@ZA 10063e50     Main.obj
 0003:00000e54       ?_palmgr_alloc_pal@@3P6AEPAX@ZA 10063e54     Main.obj
 0003:00000e58       ?_CreateStringProperty@@3P6APAUIStringProperty@@PBUsPropertyDesc@@H@ZA 10063e58     Main.obj
 0003:00000e5c       ?DarkSimulationLoop@@3P6GHKKPAUtLoopMessageData__@@@ZA 10063e5c     Main.obj
 0003:00000e60       ?ObjectSystemLoopClient@@3P6GHKKPAUtLoopMessageData__@@@ZA 10063e60     Main.obj
 0003:00000e64       ?GameModeLoopClient@@3P6GHKKPAUtLoopMessageData__@@@ZA 10063e64     Main.obj
 0003:00000e68       ?DarkRenderingLoopClient@@3P6GHKKPAUtLoopMessageData__@@@ZA 10063e68     Main.obj
 0003:00000e6c       ?SimLoopClient@@3P6GHKKPAUtLoopMessageData__@@@ZA 10063e6c     Main.obj
 0003:00000e70       ?_InstallIBHandler@@3P6AXJHH@ZA 10063e70     Main.obj
 0003:00000e74       ?_RemoveIBHandler@@3P6AXXZA 10063e74     Main.obj
 0003:00000e78       ?_PushMovieOrBookMode@@3P6AXPBD@ZA 10063e78     Main.obj
 0003:00000e7c       ?_SwitchToNewGameMode@@3P6AXH@ZA 10063e7c     Main.obj
 0003:00000e80       ?_SwitchToMainMenuMode@@3P6AXH@ZA 10063e80     Main.obj
 0003:00000e84       ?_SwitchToOptionsMode@@3P6AXH@ZA 10063e84     Main.obj
 0003:00000e88       ?_SwitchToLoadGameMode@@3P6AXH@ZA 10063e88     Main.obj
 0003:00000e8c       ?_SwitchToSaveGameMode@@3P6AXH@ZA 10063e8c     Main.obj
 0003:00000e90       ?_SwitchToObjectivesMode@@3P6AXH@ZA 10063e90     Main.obj
 0003:00000e94       ?_SwitchToDarkAutomapMode@@3P6AXH@ZA 10063e94     Main.obj
 0003:00000e98       ?_SwitchToSimMenuMode@@3P6AXH@ZA 10063e98     Main.obj
 0003:00000e9c       ?_PlayerCreate@@3P6AXXZA   10063e9c     Main.obj
 0003:00000ea0       ?_PlayerDestroy@@3P6AXXZA  10063ea0     Main.obj
 0003:00000ea4       ?_GetPlayerMode@@3P6A?AW4ePlayerMode@@XZA 10063ea4     Main.obj
 0003:00000ea8       ?_SetPlayerMode@@3P6AXH@ZA 10063ea8     Main.obj
 0003:00000eac       ?_IsAPlayer@@3P6AHH@ZA     10063eac     Main.obj
 0003:00000eb0       ?_PlayerMotionGetActive@@3P6AHXZA 10063eb0     Main.obj
 0003:00000eb4       ?_PlayerMotionActivate@@3P6AXW4ePlayerMotion@@@ZA 10063eb4     Main.obj
 0003:00000eb8       ?_GetTransSpeedScale@@3P6AMXZA 10063eb8     Main.obj
 0003:00000ebc       ?_AddSpeedScale@@3P6AXPBDMM@ZA 10063ebc     Main.obj
 0003:00000ec0       ?_PlayerFinishAction@@3P6AXXZA 10063ec0     Main.obj
 0003:00000ec4       ?_SetLeaningState@@3P6AXH@ZA 10063ec4     Main.obj
 0003:00000ec8       ?_ObjGetMaxHitPoints@@3P6AHHPAH@ZA 10063ec8     Main.obj
 0003:00000ecc       ?_ObjSetHitPoints@@3P6AHHH@ZA 10063ecc     Main.obj
 0003:00000ed0       ?_ObjGetHitPoints@@3P6AHHPAH@ZA 10063ed0     Main.obj
 0003:00000ed4       ?_ObjEditName@@3P6APADH@ZA 10063ed4     Main.obj
 0003:00000ed8       ?_ObjPosGet@@3P6APAUPosition@@H@ZA 10063ed8     Main.obj
 0003:00000edc       ?_ObjPosCopyUpdate@@3P6AXHPAUPosition@@@ZA 10063edc     Main.obj
 0003:00000ee0       ?_ObjPosGetLocVector@@3P6APAUmxs_vector@@H@ZA 10063ee0     Main.obj
 0003:00000ee4       ?_ObjPosSetLocation@@3P6AXHPAUPosition@@@ZA 10063ee4     Main.obj
 0003:00000ee8       ?_ObjRenderType@@3P6AHH@ZA 10063ee8     Main.obj
 0003:00000eec       ?_ObjSetRenderType@@3P6AXHH@ZA 10063eec     Main.obj
 0003:00000ef0       ?_ObjSetHasRefs@@3P6AXHH@ZA 10063ef0     Main.obj
 0003:00000ef4       ?_ObjGetModelName@@3P6AHHPAD@ZA 10063ef4     Main.obj
 0003:00000ef8       ?_ObjSetModelName@@3P6AXHPAD@ZA 10063ef8     Main.obj
 0003:00000efc       ?_ObjGetESndClass@@3P6AXHPAPAX@ZA 10063efc     Main.obj
 0003:00000f00       ?_ObjSetScale@@3P6AXHPAUmxs_vector@@@ZA 10063f00     Main.obj
 0003:00000f04       ?_ObjGetWeaponType@@3P6AXHPAH@ZA 10063f04     Main.obj
 0003:00000f08       ?_ObjIsAI@@3P6AHH@ZA       10063f08     Main.obj
 0003:00000f0c       ?_GetTextureObj@@3P6AHH@ZA 10063f0c     Main.obj
 0003:00000f10       ?_ObjFrobResult@@3P6APAUsFrobInfo@@H@ZA 10063f10     Main.obj
 0003:00000f14       ?_ObjFrobResultForLoc@@3P6AEHH@ZA 10063f14     Main.obj
 0003:00000f18       ?_ObjSetSelfLocked@@3P6AXHH@ZA 10063f18     Main.obj
 0003:00000f1c       ?_ObjTranslate@@3P6AXHPAUmxs_vector@@@ZA 10063f1c     Main.obj
 0003:00000f20       ?_ObjRotate@@3P6AXHPAUmxs_angvec@@@ZA 10063f20     Main.obj
 0003:00000f24       ?_rendobj_object_is_visible@@3P6AHH@ZA 10063f24     Main.obj
 0003:00000f28       ?_mx_zero_vec@@3P6AXAAUmxs_vector@@@ZA 10063f28     Main.obj
 0003:00000f2c       ?_mx_copy_trans@@3P6AXPAUmxs_trans@@0@ZA 10063f2c     Main.obj
 0003:00000f30       ?_mx_mag_vec@@3P6AMAAUmxs_vector@@@ZA 10063f30     Main.obj
 0003:00000f34       ?_mx_mag2_vec@@3P6AMPAUmxs_vector@@@ZA 10063f34     Main.obj
 0003:00000f38       ?_mx_dist_vec@@3P6AMPAUmxs_vector@@0@ZA 10063f38     Main.obj
 0003:00000f3c       ?_DarkQuickSaveGame@@3P6AXXZA 10063f3c     Main.obj
 0003:00000f40       ?_DarkQuickLoadGame@@3P6AXXZA 10063f40     Main.obj
 0003:00000f44       ?_DarkSaveGameFile@@3P6AJPAD0@ZA 10063f44     Main.obj
 0003:00000f48       ?_DarkQuickLoadGameFile@@3P6AJPAD@ZA 10063f48     Main.obj
 0003:00000f4c       ?_SimStatePause@@3P6AXXZA  10063f4c     Main.obj
 0003:00000f50       ?_SimStateUnpause@@3P6AXXZA 10063f50     Main.obj
 0003:00000f54       ?_SimStateCheckFlags@@3P6AHK@ZA 10063f54     Main.obj
 0003:00000f58       ?_SimStateSetFlags@@3P6AXKH@ZA 10063f58     Main.obj
 0003:00000f5c       ?_GetSimTime@@3P6AHXZA     10063f5c     Main.obj
 0003:00000f60       ?_GetSimFrameTime@@3P6AHXZA 10063f60     Main.obj
 0003:00000f64       ?_DarkLootPrepMission@@3P6AXXZA 10063f64     Main.obj
 0003:00000f68       ?_DarkPrepLevelForDifficulty@@3P6AXXZA 10063f68     Main.obj
 0003:00000f6c       ?_dark_end_gamemode@@3P6AXXZA 10063f6c     Main.obj
 0003:00000f70       ?_dark_start_gamemode@@3P6AXK@ZA 10063f70     Main.obj
 0003:00000f74       ?_win_mission@@3P6AXXZA    10063f74     Main.obj
 0003:00000f78       ?_GenerateSound@@3P6AHPADPAUsfx_parm@@@ZA 10063f78     Main.obj
 0003:00000f7c       ?_GenerateSoundObj@@3P6AHHHPBDMPAUsfx_parm@@HH@ZA 10063f7c     Main.obj
 0003:00000f80       ?GenerateSoundVec@@3P6AHPAUmxs_vector@@HHPADMPAUsfx_parm@@HH@ZA 10063f80     Main.obj
 0003:00000f84       ?_SoundNetGenerateSoundVec@@3P6AXHPAUmxs_vector@@HPADMPAUsfx_parm@@@ZA 10063f84     Main.obj
 0003:00000f88       ?_SoundNetGenerateSoundObj@@3P6AXHHHPADMPAUsfx_parm@@@ZA 10063f88     Main.obj
 0003:00000f8c       ?_SoundNetHalt@@3P6AXH@ZA  10063f8c     Main.obj
 0003:00000f90       ?_SchemaPlayHalt@@3P6AXPAUsSchemaPlay@@@ZA 10063f90     Main.obj
 0003:00000f94       ?_SchemaPlayObj@@3P6AHPBDHH@ZA 10063f94     Main.obj
 0003:00000f98       ?_SchemaLoopParamsGet@@3P6APAUsSchemaLoopParams@@H@ZA 10063f98     Main.obj
 0003:00000f9c       ?_SchemaAttFacGet@@3P6AMH@ZA 10063f9c     Main.obj
 0003:00000fa0       ?_SchemaIDPlay@@3P6APAUsSchemaPlay@@HPAUsSchemaCallParams@@PAX@ZA 10063fa0     Main.obj
 0003:00000fa4       ?SchemaParamsSetup@@3P6AXHAAUsfx_parm@@K@ZA 10063fa4     Main.obj
 0003:00000fa8       ?_SchemaSampleGet@@3P6APBDHH@ZA 10063fa8     Main.obj
 0003:00000fac       ?_SchemaGetIDFromHandle@@3P6AKH@ZA 10063fac     Main.obj
 0003:00000fb0       ?_SFXReset@@3P6AXXZA       10063fb0     Main.obj
 0003:00000fb4       ?_SFX_Play_Raw@@3P6AHHHPAD@ZA 10063fb4     Main.obj
 0003:00000fb8       ?_SFX_Frame@@3P6AXHH@ZA    10063fb8     Main.obj
 0003:00000fbc       ?_ESndPlayLoc@@3P6AHPAVcTagSet@@HHPBUmxs_vector@@PAUsSchemaCallParams@@PAX@ZA 10063fbc     Main.obj
 0003:00000fc0       ?_ESndPlay@@3P6AHPAVcTagSet@@HHPAUsSchemaCallParams@@PAX@ZA 10063fc0     Main.obj
 0003:00000fc4       ?_LoopSampleCallback@@3P6AXKK@ZA 10063fc4     Main.obj
 0003:00000fc8       ?SchemaChooseSample@@3P6AHHH@ZA 10063fc8     Main.obj
 0003:00000fcc       ?SchemaPlayAdd@@3P6APAUsSchemaPlay@@HPBUsSchemaCallParams@@@ZA 10063fcc     Main.obj
 0003:00000fd0       ?SchemaSamplePlayAndSetupNext@@3P6AHHHPAUsSchemaPlay@@PAUsSchemaLoopParams@@PAX@ZA 10063fd0     Main.obj
 0003:00000fd4       ?_SoundHaltObj@@3P6AXH@ZA  10063fd4     Main.obj
 0003:00000fd8       ?tm_get_millisec_unrecorded@@3P6GKXZA 10063fd8     Main.obj
 0003:00000fdc       ?SpeechGetVoice@@3P6AHH@ZA 10063fdc     Main.obj
 0003:00000fe0       ?_ObjGetSpeechVoiceIndex@@3P6AHHPAH@ZA 10063fe0     Main.obj
 0003:00000fe4       ?SpeechInstallStartCallback@@3P6AXHP6AXHPBULabel@@H@Z@ZA 10063fe4     Main.obj
 0003:00000fe8       ?SpeechEndCallback@@3P6AXHHPAX@ZA 10063fe8     Main.obj
 0003:00000fec       ?_SpeechHalt@@3P6AXH@ZA    10063fec     Main.obj
 0003:00000ff0       ?_SpeechPropCreateAndGet@@3P6APAUsSpeech@@H@ZA 10063ff0     Main.obj
 0003:00000ff4       ?_GetNextMission@@3P6AHXZA 10063ff4     Main.obj
 0003:00000ff8       ?_SetNextMission@@3P6AXH@ZA 10063ff8     Main.obj
 0003:00000ffc       ?_MissionLoopReset@@3P6AXH@ZA 10063ffc     Main.obj
 0003:00001000       ?_UnwindToMissionLoop@@3P6AXXZA 10064000     Main.obj
 0003:00001004       ?_SwitchToLoadingMode@@3P6AXH@ZA 10064004     Main.obj
 0003:00001008       ?_SwitchToNetSynchMode@@3P6AXH@ZA 10064008     Main.obj
 0003:0000100c       ?SwitchToGameMode@@3P6AXH@ZA 1006400c     Main.obj
 0003:00001010       ?BufTagFileOpen@@3P6APAUITagFile@@PBDW4TagFileOpenMode@@@ZA 10064010     Main.obj
 0003:00001014       ?DarkLoadGameInternal@@3P6AJPAUITagFile@@@ZA 10064014     Main.obj
 0003:00001018       ?_InvUIRefreshObj@@3P6AXH@ZA 10064018     Main.obj
 0003:0000101c       ?_dbMergeLoadTagFile@@3P6AKPAUITagFile@@K@ZA 1006401c     Main.obj
 0003:00001020       ?_dbCurrentFilenum@@3P6AKXZA 10064020     Main.obj
 0003:00001024       ?_CommandExecute@@3P6AXPBD@ZA 10064024     Main.obj
 0003:00001028       ?_CommandRegister@@3P6AXPAUCommand@@HH@ZA 10064028     Main.obj
 0003:0000102c       ?_CommandFind@@3P6APAUCommand@@PBDH@ZA 1006402c     Main.obj
 0003:00001030       ?_AddMotionFlagListener@@3P6AXHKPAX@ZA 10064030     Main.obj
 0003:00001034       ?_GetArrowArchetype@@3P6AHXZA 10064034     Main.obj
 0003:00001038       ?_launchProjectile@@3P6AXHHMKKKK@ZA 10064038     Main.obj
 0003:0000103c       ?_PhysSetFlag@@3P6AXHKK@ZA 1006403c     Main.obj
 0003:00001040       ?_PhysSetVelocity@@3P6AXHPAUmxs_vector@@@ZA 10064040     Main.obj
 0003:00001044       ?_PhysSetRotationalVelocity@@3P6AXHPAUmxs_vector@@@ZA 10064044     Main.obj
 0003:00001048       ?_PhysSetGravity@@3P6AXHM@ZA 10064048     Main.obj
 0003:0000104c       ?_PhysSetBaseFriction@@3P6AXHM@ZA 1006404c     Main.obj
 0003:00001050       ?_PhysGetVelocity@@3P6AXHPAUmxs_vector@@@ZA 10064050     Main.obj
 0003:00001054       ?_PhysGetGravity@@3P6AMH@ZA 10064054     Main.obj
 0003:00001058       ?_PhysGetDensity@@3P6AMH@ZA 10064058     Main.obj
 0003:0000105c       ?_PhysGetMass@@3P6AMH@ZA   1006405c     Main.obj
 0003:00001060       ?_PhysGetFriction@@3P6AHHPAM@ZA 10064060     Main.obj
 0003:00001064       ?_PhysStopControlLocation@@3P6AXH@ZA 10064064     Main.obj
 0003:00001068       ?PhysRopeListener@@3P6GXPAUsPropertyListenMsg@@PAUPropListenerData__@@@ZA 10064068     Main.obj
 0003:0000106c       ?_PhysObjHasPhysics@@3P6AHH@ZA 1006406c     Main.obj
 0003:00001070       ?_PhysGetClimbingObj@@3P6AHH@ZA 10064070     Main.obj
 0003:00001074       ?_PhysObjIsMantling@@3P6AHH@ZA 10064074     Main.obj
 0003:00001078       ?_PhysObjInWater@@3P6AHH@ZA 10064078     Main.obj
 0003:0000107c       ?_PhysNetDiscardBorrow@@3P6AXH@ZA 1006407c     Main.obj
 0003:00001080       ?_PhysNetBroadcastObjPosByObj@@3P6AXH@ZA 10064080     Main.obj
 0003:00001084       ?_PhysNetForceContainedMsgs@@3P6AXH@ZA 10064084     Main.obj
 0003:00001088       ?_PhysDeregisterModel@@3P6AXH@ZA 10064088     Main.obj
 0003:0000108c       ?ThrowObjectInternal@@3P6AHHHM@ZA 1006408c     Main.obj
 0003:00001090       ?_DoPickOperation@@3P6AHHHHK@ZA 10064090     Main.obj
 0003:00001094       ?PickLockDoStop@@3P6AXH@ZA 10064094     Main.obj
 0003:00001098       ?_NetworkCategory@@3P6A?AW4eNetworkCategory@@H@ZA 10064098     Main.obj
 0003:0000109c       ?_SetNetworkCategory@@3P6AXHH@ZA 1006409c     Main.obj
 0003:000010a0       ?_EquipAIWeapon@@3P6AHHKK@ZA 100640a0     Main.obj
 0003:000010a4       ?_EquipWeapon@@3P6AXHHH@ZA 100640a4     Main.obj
 0003:000010a8       ?_EquipBow@@3P6AXXZA       100640a8     Main.obj
 0003:000010ac       ?_UnEquipWeapon@@3P6AXHH@ZA 100640ac     Main.obj
 0003:000010b0       ?_SetWeapon@@3P6AXHHH@ZA   100640b0     Main.obj
 0003:000010b4       ?_UnSetWeapon@@3P6AXH@ZA   100640b4     Main.obj
 0003:000010b8       ?_GetWeaponObjID@@3P6AHH@ZA 100640b8     Main.obj
 0003:000010bc       ?_StartWeaponAttack@@3P6AXHH@ZA 100640bc     Main.obj
 0003:000010c0       ?_FinishWeaponAction@@3P6AXHH@ZA 100640c0     Main.obj
 0003:000010c4       ?_StartBowAttack@@3P6AXXZA 100640c4     Main.obj
 0003:000010c8       ?_FinishBowAttack@@3P6AXXZA 100640c8     Main.obj
 0003:000010cc       ?_has_projectile_type@@3P6AHH@ZA 100640cc     Main.obj
 0003:000010d0       ?_SetCurrentArrow@@3P6AXH@ZA 100640d0     Main.obj
 0003:000010d4       ?_IsWeapon@@3P6AHH@ZA      100640d4     Main.obj
 0003:000010d8       ?_UpdateWeaponAttack@@3P6AXXZA 100640d8     Main.obj
 0003:000010dc       ?_WeaponEvent@@3P6AXW4WeaponEvent@@HHH@ZA 100640dc     Main.obj
 0003:000010e0       ?_ScrnForceUpdate@@3P6AXXZA 100640e0     Main.obj
 0003:000010e4       ?_ScrnForceUpdateRect@@3P6AXPAURect@@@ZA 100640e4     Main.obj
 0003:000010e8       ?_ScrnClear@@3P6AXXZA      100640e8     Main.obj
 0003:000010ec       ?_ScrnLockDrawCanvas@@3P6AXXZA 100640ec     Main.obj
 0003:000010f0       ?_ScrnModeGet@@3P6AXPAUsScreenMode@@@ZA 100640f0     Main.obj
 0003:000010f4       ?_ScrnModeSet@@3P6AXHPAUsScreenMode@@H@ZA 100640f4     Main.obj
 0003:000010f8       ?_ScrnNewBlackPalette@@3P6AXXZA 100640f8     Main.obj
 0003:000010fc       ?_ScrnBlacken@@3P6AXXZA    100640fc     Main.obj
 0003:00001100       ?_ScrnUnlockDrawCanvas@@3P6AXXZA 10064100     Main.obj
 0003:00001104       ?_region_set_invisible@@3P6AXPAXH@ZA 10064104     Main.obj
 0003:00001108       ?_region_expose@@3P6AXPAU_Region@@PAURect@@@ZA 10064108     Main.obj
 0003:0000110c       ?_TextGadgUpdate@@3P6AXPAX@ZA 1006410c     Main.obj
 0003:00001110       ?_TextGadgFocus@@3P6AXPAX@ZA 10064110     Main.obj
 0003:00001114       ?_TextGadgUnfocus@@3P6AXPAX@ZA 10064114     Main.obj
 0003:00001118       ?_LGadCurrentRoot@@3P6APAU_LGadRoot@@XZA 10064118     Main.obj
 0003:0000111c       ?_LGadSetupSubRoot@@3P6AXPAUTextboxState@@PAU_LGadRoot@@HHHH@ZA 1006411c     Main.obj
 0003:00001120       ?_LGadCreateTextboxDesc@@3P6AXPAX0PAULGadTextboxCreateParams@@@ZA 10064120     Main.obj
 0003:00001124       ?_LGadDestroyRoot@@3P6AXPAU_LGadRoot@@@ZA 10064124     Main.obj
 0003:00001128       ?_LGadDestroyTextBox@@3P6AXPAX@ZA 10064128     Main.obj
 0003:0000112c       ?_compose_cursor@@3P6AXH@ZA 1006412c     Main.obj
 0003:00001130       ?_CameraIsRemote@@3P6AHK@ZA 10064130     Main.obj
 0003:00001134       ?_CameraGetMode@@3P6AHK@ZA 10064134     Main.obj
 0003:00001138       ?_CameraRemote@@3P6AXPAUPlayerCamera@@H@ZA 10064138     Main.obj
 0003:0000113c       ?_CameraView@@3P6AXPAUPlayerCamera@@H@ZA 1006413c     Main.obj
 0003:00001140       ?_CameraAttach@@3P6AXPAUPlayerCamera@@H@ZA 10064140     Main.obj
 0003:00001144       ?AttachPlayerCamera@@3P6AXXZA 10064144     Main.obj
 0003:00001148       ?CamApplyAlpha@@3P6AXMH@ZA 10064148     Main.obj
 0003:0000114c       ?_config_get_value@@3P6A_NPBDHPAXPAH@ZA 1006414c     Main.obj
 0003:00001150       ?_config_get_raw@@3P6AHPAD0I@ZA 10064150     Main.obj
 0003:00001154       ?_config_get_single_value@@3P6AHPADHPAH@ZA 10064154     Main.obj
 0003:00001158       ?_config_set_int@@3P6AXPBDH@ZA 10064158     Main.obj
 0003:0000115c       ?_config_load@@3P6AXPBD@ZA 1006415c     Main.obj
 0003:00001160       ?_gd_bitmap@@3P6AXPAXHH@ZA 10064160     Main.obj
 0003:00001164       ?_gd_clear@@3P6AXH@ZA      10064164     Main.obj
 0003:00001168       ?_gd_rect@@3P6AXHHHH@ZA    10064168     Main.obj
 0003:0000116c       ?_gd_box@@3P6AXHHHH@ZA     1006416c     Main.obj
 0003:00001170       ?_gd_vline@@3P6AXHHH@ZA    10064170     Main.obj
 0003:00001174       ?_CellBinComputeFunc@@3P6AHHKK@ZA 10064174     Main.obj
 0003:00001178       ?_headmoveCheck@@3P6AXXZA  10064178     Main.obj
 0003:0000117c       ?_headmoveSetRelPosX@@3P6AXH@ZA 1006417c     Main.obj
 0003:00001180       ?_headmoveSetRelPosY@@3P6AXH@ZA 10064180     Main.obj
 0003:00001184       ?_headmoveTouch@@3P6AXXZA  10064184     Main.obj
 0003:00001188       ?_RandRange@@3P6AHHH@ZA    10064188     Main.obj
 0003:0000118c       ?_GhostNotify@@3P6AXHH@ZA  1006418c     Main.obj
 0003:00001190       ?_GhostChangeRemoteConfig@@3P6AXHHH@ZA 10064190     Main.obj
 0003:00001194       ?_GhostRemRemote@@3P6AXH@ZA 10064194     Main.obj
 0003:00001198       ?_GhostAddRemote@@3P6AXHMH@ZA 10064198     Main.obj
 0003:0000119c       ?_GhostAddLocal@@3P6AXHMH@ZA 1006419c     Main.obj
 0003:000011a0       ?_GhostGetRemote@@3P6APAUsGhostRemote@@H@ZA 100641a0     Main.obj
 0003:000011a4       ?_GhostGetLocal@@3P6APAUsGhostLocal@@H@ZA 100641a4     Main.obj
 0003:000011a8       ?_GhostSendMoCap@@3P6AXHFFH@ZA 100641a8     Main.obj
 0003:000011ac       ?_GhostSendHeartbeat@@3P6AXPAUsGhostLocal@@PAUsGhostPos@@@ZA 100641ac     Main.obj
 0003:000011b0       ?_GetGhostType@@3P6AHH@ZA  100641b0     Main.obj
 0003:000011b4       ?_GhostRecvPacket@@3P6AXHHHPAUsGhostHeartbeat@@PAUsGhostMoCap@@@ZA 100641b4     Main.obj
 0003:000011b8       ?_IsLocalGhost@@3P6AHH@ZA  100641b8     Main.obj
 0003:000011bc       ?_IsRemoteGhost@@3P6AHH@ZA 100641bc     Main.obj
 0003:000011c0       ?_ChooseCapture@@3P6APADPAUsGhostRemote@@H@ZA 100641c0     Main.obj
 0003:000011c4       ?_IsNewPacketNeeded@@3P6AHPAUsGhostLocal@@PAUsGhostPos@@@ZA 100641c4     Main.obj
 0003:000011c8       ?_GhostJumpOff@@3P6AXH@ZA  100641c8     Main.obj
 0003:000011cc       ?LoadRemoteGhosts@@3P6AJPAVTagFileRead@@K@ZA 100641cc     Main.obj
 0003:000011d0       ?__GhostBuildMotionCoord@@3P6AXPAUsGhostRemote@@@ZA 100641d0     Main.obj
 0003:000011d4       ?__GhostConfigureRemoteModels@@3P6AXPAUsGhostRemote@@@ZA 100641d4     Main.obj
 0003:000011d8       ?_ReAimGhostPhysics@@3P6AXPAUsGhostRemote@@M@ZA 100641d8     Main.obj
 0003:000011dc       ?_AimGhostHead@@3P6AXPAUsGhostRemote@@@ZA 100641dc     Main.obj
 0003:000011e0       ?_UpdateGhostPrediction@@3P6AXPAUsGhostRemote@@M@ZA 100641e0     Main.obj
 0003:000011e4       ?_GhostAllowedToBuildModels@@3P6AHPAUsGhostRemote@@@ZA 100641e4     Main.obj
 0003:000011e8       ?_GhostPerFrameModeUpdate@@3P6AXPAUsGhostRemote@@@ZA 100641e8     Main.obj
 0003:000011ec       ?_MocapEval@@3P6AXPAUsGhostRemote@@M@ZA 100641ec     Main.obj
 0003:000011f0       ?_MocapRunMe@@3P6AXPAUsGhostRemote@@PAD@ZA 100641f0     Main.obj
 0003:000011f4       ?__GhostGravRemote@@3P6AKHAAUmxs_vector@@K@ZA 100641f4     Main.obj
 0003:000011f8       ?__GhostApproxPhys@@3P6AXHAAUmxs_vector@@PAUsGhostPos@@MK@ZA 100641f8     Main.obj
 0003:000011fc       ?__is_zero_vec@@3P6AHAAUmxs_vector@@@ZA 100641fc     Main.obj
 0003:00001200       ?__GhostBleedVelocity@@3P6AXHPAUsGhostPos@@KKM@ZA 10064200     Main.obj
 0003:00001204       ?_AnalyzeVelocity@@3P6AXPAUsGhostRemote@@PAW4eGhostMotionSpeed@@PAH@ZA 10064204     Main.obj
 0003:00001208       ?_GhostAllowedToSleep@@3P6AHPAUsGhostRemote@@@ZA 10064208     Main.obj
 0003:0000120c       ?__GhostPhysSleep@@3P6AXPAUsGhostRemote@@@ZA 1006420c     Main.obj
 0003:00001210       ?__GhostSetupInitialPhysRemote@@3P6AXPAUsGhostRemote@@@ZA 10064210     Main.obj
 0003:00001214       ?_BuildTagBasedPlan@@3P6APAUIMotionPlan@@PAUsGhostRemote@@PAD@ZA 10064214     Main.obj
 0003:00001218       ?_BuildSchemaOffsetPlan@@3P6APAUIMotionPlan@@PAUsGhostRemote@@HH@ZA 10064218     Main.obj
 0003:0000121c       ?_FrobExecute@@3P6AXPAUsFrobActivate@@@ZA 1006421c     Main.obj
 0003:00001220       ?_FrobInstantExecute@@3P6AXPAUsFrobActivate@@@ZA 10064220     Main.obj
 0003:00001224       ?_FrobHandler@@3P6A?AW4eFrobHandler@@H@ZA 10064224     Main.obj
 0003:00001228       ?_net_damage_filter@@3P6GJHHPAUsDamage@@PAX@ZA 10064228     Main.obj
 0003:0000122c       ?_GetRealCulprit@@3P6AHH@ZA 1006422c     Main.obj
 0003:00001230       ?HandleFrobRequest@@3P6AXKKKKKKK@ZA 10064230     Main.obj
 0003:00001234       ?HandleRegSphere@@3P6AXHHKMPAUmxs_vector@@K@ZA 10064234     Main.obj
 0003:00001238       ?HandleDamage@@3P6AXHHH@ZA 10064238     Main.obj
 0003:0000123c       ?HandleCreateQuestData@@3P6AXPADHHK@ZA 1006423c     Main.obj
 0003:00001240       ?HandleSetQuestData@@3P6AXPADHK@ZA 10064240     Main.obj
 0003:00001244       ?HandleHaltSound@@3P6AXHH@ZA 10064244     Main.obj
 0003:00001248       ?HandleFrobPickup@@3P6AXKK@ZA 10064248     Main.obj
 0003:0000124c       ?HandlePlayerInfo@@3P6AXHPAD0HPAUINetManager@@@ZA 1006424c     Main.obj
 0003:00001250       ?HandleGhostFullHB@@3P6AXHHHPAUsGhostHeartbeat@@H@ZA 10064250     Main.obj
 0003:00001254       ?HandleSimpleSoundVec@@3P6AXHPAUmxs_vector@@HHPAUsfx_parm@@H@ZA 10064254     Main.obj
 0003:00001258       ?HandleSoundVec@@3P6AXHPAUmxs_vector@@HHPAUsfx_parm@@H@ZA 10064258     Main.obj
 0003:0000125c       ?HandleUseWeapon@@3P6AXH@ZA 1006425c     Main.obj
 0003:00001260       ?HandleDropItem@@3P6AXXZA  10064260     Main.obj
 0003:00001264       ?_r3_start_object_angles@@3P6AXPAUmxs_vector@@PAFH@ZA 10064264     Main.obj
 0003:00001268       ?_kb_next@@3P6A?AU_kbs_event@@XZA 10064268     Main.obj
 0003:0000126c       ?_kb_cook_real@@3P6AFAAU_kbs_event@@AAFAAEH@ZA 1006426c     Main.obj
 0003:00001270       ?CollideEvent@@3P6AHHHHMPAVcPhysClsn@@@ZA 10064270     Main.obj
 0003:00001274       ?CollideEventRaw@@3P6AHHHHMPAVcPhysClsn@@@ZA 10064274     Main.obj
 0003:00001278       ?_count_all_loot@@3P6AHH@ZA 10064278     Main.obj
 0003:0000127c       ?SlayReactionHandler@@3P6GKPAUsReactionEvent@@PBUsReactionParam@@PAX@ZA 1006427c     Main.obj
 0003:00001280       ?KnockoutReactionHandler@@3P6GKPAUsReactionEvent@@PBUsReactionParam@@PAX@ZA 10064280     Main.obj
 0003:00001284       ?AddMetaPropReactionHandler@@3P6GKPAUsReactionEvent@@PBUsReactionParam@@PAX@ZA 10064284     Main.obj
 0003:00001288       ?FrobObjectReactionHandler@@3P6GKPAUsReactionEvent@@PBUsReactionParam@@PAX@ZA 10064288     Main.obj
 0003:0000128c       ?OldPlayerCreateHook@@3P6AXHH@ZA 1006428c     Main.obj
 0003:00001290       ?PlayerFactoryHook@@3P6AHXZA 10064290     Main.obj
 0003:00001294       ?FrobItem@@3P6AXH@ZA       10064294     Main.obj
 0003:00001298       ?DarkReleaseBlood@@3P6AXPAUsDamageMsg@@@ZA 10064298     Main.obj
 0003:0000129c       ?darkSendFrobPickup@@3P6AXHH@ZA 1006429c     Main.obj
 0003:000012a0       ?SetTotalLootQuestData@@3P6AXH@ZA 100642a0     Main.obj
 0003:000012a4       ?DarkCombatDamageListener@@3P6GKPBUsDamageMsg@@PAX@ZA 100642a4     Main.obj
 0003:000012a8       ?darkInvTakeObjFromWorld@@3P6AHHH@ZA 100642a8     Main.obj
 0003:000012ac       ?SendProjectilePacket@@3P6AXHHKMPAUmxs_vector@@PAUmxs_angvec@@0@ZA 100642ac     Main.obj
 0003:000012b0       ?HandleFireProjectile@@3P6AXHHKMPAUmxs_vector@@PAUmxs_angvec@@0@ZA 100642b0     Main.obj
 0003:000012b4       ?PlaySoundObj@@3P6AHPBDHH@ZA 100642b4     Main.obj
 0003:000012b8       ?CreateProjectile@@3P6AHHHKMPAUmxs_vector@@PAUmxs_angvec@@0@ZA 100642b8     Main.obj
 0003:000012bc       ?CollisionResolver@@3P6AXPBUtSpringInfo@@K@ZA 100642bc     Main.obj
 0003:000012c0       ?PlaySchemaPlayer@@3P6AHPBD@ZA 100642c0     Main.obj
 0003:000012c4       ?RemoveRelationByID@@3P6AXHF@ZA 100642c4     Main.obj
 0003:000012c8       ?FindGroundTextureLoc@@3P6AHPAUmxs_vector@@00@ZA 100642c8     Main.obj
 0003:000012cc       ?sub_560650@@3P6AHHH@ZA    100642cc     Main.obj
 0003:000012d0       ?sub_56E0C0@@3P6AHPAK@ZA   100642d0     Main.obj
 0003:000012d4       ?unnamed_4AFF10@@3P6AHPAXHH@ZA 100642d4     Main.obj
 0003:000012d8       ?GameModeEnterUnpause@@3P6AXXZA 100642d8     Main.obj
 0003:000012dc       ?GetGoalState@@3P6AHPAUIQuestData@@H@ZA 100642dc     Main.obj
 0003:000012e0       ?GoalFiction@@3P6A?AVcAnsiStr@@H@ZA 100642e0     Main.obj
 0003:000012e4       ?GoalDescription@@3P6A?AVcAnsiStr@@H@ZA 100642e4     Main.obj
 0003:000012e8       ?GoalStatus@@3P6APAUIDataSource@@H@ZA 100642e8     Main.obj
 0003:000012ec       ?cStoredProperty_Set@@3P6GHPAUIProperty@@HPAX@ZA 100642ec     Main.obj
 0003:000012f0       ?cStoredProperty_GetInt@@3P6GHPAUIProperty@@HPAH@ZA 100642f0     Main.obj
 0003:000012f4       ?cStoredProperty_GetVoid@@3P6GHPAUIProperty@@HPAPAX@ZA 100642f4     Main.obj
 0003:000012f8       ?cStoredProperty_SendPropertyMsg@@3P6GHPAUsNetMsg_Generic@@HKK@ZA 100642f8     Main.obj
 0003:000012fc       ?cStoredProperty_ReceivePropertyMsg@@3P6GXPBUsNetMsg_Generic@@KKH@ZA 100642fc     Main.obj
 0003:00001300       ?cStoredProperty_OnListenMsg@@3P6IXKHKHK@ZA 10064300     Main.obj
 0003:00001304       ?FromString@cTagSetFns@@3P6IHPAVcTagSet@@HPBD@ZA 10064304     Main.obj
 0003:00001308       ?HandleRemap@cObjectNetworkingFns@@3P6IXPAUIObjectNetworking@@HEIPAUsSingleRemap@@@ZA 10064308     Main.obj
 0003:0000130c       ?HandleEndCreate@cObjectNetworkingFns@@3P6IXPAUIObjectNetworking@@HH@ZA 1006430c     Main.obj
 0003:00001310       ?HandleBeginCreate@cObjectNetworkingFns@@3P6IHPAUIObjectNetworking@@HHHH@ZA 10064310     Main.obj
 0003:00001314       ?ClearProxyEntry@cObjectNetworkingFns@@3P6IXPAUIObjectNetworking@@HH@ZA 10064314     Main.obj
 0003:00001318       ?ScanNext@cHashSetBaseFns@@3P6IPAUtHashSetNode__@@PAVcHashSet@@HPAUtHashSetHandle@@@ZA 10064318     Main.obj
 0003:0000131c       ?FindIndex@cHashSetBaseFns@@3P6I?AUtHashSetHandle@@PAVcHashSet@@HPAUtHashSetKey__@@@ZA 1006431c     Main.obj
 0003:00001320       ?_ctor@cDarkPanelFns@@3P6IXPAVcDarkPanel@@HPBUsDarkPanelDesc@@PBD@ZA 10064320     Main.obj
 0003:00001324       ?_dtor@cDarkPanelFns@@3P6IXPAVcDarkPanel@@H@ZA 10064324     Main.obj
 0003:00001328       ?InitUI@cDarkPanelFns@@3P6IXPAVcDarkPanel@@H@ZA 10064328     Main.obj
 0003:0000132c       ?TermUI@cDarkPanelFns@@3P6IXPAVcDarkPanel@@H@ZA 1006432c     Main.obj
 0003:00001330       ?Select@cInventory@@3P6GJPAUIInventory@@H@ZA 10064330     Main.obj
 0003:00001334       ?ClearSelection@cInventory@@3P6GJPAUIInventory@@W4eWhichInvObj@@@ZA 10064334     Main.obj
 0003:00001338       ?IsObjSavePartition@cObjectSystem@@3P6GHPAUIObjectSystem@@HK@ZA 10064338     Main.obj
 0003:0000133c       ?Unlock@cObjectSystem@@3P6GJPAUIObjectSystem@@@ZA 1006433c     Main.obj
 0003:00001340       ?ClearTables@cObjectNetworking@@3P6GXPAUIObjectNetworking@@@ZA 10064340     Main.obj
 0003:00001344       ?ObjRegisterProxy@cObjectNetworking@@3P6GXPAUIObjectNetworking@@HFH@ZA 10064344     Main.obj
 0003:00001348       ?ObjGetProxy@cObjectNetworking@@3P6GHPAUIObjectNetworking@@HF@ZA 10064348     Main.obj
 0003:0000134c       ?ObjIsProxy@cObjectNetworking@@3P6GHPAUIObjectNetworking@@H@ZA 1006434c     Main.obj
 0003:00001350       ?ObjDeleteProxy@cObjectNetworking@@3P6GXPAUIObjectNetworking@@H@ZA 10064350     Main.obj
 0003:00001354       ?NotifyObjRemapped@cObjectNetworking@@3P6GXPAUIObjectNetworking@@HH@ZA 10064354     Main.obj
 0003:00001358       ?StartBeginCreate@cObjectNetworking@@3P6GXPAUIObjectNetworking@@HH@ZA 10064358     Main.obj
 0003:0000135c       ?FinishBeginCreate@cObjectNetworking@@3P6GXPAUIObjectNetworking@@H@ZA 1006435c     Main.obj
 0003:00001360       ?FinishEndCreate@cObjectNetworking@@3P6GXPAUIObjectNetworking@@H@ZA 10064360     Main.obj
 0003:00001364       ?ObjGiveTo@cObjectNetworking@@3P6GXPAUIObjectNetworking@@HHH@ZA 10064364     Main.obj
 0003:00001368       ?ObjTakeOver@cObjectNetworking@@3P6GXPAUIObjectNetworking@@H@ZA 10064368     Main.obj
 0003:0000136c       ?ObjGiveWithoutObjID@cObjectNetworking@@3P6GXPAUIObjectNetworking@@HH@ZA 1006436c     Main.obj
 0003:00001370       ?ObjHostInfo@cObjectNetworking@@3P6GXPAUIObjectNetworking@@HPAHPAF@ZA 10064370     Main.obj
 0003:00001374       ?StartDestroy@cObjectNetworking@@3P6GXPAUIObjectNetworking@@H@ZA 10064374     Main.obj
 0003:00001378       ?StartEndCreate@cObjectNetworking@@3P6GXPAUIObjectNetworking@@H@ZA 10064378     Main.obj
 0003:0000137c       ?Add@cContainSys@@3P6GJPAUIContainSys@@HHHI@ZA 1006437c     Main.obj
 0003:00001380       ?CreatePlan@cGroundLocoManeuverFactory@@3P6GPAVcMotionPlan@@PBVcMotionSchema@@AAUsMcMotorState@@AAUsMcMoveState@@AAUsMcMoveParams@@PAVIMotor@@PAVcMotionCoordinator@@@ZA 10064380     Main.obj
 0003:00001384       ?EndMission@cDarkGameSrv@@3P6GJK@ZA 10064384     Main.obj
 0003:00001388       ?FadeToBlack@cDarkGameSrv@@3P6GJKM@ZA 10064388     Main.obj
 0003:0000138c       ?ReadBook@cDarkUISrv@@3P6GJKPBD0@ZA 1006438c     Main.obj
 0003:00001390       ?Init@cNetManager@@3P6GJPAUINetManager@@@ZA 10064390     Main.obj
 0003:00001394       ?GetPlayerAddress@cNetManager@@3P6GPBDPAUINetManager@@H@ZA 10064394     Main.obj
 0003:00001398       ?EnumPlayersCallback@cNetManager@@3P6GHKKPBUDPNAME@@KPAX@ZA 10064398     Main.obj
 0003:0000139c       ?InitExistingPlayer@cNetManager@@3P6GHKKPBUDPNAME@@KPAX@ZA 1006439c     Main.obj
 0003:000013a0       ?_DestroyNetPlayerCallback@cNetManager@@3P6GHKKPBUDPNAME@@KPAX@ZA 100643a0     Main.obj
 0003:000013a4       ?Leave@cNetManager@@3P6GXPAUINetManager@@@ZA 100643a4     Main.obj
 0003:000013a8       ?gm_PlayerDPID@cNetManager@@3PAKA 100643a8     Main.obj
 0003:000013ac       ?gm_bSynchronizing@cNetManager@@3PAHA 100643ac     Main.obj
 0003:000013b0       ?gm_Net@cNetManager@@3PAKA 100643b0     Main.obj
 0003:000013b4       ?gm_TheNetManager@cNetManager@@3PAKA 100643b4     Main.obj
 0003:000013b8       ?gm_DefaultHostPlayer@cNetManager@@3PAKA 100643b8     Main.obj
 0003:000013bc       ?Host@cNet@@3P6GHPAUINet@@PAD1@ZA 100643bc     Main.obj
 0003:000013c0       ?SimpleCreatePlayer@cNet@@3P6GJPAUINet@@PAD@ZA 100643c0     Main.obj
 0003:000013c4       ?Join@cNet@@3P6GHPAUINet@@PBD11@ZA 100643c4     Main.obj
 0003:000013c8       ?EnterCallback@cPropSndInstHighFns@@3P6IHPAVcPropSndInstHigh@@HPBVcRoom@@PBVcRoomPortal@@ABUmxs_vector@@M@ZA 100643c8     Main.obj
 0003:000013cc       ?SpeechEndCallback@cAIConverse@@3P6AXHHH@ZA 100643cc     Main.obj
 0003:000013d0       ?EnactProxyJointScanAction@cAIBehaviorSet@@3P6GXPAUIAIBehaviorSet@@PAUIAI@@PAX@ZA 100643d0     Main.obj
 0003:000013d4       ?OnButtonList@cDebrief@@3P6IXPAVcDarkPanel@@HGH@ZA 100643d4     Main.obj
 0003:000013d8       ?StartPicking@cPickLockSrv@@3P6GHKHHH@ZA 100643d8     Main.obj
 0003:000013dc       ?FinishPicking@cPickLockSrv@@3P6GHKH@ZA 100643dc     Main.obj
 0003:000013e0       ?OnMouse@cDefaultInputDevicesSink@@3P6GJKPAU_lgMouseEvent@@@ZA 100643e0     Main.obj
 0003:000013e4       ?GetVelocity@cPhysModelFns@@3P6IABUmxs_vector@@PAVcPhysModel@@HH@ZA 100643e4     Main.obj
 0003:000013e8       ?IsLocationControlled@cPhysModelFns@@3P6IHPAVcPhysModel@@H@ZA 100643e8     Main.obj
 0003:000013ec       ?OnLoopMsg@cLoadingFns@@3P6IXPAVcLoading@@HHPAUtLoopMessageData__@@@ZA 100643ec     Main.obj
 0003:000013f0       ?DoFileLoad@cLoadingFns@@3P6IXPAVcLoading@@HPAUITagFile@@@ZA 100643f0     Main.obj
 0003:000013f4       ?AllocBuffer@cAnsiStrFns@@3P6IXPAVcAnsiStr@@HH@ZA 100643f4     Main.obj
 0003:000013f8       ?Append@cAnsiStrFns@@3P6IXPAVcAnsiStr@@HHPBD@ZA 100643f8     Main.obj
 0003:000013fc       ?InstallOnDeathCallback@cPlayerModeFns@@3P6IXPAVcPlayerMode@@HPAX@ZA 100643fc     Main.obj
 0003:00001400       ?SendSpew@cNetMsgFns@@3P6IXPAVcNetMsg@@HPAD@ZA 10064400     Main.obj
 0003:00001404       ?ReceiveSpew@cNetMsgFns@@3P6IXPAVcNetMsg@@HH@ZA 10064404     Main.obj
 0003:00001408       ?HandleMsg@cNetMsgFns@@3P6IXPAVcNetMsg@@HPBUsNetMsg_Generic@@KH@ZA 10064408     Main.obj
 0003:0000140c       ?MarshalArguments@cNetMsgFns@@3P6IHPAVcNetMsg@@HPADPAHPAI@ZA 1006440c     Main.obj
 0003:00001410       ?cNetManager_LoopFunc@@3P6GHPAXW4eLoopMsgType@@PAUtLoopMessageData__@@@ZA 10064410     Main.obj
 0003:00001414       ?cNetManager_SynchReady@@3P6IXPAUINetManager@@H@ZA 10064414     Main.obj
 0003:00001418       ?StartAttack@cBowSrv@@3P6GJPAUIBowSrv@@@ZA 10064418     Main.obj
 0003:0000141c       ?FinishAttack@cBowSrv@@3P6GJPAUIBowSrv@@@ZA 1006441c     Main.obj
 0003:00001420       ?TransferAI@cAIManager@@3P6GHPAUIAIManager@@HH@ZA 10064420     Main.obj
 0003:00001424       ?CreateAI@cAIManager@@3P6GHPAUIAIManager@@HPBD@ZA 10064424     Main.obj
 0003:00001428       ?StartConversation@cAIManager@@3P6GHPAUIAIManager@@H@ZA 10064428     Main.obj
 0003:0000142c       ?MakeFullAI@cAIManager@@3P6GJPAUIAIManager@@HPBUsAINetTransfer@@@ZA 1006442c     Main.obj
 0003:00001430       ?IsValidTarget@cAICombat@@3P6GHH@ZA 10064430     Main.obj
 0003:00001434       ?TeleportObject@cGameTools@@3P6GJKHPBUmxs_vector@@PBUmxs_angvec@@H@ZA 10064434     Main.obj
 0003:00001438       ?DoFileOp@cSaveFilePanelFns@@3P6IXPAKHH@ZA 10064438     Main.obj
 0003:0000143c       ?GetAwarenessLink@cAISensesFns@@3P6IJPAUIAISenses@@HHPAPAUsAIAwareness@@@ZA 1006443c     Main.obj
 0003:00001440       ?SetAwareness@cAISensesFns@@3P6IXPAUIAISenses@@HHJPBUsAIAwareness@@@ZA 10064440     Main.obj
 0003:00001444       ?React@cReactions@@3P6GJPAUIReactions@@KPAUsReactionEvent@@PBUsReactionParam@@@ZA 10064444     Main.obj
 0003:00001448       ?AddModule@cScriptMan@@3P6GJKPBD@ZA 10064448     Main.obj
 0003:0000144c       ?SendMessageA@cScriptMan@@3P6GJKPAUsScrMsg@@PAUsMultiParm@@@ZA 1006444c     Main.obj
 0003:00001450       ?TryToUseKey@cKeySys@@3P6GHKHHW4eKeyUse@@@ZA 10064450     Main.obj
 0003:00001454       ?SendMessageA@cBaseDamageModelFns@@3P6IKPAVcBaseDamageModel@@HPBUsDamageMsg@@@ZA 10064454     Main.obj
 0003:00001458       ?DamageObject@cSimpleDamageModelFns@@3P6GKKHHPAUsDamage@@PAUsChainedEvent@@H@ZA 10064458     Main.obj
 0003:0000145c       ?IDFromName@cNameMapFns@@3P6IHPAVcNameMap@@HPBULabel@@@ZA 1006445c     Main.obj
 0003:00001460       ?NameFromID@cNameMapFns@@3P6IPAULabel@@PAVcNameMap@@HH@ZA 10064460     Main.obj
 0003:00001464       ?Constructor@sSimMsgFns@@3P6IPAUsSimMsg@@PAU2@HHH@ZA 10064464     Main.obj
 0003:00001468       ?Destructor@sSimMsgFns@@3P6IXPAUsSimMsg@@H@ZA 10064468     Main.obj
 0003:0000146c       ?Constructor@sScrMsgFns@@3P6IPAUsScrMsg@@PAU2@H@ZA 1006446c     Main.obj
 0003:00001470       ?Destructor@sScrMsgFns@@3P6IXPAUsScrMsg@@H@ZA 10064470     Main.obj
 0003:00001474       ?g_MultiUIButtons@@3PAPBDA 10064474     MultiUI.obj
 0003:00001480       ?NetworkedReactions@@3PAUNetworkableReactionInfo@@A 10064480     NetReactions.obj
 0003:000014c8       ?g_MultiplayerPatches@@3PAUPtrPatchList@@A 100644c8     Patcher.obj
 0003:000016e8       ?g_StartupPatches@@3PAUPtrPatchList@@A 100646e8     Patcher.obj
 0003:00001cf8       ?g_StartupRawPatches@@3PAURawPatchList@@A 10064cf8     Patcher.obj
 0003:00002058       ?g_MultiplayerRawPatches@@3PAURawPatchList@@A 10065058     Patcher.obj
 0003:000020c0       ??_R0?AVbad_cast@@@8       100650c0     stdafx.obj
 0003:000020d8       ?g_GenOsmPatches@@3PAUPtrPatchList@@A 100650d8     ScriptHooks.obj
 0003:000021e8       ?g_ConvictOsmPatches@@3PAUPtrPatchList@@A 100651e8     ScriptHooks.obj
 0003:000022b4       ?m_Rect@MapOverlay@@1URect@@A 100652b4     DarkOverlay.obj
 0003:000022bc       ?m_Rect@BookOverlay@@1URect@@A 100652bc     DarkOverlay.obj
 0003:000022c4       ?m_Rect@SimOverlay@@1URect@@A 100652c4     DarkOverlay.obj
 0003:000022cc       ?m_Rect@ObjectivesOverlay@@1URect@@A 100652cc     DarkOverlay.obj
 0003:000022d4       ?m_Rect@PlayersOverlay@@1URect@@A 100652d4     DarkOverlay.obj
 0003:000022dc       ?m_nullString@NString@@1PBDB 100652dc     Engined:NString.obj
 0003:000022e0       ?kMissingString@@3PBDB     100652e0     Engined:IniFile.obj
 0003:000022e8       ?g_CRCTable@@3PAKA         100652e8     Engined:Crc32.obj
 0003:000027a8       ?__LINE__Var@?1??MessageHandler@GSClient_DP8@@QAEJPAXK0@Z@4JA 100657a8     GSClient_d:GSClient_DP8.obj
 0003:000027b0       ??_R0?AVtype_info@@@8      100657b0     MSVCRTD:ti_inst.obj
 0003:000027c8       ___security_cookie         100657c8     MSVCRTD:seccook.obj
 0003:000027d0       ?_RTC_ErrorLevels@@3PAHA   100657d0     MSVCRTD:error.obj
 0003:00002818       ?PlayerManeuverFactory@@3VcPlayerManeuverFactory@@A 10065818     Motions.obj
 0003:0000281c       ?GroundActionManeuverFactory@@3VcGroundActionManeuverFactory@@A 1006581c     Motions.obj
 0003:00002824       ?PropSendsMap@@3V?$map@PADHU?$less@PAD@std@@V?$allocator@U?$pair@QADH@std@@@2@@std@@A 10065824     StoredProperty.obj
 0003:00002830       ?g_pDarkNet@@3PAUIDarkNet@@A 10065830     DarkPeer.obj
 0003:00002834       ?g_Net@@3HA                10065834     DarkPeer.obj
 0003:00002838       ?g_bNeedSnapshot@@3_NA     10065838     DarkPeer.obj
 0003:00002839       ?m_bLoadedNetCommands@CDarkPeer@@1_NA 10065839     DarkPeer.obj
 0003:0000283a       ?m_bLoadedBinds@CDarkPeer@@1_NA 1006583a     DarkPeer.obj
 0003:0000283c       ?csReceive@@3VCCriticalSection@@A 1006583c     DarkPeer.obj
 0003:00002858       ?NewReceiveQueue@@3V?$SimpleQueue@UNetMessage@@@@A 10065858     DarkPeer.obj
 0003:00002868       ?g_ConnectAttempt@@3VConnectAttempt@@A 10065868     DarkPeer.obj
 0003:000030b0       ?Players@@3VPlayerDB@@A    100660b0     PlayerDB.obj
 0003:00003170       ?UI@@3PAVInterfaceManager@@A 10066170     DarkWinGui.obj
 0003:00003178       ?g_chatBox@@3U_LGadTextBox@@A 10066178     Chat.obj
 0003:00004278       ?g_chatBoxSubroot@@3UTextboxState@@A 10067278     Chat.obj
 0003:000044b8       ?g_chatBuffer@@3PADA       100674b8     Chat.obj
 0003:000045bc       ?Client@@3VCClient@@A      100675bc     Client.obj
 0003:000045e8       ?g_giveObj@@3HA            100675e8     ClientPacketHandler.obj
 0003:000045ec       ?lastReactionType@@3HA     100675ec     ClientPacketHandler.obj
 0003:000045f0       ?LoadingSaveGame@@3VcLoadingSaveGameFns@@A 100675f0     ClientSynch.obj
 0003:000045f4       ?g_bEchoDebug@@3_NA        100675f4     Config.obj
 0003:000045f8       ?Cfg@@3VConfigManager@@A   100675f8     Config.obj
 0003:0000460c       ?g_bNetStats@@3_NA         1006760c     Console.obj
 0003:0000460d       ?g_bVisStats@@3_NA         1006760d     Console.obj
 0003:0000460e       ?g_bMiscStats@@3_NA        1006760e     Console.obj
 0003:00004610       ?g_TextFont@@3PAUgrs_font@@A 10067610     DarkUIUtils.obj
 0003:00004614       ?g_TextFontRes@@3PAUIRes@@A 10067614     DarkUIUtils.obj
 0003:00004618       ?g_SmallFont@@3PAUgrs_font@@A 10067618     DarkUIUtils.obj
 0003:0000461c       ?g_SmallFontRes@@3PAUIRes@@A 1006761c     DarkUIUtils.obj
 0003:00004620       ?Debug@@3VCDebugManager@@A 10067620     Debug.obj
 0003:00004640       ?g_pDPWrapper@@3PAVCDPWrapper@@A 10067640     DP4Wrapper.obj
 0003:00004648       ?Gamesys@@3VCGamesysManager@@A 10067648     Gamesys.obj
 0003:000046c0       ?g_bDisableAIPrediction@@3_NA 100676c0     Ghost.obj
 0003:000046d4       ?ChNil@cAnsiStr@@2DA       100676d4     LG.obj
 0003:000046d8       ?g_LoopMsgNames@@3PAPADA   100676d8     Main.obj
 0003:000046dc       ?LoopGetMessageName@@3P6GPBDH@ZA 100676dc     Main.obj
 0003:000046e0       ?g_hInstDLL@@3PAUHINSTANCE__@@A 100676e0     Main.obj
 0003:000046e4       ?g_pPropMan@@3V?$GlobalPointer@UIPropertyManager@@@@A 100676e4     Main.obj
 0003:000046e8       ?g_pReactions@@3V?$GlobalPointer@UIReactions@@@@A 100676e8     Main.obj
 0003:000046ec       ?g_pNetMan@@3V?$GlobalPointer@UINetManager@@@@A 100676ec     Main.obj
 0003:000046f0       ?g_pNet@@3V?$GlobalPointer@UINet@@@@A 100676f0     Main.obj
 0003:000046f4       ?g_pObjSys@@3V?$GlobalPointer@UIObjectSystem@@@@A 100676f4     Main.obj
 0003:000046f8       ?g_pObjNet@@3V?$GlobalPointer@UIObjectNetworking@@@@A 100676f8     Main.obj
 0003:000046fc       ?g_pInputBinder@@3V?$GlobalPointer@UIInputBinder@@@@A 100676fc     Main.obj
 0003:00004700       ?g_pAIMan@@3V?$GlobalPointer@UIAIManager@@@@A 10067700     Main.obj
 0003:00004704       ?g_pContainSys@@3V?$GlobalPointer@UIContainSys@@@@A 10067704     Main.obj
 0003:00004708       ?g_pTraitMan@@3V?$GlobalPointer@UITraitManager@@@@A 10067708     Main.obj
 0003:0000470c       ?g_pInventory@@3V?$GlobalPointer@UIInventory@@@@A 1006770c     Main.obj
 0003:00004710       ?g_pLinkMan@@3V?$GlobalPointer@UILinkManager@@@@A 10067710     Main.obj
 0003:00004714       ?g_pPlayerMode@@3V?$GlobalPointer@VcPlayerMode@@@@A 10067714     Main.obj
 0003:00004718       ?g_pWinAppOps@@3V?$GlobalPointer@VcWinAppOperations@cWindowsApplication@@@@A 10067718     Main.obj
 0003:0000471c       ?g_PhysModels@@3V?$GlobalPointer@VcPhysModels@@@@A 1006771c     Main.obj
 0003:00004720       ?g_pMalloc@@3V?$GlobalPointer@UIMalloc@@@@A 10067720     Main.obj
 0003:00004724       ?g_pScriptMan@@3V?$GlobalPointer@UIScriptMan@@@@A 10067724     Main.obj
 0003:00004728       ?g_pMotionSet@@3V?$GlobalPointer@UIMotionSet@@@@A 10067728     Main.obj
 0003:0000472c       ?g_pLootProp@@3V?$GlobalPointer@UIGenericProperty@@@@A 1006772c     Main.obj
 0003:00004730       ?g_pBloodCauseProp@@3V?$GlobalPointer@UIBoolProperty@@@@A 10067730     Main.obj
 0003:00004734       ?g_pBloodTypeProp@@3V?$GlobalPointer@UIStringProperty@@@@A 10067734     Main.obj
 0003:00004738       ?g_pPickCfgProperty@@3V?$GlobalPointer@UIGenericProperty@@@@A 10067738     Main.obj
 0003:0000473c       ?g_pPickStateProperty@@3V?$GlobalPointer@UIGenericProperty@@@@A 1006773c     Main.obj
 0003:00004740       ?g_pAIVisibilityProperty@@3V?$GlobalPointer@UIGenericProperty@@@@A 10067740     Main.obj
 0003:00004744       ?pFrobInfoProp@@3V?$GlobalPointer@UIGenericProperty@@@@A 10067744     Main.obj
 0003:00004748       ?g_pESndClassProp@@3V?$GlobalPointer@UIGenericProperty@@@@A 10067748     Main.obj
 0003:0000474c       ?tweq_models_prop@@3V?$GlobalPointer@UIGenericProperty@@@@A 1006774c     Main.obj
 0003:00004750       ?g_pAIProperty@@3V?$GlobalPointer@UIGenericProperty@@@@A 10067750     Main.obj
 0003:00004754       ?g_pAIFrustratedProperty@@3V?$GlobalPointer@UIGenericProperty@@@@A 10067754     Main.obj
 0003:00004758       ?gFrobHandlerProp@@3V?$GlobalPointer@UIIntProperty@@@@A 10067758     Main.obj
 0003:0000475c       ?gStackCountProp@@3V?$GlobalPointer@UIIntProperty@@@@A 1006775c     Main.obj
 0003:00004760       ?gWeaponExposureProp@@3V?$GlobalPointer@UIIntProperty@@@@A 10067760     Main.obj
 0003:00004764       ?g_pPrjSoundProp@@3V?$GlobalPointer@UIStringProperty@@@@A 10067764     Main.obj
 0003:00004768       ?actorTagListProp@@3V?$GlobalPointer@UIStringProperty@@@@A 10067768     Main.obj
 0003:0000476c       ?modelnameprop@@3V?$GlobalPointer@UIStringProperty@@@@A 1006776c     Main.obj
 0003:00004770       ?g_pLocalCopyProp@@3V?$GlobalPointer@UIBoolProperty@@@@A 10067770     Main.obj
 0003:00004774       ?g_pAINoGhostProperty@@3V?$GlobalPointer@UIBoolProperty@@@@A 10067774     Main.obj
 0003:00004778       ?g_pAINoHandoffProperty@@3V?$GlobalPointer@UIBoolProperty@@@@A 10067778     Main.obj
 0003:0000477c       ?pLockedProp@@3V?$GlobalPointer@UIBoolProperty@@@@A 1006777c     Main.obj
 0003:00004780       ?pBeingTakenProp@@3V?$GlobalPointer@UIBoolProperty@@@@A 10067780     Main.obj
 0003:00004784       ?g_pAISeesProjectileProperty@@3V?$GlobalPointer@UIBoolProperty@@@@A 10067784     Main.obj
 0003:00004788       ?g_pAIIsProxyProperty@@3V?$GlobalPointer@UIBoolProperty@@@@A 10067788     Main.obj
 0003:0000478c       ?gAlphaRenderProp@@3V?$GlobalPointer@UIFloatProperty@@@@A 1006778c     Main.obj
 0003:00004790       ?gAvatarHeightOffsetProp@@3V?$GlobalPointer@UIFloatProperty@@@@A 10067790     Main.obj
 0003:00004794       ?g_pPickDistProp@@3V?$GlobalPointer@UIFloatProperty@@@@A 10067794     Main.obj
 0003:00004798       ?g_pPickBiasProp@@3V?$GlobalPointer@UIFloatProperty@@@@A 10067798     Main.obj
 0003:0000479c       ?pCreatureProp@@3V?$GlobalPointer@UIIntProperty@@@@A 1006779c     Main.obj
 0003:000047a0       ?gPropHeartbeat@@3V?$GlobalPointer@UIIntProperty@@@@A 100677a0     Main.obj
 0003:000047a4       ?g_pPropSpeechVoiceIndex@@3V?$GlobalPointer@UIIntProperty@@@@A 100677a4     Main.obj
 0003:000047a8       ?g_pPropSchemaLastSample@@3V?$GlobalPointer@UIIntProperty@@@@A 100677a8     Main.obj
 0003:000047ac       ?g_pPhysAttrProp@@3V?$GlobalPointer@UIGenericProperty@@@@A 100677ac     Main.obj
 0003:000047b0       ?g_pPhysTypeProp@@3V?$GlobalPointer@UIGenericProperty@@@@A 100677b0     Main.obj
 0003:000047b4       ?g_pScriptProp@@3V?$GlobalPointer@UIGenericProperty@@@@A 100677b4     Main.obj
 0003:000047b8       ?g_pSpeechProp@@3V?$GlobalPointer@UIGenericProperty@@@@A 100677b8     Main.obj
 0003:000047bc       ?g_pPropSpeechVoice@@3V?$GlobalPointer@UILabelProperty@@@@A 100677bc     Main.obj
 0003:000047c0       ?gCombineTypeProp@@3V?$GlobalPointer@UILabelProperty@@@@A 100677c0     Main.obj
 0003:000047c4       ?g_pPhysInitVelProp@@3V?$GlobalPointer@UIVectorProperty@@@@A 100677c4     Main.obj
 0003:000047c8       ?g_pNoDropProperty@@3V?$GlobalPointer@UIBoolProperty@@@@A 100677c8     Main.obj
 0003:000047cc       ?g_pAIDefensiveStatProp@@3V?$GlobalPointer@UIAIRatingProperty@@@@A 100677cc     Main.obj
 0003:000047d0       ?g_pAIDodginessStatProp@@3V?$GlobalPointer@UIAIRatingProperty@@@@A 100677d0     Main.obj
 0003:000047d4       ?ppNowPickingRelation@@3V?$GlobalPointer@UIRelation@@@@A 100677d4     Main.obj
 0003:000047d8       ?ppVoiceLink@@3V?$GlobalPointer@UIRelation@@@@A 100677d8     Main.obj
 0003:000047dc       ?g_pPlayerFactoryRelation@@3V?$GlobalPointer@UIRelation@@@@A 100677dc     Main.obj
 0003:000047e0       ?ppFrobProxyRel@@3V?$GlobalPointer@UIRelation@@@@A 100677e0     Main.obj
 0003:000047e4       ?g_pAIProjectileRelation@@3V?$GlobalPointer@UIRelation@@@@A 100677e4     Main.obj
 0003:000047e8       ?_gContextPath@@3V?$GlobalPointer@UISearchPath@@@@A 100677e8     Main.obj
 0003:000047ec       ?_grd_canvas@@3V?$GlobalPointer@Ugrd_canvas@@@@A 100677ec     Main.obj
 0003:000047f0       ?gm_NetPlayerProp@cNetManager@@3V?$GlobalPointer@UINetPlayerProperty@@@@A 100677f0     Main.obj
 0003:000047f4       ?Log@@3VLogger@@A          100677f4     Main.obj
 0003:00004800       ?g_CoreThread@@3VCCriticalSection@@A 10067800     Main.obj
 0003:00004820       _g_pMultiUI                10067820     MultiUI.obj
 0003:00004824       ?g_pMultiNameProp@@3PAUIStringProperty@@A 10067824     NetProperties.obj
 0003:00004828       ?g_pSaveMgr@@3PAVSaveManager@@A 10067828     SaveManager.obj
 0003:0000482c       ?_Psave@?$_Facetptr@V?$ctype@D@std@@@std@@2PBVfacet@locale@2@B 1006782c     stdafx.obj
 0003:00004830       ?_Psave@?$_Facetptr@V?$ctype@G@std@@@std@@2PBVfacet@locale@2@B 10067830     stdafx.obj
 0003:00004844       ?g_pBrowser@@3PAVCServerBrowser@@A 10067844     ServerBrowser.obj
 0003:00004848       ?ScriptReceiveMessage@@3P6GXPAUIRootScript@@PAUsScrMsg@@PAVcMultiParm@@W4eScrTraceAction@@@ZA 10067848     ScriptHooks.obj
 0003:0000484c       ?g_pStrHash@@3PAVStringHashTable@@A 1006784c     StringHashTable.obj
 0003:00004850       ?g_pOverlayMgr@@3PAVDarkOverlayManager@@A 10067850     DarkOverlay.obj
 0003:00004854       ?AppLogCallback@@3P6AXPBD@ZA 10067854     Engined:Logger.obj
 0003:00004860       ?m_DefaultBuffer@CMarshalBuffer@@1PAEA 10067860     Engined:MarshalBuffer.obj
 0003:00004c60       ?g_dFrequency@Timing@@3NA  10067c60     Engined:Timing.obj
 0003:00004c68       ?g_Frequency@Timing@@3_JA  10067c68     Engined:Timing.obj
 0003:00004c70       ?g_DeltaFrame@@3VDelta@Timing@@A 10067c70     Engined:Timing.obj
 0003:00004d04       __adjust_fdiv              10067d04     <common>
 0003:00004d08       __pRawDllMain              10067d08     <common>
 0003:00004d0c       ___onexitend               10067d0c     <common>
 0003:00004d10       ___onexitbegin             10067d10     <common>

 entry point at        0001:0004be40

 Static symbols

 0001:fffff000       $L77922                    10000000 f   Gamesys.obj
 0001:fffff000       $L81812                    10000000 f   DP4Wrapper.obj
 0001:fffff000       $L76794                    10000000 f   Player.obj
 0001:fffff000       $L81872                    10000000 f   DP4Wrapper.obj
 0001:fffff000       $L78756                    10000000 f   ConsoleGUI.obj
 0001:fffff000       $L76810                    10000000 f   Player.obj
 0001:fffff000       $L78770                    10000000 f   ConsoleGUI.obj
 0001:fffff000       $L78803                    10000000 f   ConsoleGUI.obj
 0001:fffff000       $L77972                    10000000 f   Gamesys.obj
 0001:fffff000       $L77143                    10000000 f   ServerList.obj
 0001:fffff000       $L79261                    10000000 f   DarkOverlay.obj
 0001:fffff000       $L83165                    10000000 f   DarkPeer.obj
 0001:fffff000       __unwindfunclet$??0logic_error@std@@QAE@ABV01@@Z$0 10000000 f   GSClient_d:GSClient_DP8.obj
 0001:fffff000       $L83179                    10000000 f   DarkPeer.obj
 0001:fffff000       __unwindfunclet$??1logic_error@std@@UAE@XZ$0 10000000 f   GSClient_d:GSClient_DP8.obj
 0001:fffff000       $L83222                    10000000 f   DarkPeer.obj
 0001:fffff000       __unwindfunclet$??0logic_error@std@@QAE@ABV?$basic_string@DU?$char_traits@D@std@@V?$allocator@D@2@@1@@Z$0 10000000 f   GSClient_d:GSClient_DP8.obj
 0001:fffff000       $L77119                    10000000 f   ServerList.obj
 0001:fffff000       $L79275                    10000000 f   DarkOverlay.obj
 0001:fffff000       $L77105                    10000000 f   ServerList.obj
 0001:fffff000       $L79308                    10000000 f   DarkOverlay.obj
 0001:fffff000       $L77659                    10000000 f   MessageManager.obj
 0001:fffff000       $L81838                    10000000 f   DP4Wrapper.obj
 0001:fffff000       $L77673                    10000000 f   MessageManager.obj
 0001:fffff000       $L77936                    10000000 f   Gamesys.obj
 0001:fffff000       $L77706                    10000000 f   MessageManager.obj
 0001:fffff000       $L81906                    10000000 f   DP4Wrapper.obj
 0001:fffff000       $L77120                    10000000 f   ScriptHooks.obj
 0001:fffff000       $L62348                    10000000 f   Engined:ConfigManager.obj
 0001:fffff000       $L62362                    10000000 f   Engined:ConfigManager.obj
 0001:fffff000       $L61470                    10000000 f   Engined:EventManager.obj
 0001:fffff000       $L62397                    10000000 f   Engined:ConfigManager.obj
 0001:fffff000       $L61438                    10000000 f   Engined:EventManager.obj
 0001:fffff000       $L77105                    10000000 f   ScriptHooks.obj
 0001:fffff000       $L61424                    10000000 f   Engined:EventManager.obj
 0001:fffff000       $L81824                    10000000 f   DP4Wrapper.obj
 0001:fffff00b       $L77106                    1000000b f   ScriptHooks.obj
 0001:fffff00b       $L76811                    1000000b f   Player.obj
 0001:fffff00b       $L77121                    1000000b f   ScriptHooks.obj
 0001:fffff00b       $L76795                    1000000b f   Player.obj
 0001:fffff011       __ehhandler$?_Buynode@?$_Tree@V?$_Tmap_traits@KPAUDP4Data@@U?$less@K@std@@V?$allocator@U?$pair@$$CBKPAUDP4Data@@@std@@@3@$0A@@std@@@std@@IAEPAU_Node@?$_Tree_nod@V?$_Tmap_traits@KPAUDP4Data@@U?$less@K@std@@V?$allocator@U?$pair@$$CBKPAUDP4Data@@@std@@@3@$0A@@std@@@2@PAU342@00ABU?$pair@$$CBKPAUDP4Data@@@2@D@Z 10000011 f   DP4Wrapper.obj
 0001:fffff012       __ehhandler$??1logic_error@std@@UAE@XZ 10000012 f   Engined:EventManager.obj
 0001:fffff012       __ehhandler$??1logic_error@std@@UAE@XZ 10000012 f   Engined:ConfigManager.obj
 0001:fffff012       __ehhandler$??0logic_error@std@@QAE@ABV01@@Z 10000012 f   Engined:EventManager.obj
 0001:fffff012       __ehhandler$??0logic_error@std@@QAE@ABV?$basic_string@DU?$char_traits@D@std@@V?$allocator@D@2@@1@@Z 10000012 f   Engined:ConfigManager.obj
 0001:fffff012       __ehhandler$??0logic_error@std@@QAE@ABV01@@Z 10000012 f   Engined:ConfigManager.obj
 0001:fffff012       __ehhandler$??0logic_error@std@@QAE@ABV?$basic_string@DU?$char_traits@D@std@@V?$allocator@D@2@@1@@Z 10000012 f   Gamesys.obj
 0001:fffff012       __ehhandler$??1logic_error@std@@UAE@XZ 10000012 f   MessageManager.obj
 0001:fffff012       __ehhandler$??0logic_error@std@@QAE@ABV?$basic_string@DU?$char_traits@D@std@@V?$allocator@D@2@@1@@Z 10000012 f   MessageManager.obj
 0001:fffff012       __ehhandler$??1logic_error@std@@UAE@XZ 10000012 f   DarkOverlay.obj
 0001:fffff012       __ehhandler$??0logic_error@std@@QAE@ABV?$basic_string@DU?$char_traits@D@std@@V?$allocator@D@2@@1@@Z 10000012 f   DP4Wrapper.obj
 0001:fffff012       __ehhandler$??0logic_error@std@@QAE@ABV?$basic_string@DU?$char_traits@D@std@@V?$allocator@D@2@@1@@Z 10000012 f   ServerList.obj
 0001:fffff012       __ehhandler$??0logic_error@std@@QAE@ABV01@@Z 10000012 f   Gamesys.obj
 0001:fffff012       __ehhandler$??0logic_error@std@@QAE@ABV01@@Z 10000012 f   DarkPeer.obj
 0001:fffff012       __ehhandler$??0logic_error@std@@QAE@ABV?$basic_string@DU?$char_traits@D@std@@V?$allocator@D@2@@1@@Z 10000012 f   GSClient_d:GSClient_DP8.obj
 0001:fffff012       __ehhandler$??1logic_error@std@@UAE@XZ 10000012 f   DarkPeer.obj
 0001:fffff012       __ehhandler$??1logic_error@std@@UAE@XZ 10000012 f   GSClient_d:GSClient_DP8.obj
 0001:fffff012       __ehhandler$??0logic_error@std@@QAE@ABV?$basic_string@DU?$char_traits@D@std@@V?$allocator@D@2@@1@@Z 10000012 f   DarkPeer.obj
 0001:fffff012       __ehhandler$??0logic_error@std@@QAE@ABV01@@Z 10000012 f   GSClient_d:GSClient_DP8.obj
 0001:fffff012       __ehhandler$??1logic_error@std@@UAE@XZ 10000012 f   ServerList.obj
 0001:fffff012       __ehhandler$??0logic_error@std@@QAE@ABV01@@Z 10000012 f   ServerList.obj
 0001:fffff012       __ehhandler$??1logic_error@std@@UAE@XZ 10000012 f   Gamesys.obj
 0001:fffff012       __ehhandler$??0logic_error@std@@QAE@ABV01@@Z 10000012 f   ConsoleGUI.obj
 0001:fffff012       __ehhandler$??0logic_error@std@@QAE@ABV01@@Z 10000012 f   DarkOverlay.obj
 0001:fffff012       __ehhandler$??1logic_error@std@@UAE@XZ 10000012 f   ConsoleGUI.obj
 0001:fffff012       __ehhandler$??0logic_error@std@@QAE@ABV01@@Z 10000012 f   DP4Wrapper.obj
 0001:fffff012       __ehhandler$??0logic_error@std@@QAE@ABV?$basic_string@DU?$char_traits@D@std@@V?$allocator@D@2@@1@@Z 10000012 f   ConsoleGUI.obj
 0001:fffff012       __ehhandler$??0logic_error@std@@QAE@ABV01@@Z 10000012 f   MessageManager.obj
 0001:fffff012       __ehhandler$??0logic_error@std@@QAE@ABV?$basic_string@DU?$char_traits@D@std@@V?$allocator@D@2@@1@@Z 10000012 f   DarkOverlay.obj
 0001:fffff012       __ehhandler$?_Insert@?$_Tree@V?$_Tmap_traits@KPAUDP4Data@@U?$less@K@std@@V?$allocator@U?$pair@$$CBKPAUDP4Data@@@std@@@3@$0A@@std@@@std@@IAE?AViterator@12@_NPAU_Node@?$_Tree_nod@V?$_Tmap_traits@KPAUDP4Data@@U?$less@K@std@@V?$allocator@U?$pair@$$CBKPAUDP4Data@@@std@@@3@$0A@@std@@@2@ABU?$pair@$$CBKPAUDP4Data@@@2@@Z 10000012 f   DP4Wrapper.obj
 0001:fffff012       __ehhandler$??0logic_error@std@@QAE@ABV?$basic_string@DU?$char_traits@D@std@@V?$allocator@D@2@@1@@Z 10000012 f   Engined:EventManager.obj
 0001:fffff012       __ehhandler$??1logic_error@std@@UAE@XZ 10000012 f   DP4Wrapper.obj
 0001:fffff016       __ehhandler$??0sScrMsg@@QAE@XZ 10000016 f   ScriptHooks.obj
 0001:fffff016       __ehhandler$??0sScrMsg@@QAE@XZ 10000016 f   Player.obj
 0001:fffff016       __ehhandler$??1sScrMsg@@QAE@XZ 10000016 f   ScriptHooks.obj
 0001:fffff016       __ehhandler$??1sScrMsg@@QAE@XZ 10000016 f   Player.obj
 0001:fffff0a8       $L81905                    100000a8 f   DP4Wrapper.obj
 0001:00002283       $L79857                    10003283 f   Net.obj
 0001:00005ba8       $L76460                    10006ba8 f i StoredProperty.obj
 0001:00006302       $L76529                    10007302 f i StoredProperty.obj
 0001:0000853c       $L82783                    1000953c f   DarkPeer.obj
 0001:0000872f       $L82801                    1000972f f   DarkPeer.obj
 0001:00008ea4       $L82845                    10009ea4 f   DarkPeer.obj
 0001:0000d562       $L83273                    1000e562 f i DarkPeer.obj
 0001:0000d6a8       $L83289                    1000e6a8 f i DarkPeer.obj
 0001:00012099       $L78674                    10013099 f i ConsoleGUI.obj
 0001:000125cd       $L78726                    100135cd f i ConsoleGUI.obj
 0001:0001a560       $L81122                    1001b560 f   ClientPacketHandler.obj
 0001:0001a984       $L81140                    1001b984 f   ClientPacketHandler.obj
 0001:0001ad3d       $L81169                    1001bd3d f   ClientPacketHandler.obj
 0001:00020048       $L81678                    10021048 f   DP4Wrapper.obj
 0001:00020a12       $L75633                    10021a12 f   ErrorHanding.obj
 0001:00020c4a       $L75653                    10021c4a f   ErrorHanding.obj
 0001:00020d2f       $L75663                    10021d2f f   ErrorHanding.obj
 0001:00020e1e       $L75674                    10021e1e f   ErrorHanding.obj
 0001:00024908       $L77997                    10025908 f i Gamesys.obj
 0001:00025022       $L78067                    10026022 f i Gamesys.obj
 0001:000295c9       $L77587                    1002a5c9 f i MessageManager.obj
 0001:0002992d       $L77629                    1002a92d f i MessageManager.obj
 0001:0002e215       $L66632                    1002f215 f i stdafx.obj
 0001:0002e8d6       $L66690                    1002f8d6 f i stdafx.obj
 0001:0002ed64       $L66717                    1002fd64 f i stdafx.obj
 0001:0002f362       $L66762                    10030362 f i stdafx.obj
 0001:0002fa34       $L66818                    10030a34 f i stdafx.obj
 0001:0002fec6       $L66845                    10030ec6 f i stdafx.obj
 0001:0003196c       $L77996                    1003296c f   ServerBrowser.obj
 0001:00033259       $L78173                    10034259 f i ServerBrowser.obj
 0001:0003457d       $L77075                    1003557d f i ServerList.obj
 0001:00035d91       $L77049                    10036d91 f   ScriptHooks.obj
 0001:000379e0       ?PointInRect@@YA_NUPoint@@AAURect@@@Z 100389e0 f   DarkOverlay.obj
 0001:0003d58c       $L79230                    1003e58c f i DarkOverlay.obj
 0001:0003d694       $L79232                    1003e694 f i DarkOverlay.obj
 0001:0003df40       ?PointInRect@@YA_NUPoint@@AAURect@@@Z 1003ef40 f   DialogElement.obj
 0001:00040409       $L62278                    10041409 f i Engined:ConfigManager.obj
 0001:0004074d       $L62318                    1004174d f i Engined:ConfigManager.obj
 0001:00042d12       $L61389                    10043d12 f i Engined:EventManager.obj
 0001:00042e1a       $L61391                    10043e1a f i Engined:EventManager.obj
 0001:000434e2       $L61516                    100444e2 f i Engined:EventManager.obj
 0001:00043684       $L61537                    10044684 f i Engined:EventManager.obj
 0001:0004416e       $L60471                    1004516e f   Engined:NString.obj
 0001:00046ac0       $L60337                    10047ac0 f   Engined:Crc32.obj
 0001:00046cd4       $L60360                    10047cd4 f   Engined:Crc32.obj
 0001:00047660       ?GetExceptionDescription@@YAPBDK@Z 10048660 f   Engined:ExceptionHandler.obj
 0001:000476c0       ?hprintf@@YAXPAXPADZZ      100486c0 f   Engined:ExceptionHandler.obj
 0001:000477b0       ?RecordModuleList@@YAXPAX@Z 100487b0 f   Engined:ExceptionHandler.obj
 0001:00047900       ?ShowModuleInfo@@YAXPAXPAUHINSTANCE__@@@Z 10048900 f   Engined:ExceptionHandler.obj
 0001:00047b20       ?RecordSystemInformation@@YAXPAX@Z 10048b20 f   Engined:ExceptionHandler.obj
 0001:00047cb0       ?PrintTime@@YAXPADH@Z      10048cb0 f   Engined:ExceptionHandler.obj
 0001:00047d60       ?GetFilePart@@YAPADPAD@Z   10048d60 f   Engined:ExceptionHandler.obj
 0001:00048227       __catch$??0GSClient_DP8@@QAE@XZ$0 10049227 f   GSClient_d:GSClient_DP8.obj
 0001:00048ccd       __catch$?PingServer@GSClient_DP8@@UAE_NPBDGH@Z$0 10049ccd f   GSClient_d:GSClient_DP8.obj
 0001:0004b250       _report_failure            1004c250 f   MSVCRTD:secchk.obj
 0001:0004b400       ?ArrayUnwindFilter@@YAHPAU_EXCEPTION_POINTERS@@@Z 1004c400 f   MSVCRTD:ehvecdtr.obj
 0001:0004b620       ?failwithmessage@@YAXPAXHHPBD@Z 1004c620 f   MSVCRTD:error.obj
 0001:0004b710       ?DebuggerProbe@@YAHK@Z     1004c710 f   MSVCRTD:error.obj
 0001:0004b790       ?DebuggerRuntime@@YAHKHPAXPB_W@Z 1004c790 f   MSVCRTD:error.obj
 0001:0004ba20       ?IntToString@@YAPADH@Z     1004ca20 f   MSVCRTD:error.obj
 0001:0004bc10       ?_IsDebuggerPresent@@YAHXZ 1004cc10 f   MSVCRTD:error.obj
 0001:0004bc40       ?Initialize@@YAHXZ         1004cc40 f   MSVCRTD:error.obj
 0001:0004bcc0       ?Win95IsDebuggerPresent@@YGHXZ 1004ccc0 f   MSVCRTD:error.obj
 0001:0004bcd0       ?WinGetDebugContext@@YAPAXXZ 1004ccd0 f   MSVCRTD:error.obj
 0001:0004bce0       ?GetCurrentTib@@YAPAU_TIB@@XZ 1004cce0 f   MSVCRTD:error.obj
 0001:0004c5c0       ?GetImageInfo@@YAPAUImageInfo@@K@Z 1004d5c0 f   MSVCRTD:pdblkup.obj
 0001:0004c980       ?GetPdbDll@@YAPAUHINSTANCE__@@XZ 1004d980 f   MSVCRTD:pdblkup.obj
 0001:0004ce40       $L77001                    1004de40 f   Commands.obj
 0001:0004ce48       __ehhandler$?OnWinMission@@YAXXZ 1004de48 f   Commands.obj
 0001:0004ce60       $L79858                    1004de60 f   Net.obj
 0001:0004ce6b       __ehhandler$?Join@HookNet@@YGHPAUINet@@PBD11@Z 1004de6b f   Net.obj
 0001:0004ce80       $L76365                    1004de80 f   StoredProperty.obj
 0001:0004ce92       __ehhandler$?_Insert@?$_Tree@V?$_Tmap_traits@PADHU?$less@PAD@std@@V?$allocator@U?$pair@QADH@std@@@2@$0A@@std@@@std@@IAE?AViterator@12@_NPAU_Node@?$_Tree_nod@V?$_Tmap_traits@PADHU?$less@PAD@std@@V?$allocator@U?$pair@QADH@std@@@2@$0A@@std@@@2@ABU?$pair@QADH@2@@Z 1004de92 f   StoredProperty.obj
 0001:0004cea0       $L76381                    1004dea0 f   StoredProperty.obj
 0001:0004ceb2       __ehhandler$??0logic_error@std@@QAE@ABV?$basic_string@DU?$char_traits@D@std@@V?$allocator@D@2@@1@@Z 1004deb2 f   StoredProperty.obj
 0001:0004cec0       $L76395                    1004dec0 f   StoredProperty.obj
 0001:0004ced2       __ehhandler$??1logic_error@std@@UAE@XZ 1004ded2 f   StoredProperty.obj
 0001:0004cee0       $L76431                    1004dee0 f   StoredProperty.obj
 0001:0004cef2       __ehhandler$??0logic_error@std@@QAE@ABV01@@Z 1004def2 f   StoredProperty.obj
 0001:0004cf00       $L76461                    1004df00 f   StoredProperty.obj
 0001:0004cf11       __ehhandler$?_Buynode@?$_Tree@V?$_Tmap_traits@PADHU?$less@PAD@std@@V?$allocator@U?$pair@QADH@std@@@2@$0A@@std@@@std@@IAEPAU_Node@?$_Tree_nod@V?$_Tmap_traits@PADHU?$less@PAD@std@@V?$allocator@U?$pair@QADH@std@@@2@$0A@@std@@@2@PAU342@00ABU?$pair@QADH@2@D@Z 1004df11 f   StoredProperty.obj
 0001:0004cf20       __ehhandler$?_Buynode@?$_Tree@V?$_Tmap_traits@PADHU?$less@PAD@std@@V?$allocator@U?$pair@QADH@std@@@2@$0A@@std@@@std@@IAEPAU_Node@?$_Tree_nod@V?$_Tmap_traits@PADHU?$less@PAD@std@@V?$allocator@U?$pair@QADH@std@@@2@$0A@@std@@@2@XZ 1004df20 f   StoredProperty.obj
 0001:0004cf30       $L76586                    1004df30 f   StoredProperty.obj
 0001:0004cf42       __ehhandler$?erase@?$_Tree@V?$_Tmap_traits@PADHU?$less@PAD@std@@V?$allocator@U?$pair@QADH@std@@@2@$0A@@std@@@std@@QAE?AViterator@12@V312@@Z 1004df42 f   StoredProperty.obj
 0001:0004cf50       $L82670                    1004df50 f   DarkPeer.obj
 0001:0004cf58       $L82671                    1004df58 f   DarkPeer.obj
 0001:0004cf63       $L82672                    1004df63 f   DarkPeer.obj
 0001:0004cf6e       $L82673                    1004df6e f   DarkPeer.obj
 0001:0004cf79       __ehhandler$??0CDarkPeer@@QAE@W4NetState@@@Z 1004df79 f   DarkPeer.obj
 0001:0004cf83       $L82708                    1004df83 f   DarkPeer.obj
 0001:0004cf8b       $L82709                    1004df8b f   DarkPeer.obj
 0001:0004cf96       $L82710                    1004df96 f   DarkPeer.obj
 0001:0004cfa1       $L82711                    1004dfa1 f   DarkPeer.obj
 0001:0004cfac       __ehhandler$??1CDarkPeer@@UAE@XZ 1004dfac f   DarkPeer.obj
 0001:0004cfb6       $L82745                    1004dfb6 f   DarkPeer.obj
 0001:0004cfbe       __ehhandler$?OnEnumerationResponse@CDarkPeer@@IAEXPAU_DPNMSG_ENUM_HOSTS_RESPONSE@@@Z 1004dfbe f   DarkPeer.obj
 0001:0004cfc8       $L82784                    1004dfc8 f   DarkPeer.obj
 0001:0004cfd3       __ehhandler$?InitClient@CDarkPeer@@IAEXXZ 1004dfd3 f   DarkPeer.obj
 0001:0004cfdd       __ehhandler$?InitGlobalLink@CDarkPeer@@IAE_NXZ 1004dfdd f   DarkPeer.obj
 0001:0004cfe7       $L82846                    1004dfe7 f   DarkPeer.obj
 0001:0004cff5       __ehhandler$?InitServer@CDarkPeer@@IAEXXZ 1004dff5 f   DarkPeer.obj
 0001:0004cfff       $L82876                    1004dfff f   DarkPeer.obj
 0001:0004d007       $L82877                    1004e007 f   DarkPeer.obj
 0001:0004d015       __ehhandler$?HandleCreatePlayerMsg@CDarkPeer@@IAEXPAU_DPNMSG_CREATE_PLAYER@@@Z 1004e015 f   DarkPeer.obj
 0001:0004d01f       $L82917                    1004e01f f   DarkPeer.obj
 0001:0004d02d       $L82918                    1004e02d f   DarkPeer.obj
 0001:0004d03b       $L82919                    1004e03b f   DarkPeer.obj
 0001:0004d049       __ehhandler$?MessageHandler@CDarkPeer@@IAEJPAXK0@Z 1004e049 f   DarkPeer.obj
 0001:0004d053       $L82938                    1004e053 f   DarkPeer.obj
 0001:0004d05e       __ehhandler$?HandleNewPacket@CDarkPeer@@IAEXPAEKK@Z 1004e05e f   DarkPeer.obj
 0001:0004d070       $L83046                    1004e070 f   DarkPeer.obj
 0001:0004d07b       $L83047                    1004e07b f   DarkPeer.obj
 0001:0004d086       __ehhandler$?Push@?$SimpleQueue@UNetMessage@@@@QAEXPAUNetMessage@@@Z 1004e086 f   DarkPeer.obj
 0001:0004d090       $L83153                    1004e090 f   DarkPeer.obj
 0001:0004d0a2       __ehhandler$?_Insert@?$_Tree@V?$_Tmap_traits@KPAUDP4Data@@U?$less@K@std@@V?$allocator@U?$pair@$$CBKPAUDP4Data@@@std@@@3@$0A@@std@@@std@@IAE?AViterator@12@_NPAU_Node@?$_Tree_nod@V?$_Tmap_traits@KPAUDP4Data@@U?$less@K@std@@V?$allocator@U?$pair@$$CBKPAUDP4Data@@@std@@@3@$0A@@std@@@2@ABU?$pair@$$CBKPAUDP4Data@@@2@@Z 1004e0a2 f   DarkPeer.obj
 0001:0004d0b0       $L83242                    1004e0b0 f   DarkPeer.obj
 0001:0004d0c2       __ehhandler$?erase@?$_Tree@V?$_Tmap_traits@KPAUDP4Data@@U?$less@K@std@@V?$allocator@U?$pair@$$CBKPAUDP4Data@@@std@@@3@$0A@@std@@@std@@QAE?AViterator@12@V312@@Z 1004e0c2 f   DarkPeer.obj
 0001:0004d0d0       __ehhandler$?_Buynode@?$_Tree@V?$_Tmap_traits@KPAUDP4Data@@U?$less@K@std@@V?$allocator@U?$pair@$$CBKPAUDP4Data@@@std@@@3@$0A@@std@@@std@@IAEPAU_Node@?$_Tree_nod@V?$_Tmap_traits@KPAUDP4Data@@U?$less@K@std@@V?$allocator@U?$pair@$$CBKPAUDP4Data@@@std@@@3@$0A@@std@@@2@XZ 1004e0d0 f   DarkPeer.obj
 0001:0004d0e0       $L83290                    1004e0e0 f   DarkPeer.obj
 0001:0004d0f1       __ehhandler$?_Buynode@?$_Tree@V?$_Tmap_traits@KPAUDP4Data@@U?$less@K@std@@V?$allocator@U?$pair@$$CBKPAUDP4Data@@@std@@@3@$0A@@std@@@std@@IAEPAU_Node@?$_Tree_nod@V?$_Tmap_traits@KPAUDP4Data@@U?$less@K@std@@V?$allocator@U?$pair@$$CBKPAUDP4Data@@@std@@@3@$0A@@std@@@2@PAU342@00ABU?$pair@$$CBKPAUDP4Data@@@2@D@Z 1004e0f1 f   DarkPeer.obj
 0001:0004d100       $L83368                    1004e100 f   DarkPeer.obj
 0001:0004d115       __ehhandler$??0ConnectAttempt@@QAE@XZ 1004e115 f   DarkPeer.obj
 0001:0004d120       $L83384                    1004e120 f   DarkPeer.obj
 0001:0004d135       __ehhandler$??1ConnectAttempt@@QAE@XZ 1004e135 f   DarkPeer.obj
 0001:0004d140       $L79905                    1004e140 f   DarkSessionManager.obj
 0001:0004d14b       $L79906                    1004e14b f   DarkSessionManager.obj
 0001:0004d156       __ehhandler$??0CDarkSessionManager@@QAE@PAUIDirectPlay8Peer@@@Z 1004e156 f   DarkSessionManager.obj
 0001:0004d160       $L79920                    1004e160 f   DarkSessionManager.obj
 0001:0004d16b       __ehhandler$??1CDarkSessionManager@@UAE@XZ 1004e16b f   DarkSessionManager.obj
 0001:0004d175       $L79928                    1004e175 f   DarkSessionManager.obj
 0001:0004d17d       __ehhandler$?SetApplicationDesc@CDarkSessionManager@@QAEXPBU_DPN_APPLICATION_DESC@@@Z 1004e17d f   DarkSessionManager.obj
 0001:0004d187       $L79946                    1004e187 f   DarkSessionManager.obj
 0001:0004d18f       __ehhandler$?SetSessionInfo@CDarkSessionManager@@QAEXPBU_DPN_APPLICATION_DESC@@@Z 1004e18f f   DarkSessionManager.obj
 0001:0004d1a0       $L75666                    1004e1a0 f   PlayerDB.obj
 0001:0004d1b3       __ehhandler$??0PlayerDB@@QAE@XZ 1004e1b3 f   PlayerDB.obj
 0001:0004d1c0       $L67269                    1004e1c0 f   T2ScriptMsg.obj
 0001:0004d1cb       __ehhandler$?CreateFrobMsg@CNetMsg_ScriptMsg@@IAEPAUsScrMsg@@XZ 1004e1cb f   T2ScriptMsg.obj
 0001:0004d1d5       $L67283                    1004e1d5 f   T2ScriptMsg.obj
 0001:0004d1e0       __ehhandler$?CreateScrMsg@CNetMsg_ScriptMsg@@IAEPAUsScrMsg@@XZ 1004e1e0 f   T2ScriptMsg.obj
 0001:0004d1f0       $L67291                    1004e1f0 f   T2ScriptMsg.obj
 0001:0004d1fb       $L67292                    1004e1fb f   T2ScriptMsg.obj
 0001:0004d206       __ehhandler$??0sScrMsg@@QAE@XZ 1004e206 f   T2ScriptMsg.obj
 0001:0004d210       $L76649                    1004e210 f   ConnectDialog.obj
 0001:0004d222       __ehhandler$?DisplayPage@CConnectDialog@@QAEXXZ 1004e222 f   ConnectDialog.obj
 0001:0004d230       $L78474                    1004e230 f   ConsoleGUI.obj
 0001:0004d23b       $L78475                    1004e23b f   ConsoleGUI.obj
 0001:0004d246       __ehhandler$??0CConsoleBase@@QAE@PAUHINSTANCE__@@HHHP6GHPAUHWND__@@IIJ@Z@Z 1004e246 f   ConsoleGUI.obj
 0001:0004d250       $L78502                    1004e250 f   ConsoleGUI.obj
 0001:0004d25b       $L78503                    1004e25b f   ConsoleGUI.obj
 0001:0004d266       __ehhandler$??1CConsoleBase@@UAE@XZ 1004e266 f   ConsoleGUI.obj
 0001:0004d270       $L78561                    1004e270 f   ConsoleGUI.obj
 0001:0004d27b       __ehhandler$?AddLine@HistoryManager@@QAEXPBD@Z 1004e27b f   ConsoleGUI.obj
 0001:0004d285       $L78582                    1004e285 f   ConsoleGUI.obj
 0001:0004d290       __ehhandler$??1HistoryManager@@QAE@XZ 1004e290 f   ConsoleGUI.obj
 0001:0004d2a0       $L78635                    1004e2a0 f   ConsoleGUI.obj
 0001:0004d2ab       $L78636                    1004e2ab f   ConsoleGUI.obj
 0001:0004d2b6       __ehhandler$?Push@?$SimpleQueue@D@@QAEXPAD@Z 1004e2b6 f   ConsoleGUI.obj
 0001:0004d2c0       __ehhandler$?_Buynode@?$list@PAVHistoryItem@@V?$allocator@PAVHistoryItem@@@std@@@std@@IAEPAU_Node@?$_List_nod@PAVHistoryItem@@V?$allocator@PAVHistoryItem@@@std@@@2@XZ 1004e2c0 f   ConsoleGUI.obj
 0001:0004d2d0       $L78727                    1004e2d0 f   ConsoleGUI.obj
 0001:0004d2e1       __ehhandler$?_Buynode@?$list@PAVHistoryItem@@V?$allocator@PAVHistoryItem@@@std@@@std@@IAEPAU_Node@?$_List_nod@PAVHistoryItem@@V?$allocator@PAVHistoryItem@@@std@@@2@PAU342@0ABQAVHistoryItem@@@Z 1004e2e1 f   ConsoleGUI.obj
 0001:0004d2f0       $L78744                    1004e2f0 f   ConsoleGUI.obj
 0001:0004d302       __ehhandler$?_Incsize@?$list@PAVHistoryItem@@V?$allocator@PAVHistoryItem@@@std@@@std@@IAEXI@Z 1004e302 f   ConsoleGUI.obj
 0001:0004d310       $L77900                    1004e310 f   DarkWinGui.obj
 0001:0004d31b       $L77901                    1004e31b f   DarkWinGui.obj
 0001:0004d326       $L77902                    1004e326 f   DarkWinGui.obj
 0001:0004d331       $L77903                    1004e331 f   DarkWinGui.obj
 0001:0004d33c       $L77904                    1004e33c f   DarkWinGui.obj
 0001:0004d347       __ehhandler$?CreateChildWindow@InterfaceManager@@UAEXH@Z 1004e347 f   DarkWinGui.obj
 0001:0004d351       $L77961                    1004e351 f   DarkWinGui.obj
 0001:0004d35c       $L77962                    1004e35c f   DarkWinGui.obj
 0001:0004d36e       __ehhandler$?DialogProc@CThiefConsole@@QAGHPAUHWND__@@IIJ@Z 1004e36e f   DarkWinGui.obj
 0001:0004d378       $L77979                    1004e378 f   DarkWinGui.obj
 0001:0004d383       __ehhandler$?WinGuiInit@@YAXXZ 1004e383 f   DarkWinGui.obj
 0001:0004d390       $L78211                    1004e390 f   HostDialog.obj
 0001:0004d398       $L78212                    1004e398 f   HostDialog.obj
 0001:0004d3a3       __ehhandler$?GetMissionFlags@CHostDialog@@QAEKH@Z 1004e3a3 f   HostDialog.obj
 0001:0004d3b0       $L77881                    1004e3b0 f   Client.obj
 0001:0004d3b8       __ehhandler$?DebugDrawVisibility@CClient@@QAEXXZ 1004e3b8 f   Client.obj
 0001:0004d3c2       $L77897                    1004e3c2 f   Client.obj
 0001:0004d3ca       __ehhandler$?DebugDrawNetStats@CClient@@QAEXXZ 1004e3ca f   Client.obj
 0001:0004d3d4       $L77912                    1004e3d4 f   Client.obj
 0001:0004d3dc       __ehhandler$?DebugDrawMiscStats@CClient@@QAEXXZ 1004e3dc f   Client.obj
 0001:0004d3f0       $L81050                    1004e3f0 f   ClientPacketHandler.obj
 0001:0004d3f8       __ehhandler$?HandleMissionStart@PacketHandler@@IAEXXZ 1004e3f8 f   ClientPacketHandler.obj
 0001:0004d402       $L81079                    1004e402 f   ClientPacketHandler.obj
 0001:0004d40a       __ehhandler$?HandleCrcRequest@PacketHandler@@IAEXXZ 1004e40a f   ClientPacketHandler.obj
 0001:0004d414       $L81092                    1004e414 f   ClientPacketHandler.obj
 0001:0004d41c       __ehhandler$?HandleCrcResponse@PacketHandler@@IAEXXZ 1004e41c f   ClientPacketHandler.obj
 0001:0004d426       __ehhandler$?HandleSpeech@PacketHandler@@IAEXXZ 1004e426 f   ClientPacketHandler.obj
 0001:0004d430       __ehhandler$?HandleGenericReaction@PacketHandler@@IAEXXZ 1004e430 f   ClientPacketHandler.obj
 0001:0004d43a       $L81153                    1004e43a f   ClientPacketHandler.obj
 0001:0004d442       __ehhandler$?HandleTransferAI@PacketHandler@@IAEXXZ 1004e442 f   ClientPacketHandler.obj
 0001:0004d44c       __ehhandler$?HandleScriptMsg@PacketHandler@@IAEXXZ 1004e44c f   ClientPacketHandler.obj
 0001:0004d456       $L81201                    1004e456 f   ClientPacketHandler.obj
 0001:0004d464       __ehhandler$?HandleCreatePlayer@PacketHandler@@IAEXXZ 1004e464 f   ClientPacketHandler.obj
 0001:0004d470       $L81280                    1004e470 f   ClientPacketHandler.obj
 0001:0004d47b       $L81281                    1004e47b f   ClientPacketHandler.obj
 0001:0004d486       __ehhandler$??1sScrMsg@@QAE@XZ 1004e486 f   ClientPacketHandler.obj
 0001:0004d490       $L76139                    1004e490 f   ClientSynch.obj
 0001:0004d498       __ehhandler$?OnLoopMsg@HookLoading@@YIXPAVcLoading@@HHPAUtLoopMessageData__@@@Z 1004e498 f   ClientSynch.obj
 0001:0004d4b0       $L79747                    1004e4b0 f   Console.obj
 0001:0004d4c2       $L79749                    1004e4c2 f   Console.obj
 0001:0004d4d7       $L79751                    1004e4d7 f   Console.obj
 0001:0004d4ec       $L79753                    1004e4ec f   Console.obj
 0001:0004d501       $L79755                    1004e501 f   Console.obj
 0001:0004d516       $L79757                    1004e516 f   Console.obj
 0001:0004d52b       $L79759                    1004e52b f   Console.obj
 0001:0004d540       __ehhandler$?CmdTeleport@@YAXPAD@Z 1004e540 f   Console.obj
 0001:0004d54a       $L79792                    1004e54a f   Console.obj
 0001:0004d552       __ehhandler$?CmdQuestGet@@YAXPBD@Z 1004e552 f   Console.obj
 0001:0004d560       $L71507                    1004e560 f   DarkStat.obj
 0001:0004d568       __ehhandler$?DarkStatIntSet@@YAXPADH@Z 1004e568 f   DarkStat.obj
 0001:0004d572       $L71522                    1004e572 f   DarkStat.obj
 0001:0004d57a       __ehhandler$?DarkStatIntAdd@@YAXPADH@Z 1004e57a f   DarkStat.obj
 0001:0004d590       $L75660                    1004e590 f   DarkUIUtils.obj
 0001:0004d598       __ehhandler$?DarkUIUtilsInit@@YAXXZ 1004e598 f   DarkUIUtils.obj
 0001:0004d5b0       $L81679                    1004e5b0 f   DP4Wrapper.obj
 0001:0004d5bb       __ehhandler$?Open@CDPWrapper@@UAGJPAUDPSESSIONDESC2@@K@Z 1004e5bb f   DP4Wrapper.obj
 0001:0004d5c5       $L81728                    1004e5c5 f   DP4Wrapper.obj
 0001:0004d5d0       __ehhandler$?FakeCoCreateInstance@@YGJABU_GUID@@PAUIUnknown@@K0PAPAX@Z 1004e5d0 f   DP4Wrapper.obj
 0001:0004d5e0       __ehhandler$?CollisionResolverHook@@YGXPBUtSpringInfo@@K@Z 1004e5e0 f   ErrorHanding.obj
 0001:0004d5ea       __ehhandler$?LoopSampleCallbackHook@@YAXKH@Z 1004e5ea f   ErrorHanding.obj
 0001:0004d5f4       __ehhandler$?PropSndEnterCBHook@@YIHPAVcPropSndInstHigh@@HPBVcRoom@@PBVcRoomPortal@@ABUmxs_vector@@M@Z 1004e5f4 f   ErrorHanding.obj
 0001:0004d5fe       __ehhandler$?SpeechEndCallbackHook@@YAXHHH@Z 1004e5fe f   ErrorHanding.obj
 0001:0004d610       $L77714                    1004e610 f   Gamesys.obj
 0001:0004d61b       __ehhandler$?CreateProjectilePickups@CGamesysManager@@QAEXXZ 1004e61b f   Gamesys.obj
 0001:0004d630       $L77812                    1004e630 f   Gamesys.obj
 0001:0004d63b       $L77813                    1004e63b f   Gamesys.obj
 0001:0004d646       __ehhandler$?Push@?$SimpleQueue@H@@QAEXPAH@Z 1004e646 f   Gamesys.obj
 0001:0004d650       $L77910                    1004e650 f   Gamesys.obj
 0001:0004d662       __ehhandler$?_Insert@?$_Tree@V?$_Tmap_traits@HHU?$less@H@std@@V?$allocator@U?$pair@$$CBHH@std@@@2@$0A@@std@@@std@@IAE?AViterator@12@_NPAU_Node@?$_Tree_nod@V?$_Tmap_traits@HHU?$less@H@std@@V?$allocator@U?$pair@$$CBHH@std@@@2@$0A@@std@@@2@ABU?$pair@$$CBHH@2@@Z 1004e662 f   Gamesys.obj
 0001:0004d670       $L77998                    1004e670 f   Gamesys.obj
 0001:0004d681       __ehhandler$?_Buynode@?$_Tree@V?$_Tmap_traits@HHU?$less@H@std@@V?$allocator@U?$pair@$$CBHH@std@@@2@$0A@@std@@@std@@IAEPAU_Node@?$_Tree_nod@V?$_Tmap_traits@HHU?$less@H@std@@V?$allocator@U?$pair@$$CBHH@std@@@2@$0A@@std@@@2@PAU342@00ABU?$pair@$$CBHH@2@D@Z 1004e681 f   Gamesys.obj
 0001:0004d690       __ehhandler$?_Buynode@?$_Tree@V?$_Tmap_traits@HHU?$less@H@std@@V?$allocator@U?$pair@$$CBHH@std@@@2@$0A@@std@@@std@@IAEPAU_Node@?$_Tree_nod@V?$_Tmap_traits@HHU?$less@H@std@@V?$allocator@U?$pair@$$CBHH@std@@@2@$0A@@std@@@2@XZ 1004e690 f   Gamesys.obj
 0001:0004d6a0       $L78127                    1004e6a0 f   Gamesys.obj
 0001:0004d6b2       __ehhandler$?erase@?$_Tree@V?$_Tmap_traits@HHU?$less@H@std@@V?$allocator@U?$pair@$$CBHH@std@@@2@$0A@@std@@@std@@QAE?AViterator@12@V312@@Z 1004e6b2 f   Gamesys.obj
 0001:0004d6c0       $L75770                    1004e6c0 f   LG.obj
 0001:0004d6c8       __ehhandler$?CursorPalette@cDarkPanel@@UAEPAUIDarkDataSource@@XZ 1004e6c8 f   LG.obj
 0001:0004d6e0       $L77417                    1004e6e0 f   MessageManager.obj
 0001:0004d6eb       __ehhandler$??0MessageMgr@@QAE@XZ 1004e6eb f   MessageManager.obj
 0001:0004d6f5       $L77434                    1004e6f5 f   MessageManager.obj
 0001:0004d700       $L77435                    1004e700 f   MessageManager.obj
 0001:0004d70b       __ehhandler$??1MessageMgr@@UAE@XZ 1004e70b f   MessageManager.obj
 0001:0004d715       $L77445                    1004e715 f   MessageManager.obj
 0001:0004d720       __ehhandler$?Get@MessageMgr@@SAPAV1@XZ 1004e720 f   MessageManager.obj
 0001:0004d72a       $L77460                    1004e72a f   MessageManager.obj
 0001:0004d735       __ehhandler$?AddLine@MessageMgr@@QAEX_NPBD@Z 1004e735 f   MessageManager.obj
 0001:0004d73f       $L77525                    1004e73f f   MessageManager.obj
 0001:0004d74a       __ehhandler$?Update@MessageMgr@@QAEXXZ 1004e74a f   MessageManager.obj
 0001:0004d760       __ehhandler$?_Buynode@?$list@PAVMessage@@V?$allocator@PAVMessage@@@std@@@std@@IAEPAU_Node@?$_List_nod@PAVMessage@@V?$allocator@PAVMessage@@@std@@@2@XZ 1004e760 f   MessageManager.obj
 0001:0004d770       $L77630                    1004e770 f   MessageManager.obj
 0001:0004d781       __ehhandler$?_Buynode@?$list@PAVMessage@@V?$allocator@PAVMessage@@@std@@@std@@IAEPAU_Node@?$_List_nod@PAVMessage@@V?$allocator@PAVMessage@@@std@@@2@PAU342@0ABQAVMessage@@@Z 1004e781 f   MessageManager.obj
 0001:0004d790       $L77647                    1004e790 f   MessageManager.obj
 0001:0004d7a2       __ehhandler$?_Incsize@?$list@PAVMessage@@V?$allocator@PAVMessage@@@std@@@std@@IAEXI@Z 1004e7a2 f   MessageManager.obj
 0001:0004d7b0       $L76648                    1004e7b0 f   MultiUI.obj
 0001:0004d7bb       __ehhandler$?SwitchToMultiplayUIMode@@YAXH@Z 1004e7bb f   MultiUI.obj
 0001:0004d7d0       $L76745                    1004e7d0 f   Player.obj
 0001:0004d7d8       __ehhandler$?ForceActivateLoadoutCache@@YAXH@Z 1004e7d8 f   Player.obj
 0001:0004d7f0       $L76306                    1004e7f0 f   SaveManager.obj
 0001:0004d7fb       __ehhandler$?SaveManagerInit@@YAXXZ 1004e7fb f   SaveManager.obj
 0001:0004d810       $L66490                    1004e810 f   stdafx.obj
 0001:0004d822       $L66491                    1004e822 f   stdafx.obj
 0001:0004d845       __ehhandler$??$?HDU?$char_traits@D@std@@V?$allocator@D@1@@std@@YA?AV?$basic_string@DU?$char_traits@D@std@@V?$allocator@D@2@@0@ABV10@0@Z 1004e845 f   stdafx.obj
 0001:0004d850       $L66510                    1004e850 f   stdafx.obj
 0001:0004d862       $L66511                    1004e862 f   stdafx.obj
 0001:0004d885       __ehhandler$??$?HDU?$char_traits@D@std@@V?$allocator@D@1@@std@@YA?AV?$basic_string@DU?$char_traits@D@std@@V?$allocator@D@2@@0@PBDABV10@@Z 1004e885 f   stdafx.obj
 0001:0004d890       $L66523                    1004e890 f   stdafx.obj
 0001:0004d8a2       $L66524                    1004e8a2 f   stdafx.obj
 0001:0004d8c5       __ehhandler$??$?HDU?$char_traits@D@std@@V?$allocator@D@1@@std@@YA?AV?$basic_string@DU?$char_traits@D@std@@V?$allocator@D@2@@0@DABV10@@Z 1004e8c5 f   stdafx.obj
 0001:0004d8d0       $L66536                    1004e8d0 f   stdafx.obj
 0001:0004d8e2       $L66537                    1004e8e2 f   stdafx.obj
 0001:0004d905       __ehhandler$??$?HDU?$char_traits@D@std@@V?$allocator@D@1@@std@@YA?AV?$basic_string@DU?$char_traits@D@std@@V?$allocator@D@2@@0@ABV10@PBD@Z 1004e905 f   stdafx.obj
 0001:0004d910       $L66549                    1004e910 f   stdafx.obj
 0001:0004d922       $L66550                    1004e922 f   stdafx.obj
 0001:0004d945       __ehhandler$??$?HDU?$char_traits@D@std@@V?$allocator@D@1@@std@@YA?AV?$basic_string@DU?$char_traits@D@std@@V?$allocator@D@2@@0@ABV10@D@Z 1004e945 f   stdafx.obj
 0001:0004d950       $L66562                    1004e950 f   stdafx.obj
 0001:0004d962       $L66563                    1004e962 f   stdafx.obj
 0001:0004d985       __ehhandler$??$?HGU?$char_traits@G@std@@V?$allocator@G@1@@std@@YA?AV?$basic_string@GU?$char_traits@G@std@@V?$allocator@G@2@@0@ABV10@0@Z 1004e985 f   stdafx.obj
 0001:0004d990       $L66575                    1004e990 f   stdafx.obj
 0001:0004d9a2       $L66576                    1004e9a2 f   stdafx.obj
 0001:0004d9c5       __ehhandler$??$?HGU?$char_traits@G@std@@V?$allocator@G@1@@std@@YA?AV?$basic_string@GU?$char_traits@G@std@@V?$allocator@G@2@@0@PBGABV10@@Z 1004e9c5 f   stdafx.obj
 0001:0004d9d0       $L66588                    1004e9d0 f   stdafx.obj
 0001:0004d9e2       $L66589                    1004e9e2 f   stdafx.obj
 0001:0004da05       __ehhandler$??$?HGU?$char_traits@G@std@@V?$allocator@G@1@@std@@YA?AV?$basic_string@GU?$char_traits@G@std@@V?$allocator@G@2@@0@GABV10@@Z 1004ea05 f   stdafx.obj
 0001:0004da10       $L66601                    1004ea10 f   stdafx.obj
 0001:0004da22       $L66602                    1004ea22 f   stdafx.obj
 0001:0004da45       __ehhandler$??$?HGU?$char_traits@G@std@@V?$allocator@G@1@@std@@YA?AV?$basic_string@GU?$char_traits@G@std@@V?$allocator@G@2@@0@ABV10@PBG@Z 1004ea45 f   stdafx.obj
 0001:0004da50       $L66614                    1004ea50 f   stdafx.obj
 0001:0004da62       $L66615                    1004ea62 f   stdafx.obj
 0001:0004da85       __ehhandler$??$?HGU?$char_traits@G@std@@V?$allocator@G@1@@std@@YA?AV?$basic_string@GU?$char_traits@G@std@@V?$allocator@G@2@@0@ABV10@G@Z 1004ea85 f   stdafx.obj
 0001:0004da90       $L66633                    1004ea90 f   stdafx.obj
 0001:0004da98       $L66634                    1004ea98 f   stdafx.obj
 0001:0004daaa       __ehhandler$??$?5DU?$char_traits@D@std@@V?$allocator@D@1@@std@@YAAAV?$basic_istream@DU?$char_traits@D@std@@@0@AAV10@AAV?$basic_string@DU?$char_traits@D@std@@V?$allocator@D@2@@0@@Z 1004eaaa f   stdafx.obj
 0001:0004dac0       $L66653                    1004eac0 f   stdafx.obj
 0001:0004dac8       __ehhandler$??0sentry@?$basic_istream@DU?$char_traits@D@std@@@std@@QAE@AAV12@_N@Z 1004eac8 f   stdafx.obj
 0001:0004dae0       $L66671                    1004eae0 f   stdafx.obj
 0001:0004daf2       __ehhandler$??$use_facet@V?$ctype@D@std@@@std@@YAABV?$ctype@D@0@ABVlocale@0@@Z 1004eaf2 f   stdafx.obj
 0001:0004db00       $L66691                    1004eb00 f   stdafx.obj
 0001:0004db08       __ehhandler$??$getline@DU?$char_traits@D@std@@V?$allocator@D@2@@std@@YAAAV?$basic_istream@DU?$char_traits@D@std@@@0@AAV10@AAV?$basic_string@DU?$char_traits@D@std@@V?$allocator@D@2@@0@D@Z 1004eb08 f   stdafx.obj
 0001:0004db20       $L66718                    1004eb20 f   stdafx.obj
 0001:0004db28       __ehhandler$??$?6DU?$char_traits@D@std@@V?$allocator@D@1@@std@@YAAAV?$basic_ostream@DU?$char_traits@D@std@@@0@AAV10@ABV?$basic_string@DU?$char_traits@D@std@@V?$allocator@D@2@@0@@Z 1004eb28 f   stdafx.obj
 0001:0004db40       $L66732                    1004eb40 f   stdafx.obj
 0001:0004db48       __ehhandler$??0sentry@?$basic_ostream@DU?$char_traits@D@std@@@std@@QAE@AAV12@@Z 1004eb48 f   stdafx.obj
 0001:0004db60       $L66741                    1004eb60 f   stdafx.obj
 0001:0004db68       __ehhandler$??1sentry@?$basic_ostream@DU?$char_traits@D@std@@@std@@QAE@XZ 1004eb68 f   stdafx.obj
 0001:0004db80       $L66763                    1004eb80 f   stdafx.obj
 0001:0004db88       $L66764                    1004eb88 f   stdafx.obj
 0001:0004db9a       __ehhandler$??$?5GU?$char_traits@G@std@@V?$allocator@G@1@@std@@YAAAV?$basic_istream@GU?$char_traits@G@std@@@0@AAV10@AAV?$basic_string@GU?$char_traits@G@std@@V?$allocator@G@2@@0@@Z 1004eb9a f   stdafx.obj
 0001:0004dbb0       $L66782                    1004ebb0 f   stdafx.obj
 0001:0004dbb8       __ehhandler$??0sentry@?$basic_istream@GU?$char_traits@G@std@@@std@@QAE@AAV12@_N@Z 1004ebb8 f   stdafx.obj
 0001:0004dbd0       $L66799                    1004ebd0 f   stdafx.obj
 0001:0004dbe2       __ehhandler$??$use_facet@V?$ctype@G@std@@@std@@YAABV?$ctype@G@0@ABVlocale@0@@Z 1004ebe2 f   stdafx.obj
 0001:0004dbf0       $L66819                    1004ebf0 f   stdafx.obj
 0001:0004dbf8       __ehhandler$??$getline@GU?$char_traits@G@std@@V?$allocator@G@2@@std@@YAAAV?$basic_istream@GU?$char_traits@G@std@@@0@AAV10@AAV?$basic_string@GU?$char_traits@G@std@@V?$allocator@G@2@@0@G@Z 1004ebf8 f   stdafx.obj
 0001:0004dc10       $L66846                    1004ec10 f   stdafx.obj
 0001:0004dc18       __ehhandler$??$?6GU?$char_traits@G@std@@V?$allocator@G@1@@std@@YAAAV?$basic_ostream@GU?$char_traits@G@std@@@0@AAV10@ABV?$basic_string@GU?$char_traits@G@std@@V?$allocator@G@2@@0@@Z 1004ec18 f   stdafx.obj
 0001:0004dc30       $L66860                    1004ec30 f   stdafx.obj
 0001:0004dc38       __ehhandler$??0sentry@?$basic_ostream@GU?$char_traits@G@std@@@std@@QAE@AAV12@@Z 1004ec38 f   stdafx.obj
 0001:0004dc50       $L66869                    1004ec50 f   stdafx.obj
 0001:0004dc58       __ehhandler$??1sentry@?$basic_ostream@GU?$char_traits@G@std@@@std@@QAE@XZ 1004ec58 f   stdafx.obj
 0001:0004dc70       $L75574                    1004ec70 f   StructDesc.obj
 0001:0004dc78       __ehhandler$?StructDumpOnlyNames@@YAXPBUsStructDesc@@@Z 1004ec78 f   StructDesc.obj
 0001:0004dc82       $L75590                    1004ec82 f   StructDesc.obj
 0001:0004dc8a       __ehhandler$?StructDump@@YAXPBUsStructDesc@@PBX@Z 1004ec8a f   StructDesc.obj
 0001:0004dca0       $L75882                    1004eca0 f   Tools.obj
 0001:0004dca8       __ehhandler$?GetMissionName@@YA?AVcAnsiStr@@H@Z 1004eca8 f   Tools.obj
 0001:0004dcb2       $L75895                    1004ecb2 f   Tools.obj
 0001:0004dcba       $L75896                    1004ecba f   Tools.obj
 0001:0004dcd3       __ehhandler$?TimeString@@YA?AVNString@@H@Z 1004ecd3 f   Tools.obj
 0001:0004dce0       $L77997                    1004ece0 f   ServerBrowser.obj
 0001:0004dceb       $L77998                    1004eceb f   ServerBrowser.obj
 0001:0004dcf6       __ehhandler$??0CServerBrowser@@QAE@XZ 1004ecf6 f   ServerBrowser.obj
 0001:0004dd00       $L78047                    1004ed00 f   ServerBrowser.obj
 0001:0004dd0b       $L78048                    1004ed0b f   ServerBrowser.obj
 0001:0004dd16       __ehhandler$??1CServerBrowser@@UAE@XZ 1004ed16 f   ServerBrowser.obj
 0001:0004dd20       $L78068                    1004ed20 f   ServerBrowser.obj
 0001:0004dd2b       __ehhandler$?HandlePingResponse@CServerBrowser@@UAEXPAX@Z 1004ed2b f   ServerBrowser.obj
 0001:0004dd35       $L78096                    1004ed35 f   ServerBrowser.obj
 0001:0004dd3d       __ehhandler$?UpdateServerCount@CServerBrowser@@QAEXXZ 1004ed3d f   ServerBrowser.obj
 0001:0004dd50       __ehhandler$?_Buynode@?$list@PAVCServerListEntry@@V?$allocator@PAVCServerListEntry@@@std@@@std@@IAEPAU_Node@?$_List_nod@PAVCServerListEntry@@V?$allocator@PAVCServerListEntry@@@std@@@2@XZ 1004ed50 f   ServerBrowser.obj
 0001:0004dd60       $L76949                    1004ed60 f   ServerList.obj
 0001:0004dd6b       __ehhandler$?AddServer@CServerList@@QAEPAVCServerListEntry@@PBD00GGEE@Z 1004ed6b f   ServerList.obj
 0001:0004dd80       $L77076                    1004ed80 f   ServerList.obj
 0001:0004dd91       __ehhandler$?_Buynode@?$list@PAVCServerListEntry@@V?$allocator@PAVCServerListEntry@@@std@@@std@@IAEPAU_Node@?$_List_nod@PAVCServerListEntry@@V?$allocator@PAVCServerListEntry@@@std@@@2@PAU342@0ABQAVCServerListEntry@@@Z 1004ed91 f   ServerList.obj
 0001:0004dda0       $L77093                    1004eda0 f   ServerList.obj
 0001:0004ddb2       __ehhandler$?_Incsize@?$list@PAVCServerListEntry@@V?$allocator@PAVCServerListEntry@@@std@@@std@@IAEXI@Z 1004edb2 f   ServerList.obj
 0001:0004ddc0       $L76959                    1004edc0 f   ScriptHooks.obj
 0001:0004ddcb       __ehhandler$?WorldFrobbableReceiveMessage@@YGXPAUIRootScript@@PAUsScrMsg@@PAVcMultiParm@@W4eScrTraceAction@@@Z 1004edcb f   ScriptHooks.obj
 0001:0004ddd5       $L76984                    1004edd5 f   ScriptHooks.obj
 0001:0004dddd       __ehhandler$?HookStdElevatorReceiveMessage@@YGXPAVStdElevatorScript@@PAUsScrMsg@@PAVcMultiParm@@W4eScrTraceAction@@@Z 1004eddd f   ScriptHooks.obj
 0001:0004dde7       $L77050                    1004ede7 f   ScriptHooks.obj
 0001:0004ddef       __ehhandler$?HookCollisionStickReceiveMessage@@YGXPAVCollisionStickScript@@PAUsScrMsg@@PAVcMultiParm@@W4eScrTraceAction@@@Z 1004edef f   ScriptHooks.obj
 0001:0004de00       $L66172                    1004ee00 f   StringHashTable.obj
 0001:0004de0b       __ehhandler$?StringHashInit@@YAXXZ 1004ee0b f   StringHashTable.obj
