 ThiefMP

 Timestamp is 4d101ccb (Mon Dec 20 22:19:39 2010)

 Preferred load address is 10000000

 Start         Length     Name                   Class
 0001:00000000 0001e6aaH .text                   CODE
 0001:0001e6b0 00000936H .text$x                 CODE
 0001:0001eff0 00000173H .text$yc                CODE
 0001:0001f170 000000ccH .text$yd                CODE
 0002:00000000 00000298H .idata$5                DATA
 0002:00000298 00000004H .CRT$XCA                DATA
 0002:0000029c 00000024H .CRT$XCU                DATA
 0002:000002c0 00000004H .CRT$XCZ                DATA
 0002:000002c4 00000004H .CRT$XIA                DATA
 0002:000002c8 00000004H .CRT$XIAA               DATA
 0002:000002cc 00000004H .CRT$XIC                DATA
 0002:000002d0 00000004H .CRT$XIZ                DATA
 0002:000002e0 000055e8H .rdata                  DATA
 0002:000058c8 0000002fH .rdata$debug            DATA
 0002:000058f8 00000fc8H .rdata$r                DATA
 0002:000068c0 00000004H .rtc$IAA                DATA
 0002:000068c4 00000004H .rtc$IZZ                DATA
 0002:000068c8 00000004H .rtc$TAA                DATA
 0002:000068cc 00000004H .rtc$TZZ                DATA
 0002:000068d0 0000120cH .xdata$x                DATA
 0002:00007adc 00000078H .idata$2                DATA
 0002:00007b54 00000014H .idata$3                DATA
 0002:00007b68 00000298H .idata$4                DATA
 0002:00007e00 00000e70H .idata$6                DATA
 0002:00008c70 00000000H .edata                  DATA
 0003:00000000 00002cf0H .data                   DATA
 0003:00002cf0 000025f0H .bss                    DATA
 0004:00000000 00000250H .rsrc$01                DATA
 0004:00000250 00001628H .rsrc$02                DATA

  Address         Publics by Value              Rva+Base       Lib:Object

 0000:00000000       ___safe_se_handler_table   00000000     <absolute>
 0000:00000000       __except_list              00000000     <absolute>
 0000:00000000       ___safe_se_handler_count   00000000     <absolute>
 0000:00009876       __fltused                  00009876     <absolute>
 0000:00009876       __ldused                   00009876     <absolute>
 0000:00000000       ___ImageBase               10000000     <linker-defined>
 0001:00000000       _cDynArray_ctor            10001000 f   sshock2.obj
 0001:00000010       _cTag_ctor                 10001010 f   sshock2.obj
 0001:00000023       _cDABase_dtor1             10001023 f   sshock2.obj
 0001:00000037       _DarkPlayerActionToSchemaIdx 10001037 f   sshock2.obj
 0001:0000020f       _ShockPlayerActionToSchemaIdx 1000120f f   sshock2.obj
 0001:000003fe       _ShockSetMode              100013fe f   sshock2.obj
 0001:0000062f       _cPhysModels_Get           1000162f f   sshock2.obj
 0001:000006e0       _PlayerAction_GetTagName   100016e0 f   sshock2.obj
 0001:00000700       _PlayerAction_GetAnimName  10001700 f   sshock2.obj
 0001:00000750       ?CreateAI@HookAIManager@@YGHPAUIAIManager@@HPBD@Z 10001750 f   AIManager.obj
 0001:00000760       ?TransferAI@HookAIManager@@YGHPAUIAIManager@@HH@Z 10001760 f   AIManager.obj
 0001:000007a0       ?StartConversation@HookAIManager@@YGHPAUIAIManager@@H@Z 100017a0 f   AIManager.obj
 0001:00000830       ?MakeProxyAI@HookAINetManager@@YGJPAUIAINetManager@@HH@Z 10001830 f   AIManager.obj
 0001:00000a00       ?OnUseWeapon@@YAXH@Z       10001a00 f   Commands.obj
 0001:00000aa0       ?OnSimMenu@@YAXXZ          10001aa0 f   Commands.obj
 0001:00000ad0       ?OnObjectives@@YAXXZ       10001ad0 f   Commands.obj
 0001:00000b10       ?OnAutomap@@YAXXZ          10001b10 f   Commands.obj
 0001:00000b50       ?OverlayFilter@@YA_NXZ     10001b50 f   Commands.obj
 0001:00000b60       ?PatchCommands@@YAX_N@Z    10001b60 f   Commands.obj
 0001:00000c30       ?OnDropItem@@YAXXZ         10001c30 f   Commands.obj
 0001:00000cf0       ?OnWinMission@@YAXXZ       10001cf0 f   Commands.obj
 0001:00000d80       ?HookDarkCombatDamageListener@@YGKPBUsDamageMsg@@PAX@Z 10001d80 f   Damage.obj
 0001:00000d90       ?DamageObject@HookSimpleDamageModel@@YGJKHHPAUsDamage@@PAUsChainedEvent@@H@Z 10001d90 f   Damage.obj
 0001:00000e30       ?DarkDamageListener@@YGKPBUsDamageMsg@@PAX@Z 10001e30 f   Damage.obj
 0001:00000f20       ?EndMission@HookDarkGameSrv@@YGJK@Z 10001f20 f   DarkGameSrv.obj
 0001:00000f60       ?FadeToBlack@HookDarkGameSrv@@YGJKM@Z 10001f60 f   DarkGameSrv.obj
 0001:00000fa0       ?SlotFileName@HookDarkFilePanel@@YGPBDH@Z 10001fa0 f   FilePanel.obj
 0001:00001010       ?DoFileOp@HookSaveFilePanel@@YIXPAKHH@Z 10002010 f   FilePanel.obj
 0001:00001060       ?ReceiveFullHeartbeat@HookGhostReceive@@YAXHHHPAUsGhostHeartbeat@@PAUsGhostMoCap@@@Z 10002060 f   GhostReceive.obj
 0001:00001080       ?CreatePlan@HookGroundActionManeuverFactory@@YGPAVcMotionPlan@@PBVcMotionSchema@@AAUsMcMotorState@@AAUsMcMoveState@@AAUsMcMoveParams@@PAVIMotor@@PAVcMotionCoordinator@@@Z 10002080 f   Motions.obj
 0001:00001120       ?CreatePlan@HookPlayerManeuverFactory@@YGPAVcMotionPlan@@PBVcMotionSchema@@AAUsMcMotorState@@AAUsMcMoveState@@AAUsMcMoveParams@@PAVIMotor@@PAVcMotionCoordinator@@@Z 10002120 f   Motions.obj
 0001:00001160       ?CreatePlan@HookGroundLocoManeuverFactory@@YGPAVcMotionPlan@@PBVcMotionSchema@@AAUsMcMotorState@@AAUsMcMoveState@@AAUsMcMoveParams@@PAVIMotor@@PAVcMotionCoordinator@@@Z 10002160 f   Motions.obj
 0001:000011a0       ?Join@HookNet@@YGHPAUINet@@PBD11@Z 100021a0 f   Net.obj
 0001:00001290       ?SimpleCreatePlayer@HookNet@@YGJPAUINet@@PAD@Z 10002290 f   Net.obj
 0001:000012c0       ?Host@HookNet@@YGHPAUINet@@PAD1@Z 100022c0 f   Net.obj
 0001:00001350       ?GhostInstallFireListener@@YAXH@Z 10002350 f   Ghost.obj
 0001:00001350       ?SendCreatePlayerNetMsg@HookNetManager@@YGXXZ 10002350 f   NetManager.obj
 0001:00001350       ?PatcherTerm@@YAXXZ        10002350 f   Patcher.obj
 0001:00001350       ?HookHandleHaltSound@@YAXHH@Z 10002350 f   Packets.obj
 0001:00001360       ?Leave@HookNetManager@@YGXPAUINetManager@@@Z 10002360 f   NetManager.obj
 0001:00001390       ?EnumPlayersCallback@HookNetManager@@YGHKKPBUDPNAME@@KPAX@Z 10002390 f   NetManager.obj
 0001:000013f0       ?InitExistingPlayer@HookNetManager@@YGHKKPBUDPNAME@@KPAX@Z 100023f0 f   NetManager.obj
 0001:00001440       ?_DestroyNetPlayerCallback@HookNetManager@@YGHKKPBUDPNAME@@KPAX@Z 10002440 f   NetManager.obj
 0001:00001490       ?GetPlayerAddress@HookNetManager@@YGPBDKH@Z 10002490 f   NetManager.obj
 0001:000014a0       ?SuspendMessaging@HookNetManager@@YGXPAUINetManager@@@Z 100024a0 f   NetManager.obj
 0001:000014b0       ?ResumeMessaging@HookNetManager@@YGXPAUINetManager@@@Z 100024b0 f   NetManager.obj
 0001:000014c0       ?MyAvatarArchetype@HookDarkNetServices@@YGHK@Z 100024c0 f   NetManager.obj
 0001:00001540       ?NetDisconnectListener@@YAXKKPAX@Z 10002540 f   NetManager.obj
 0001:000015f0       ?NetDisconnectListenerInit@@YAXXZ 100025f0 f   NetManager.obj
 0001:00001620       ?HandleMsg@HookNetMsg@@YIXPAVcNetMsg@@HPBUsNetMsg_Generic@@KH@Z 10002620 f   NetMsg.obj
 0001:00001660       ?MarshalArguments@HookNetMsg@@YIHPAVcNetMsg@@HPADPAHPAI@Z 10002660 f   NetMsg.obj
 0001:000016a0       ?ClearTables@HookObjectNetworking@@YGXPAUIObjectNetworking@@@Z 100026a0 f   Objects.obj
 0001:000016b0       ?ObjRegisterProxy@HookObjectNetworking@@YGXPAUIObjectNetworking@@HFH@Z 100026b0 f   Objects.obj
 0001:000016c0       ?ObjGetProxy@HookObjectNetworking@@YGHPAUIObjectNetworking@@HF@Z 100026c0 f   Objects.obj
 0001:000016d0       ?ObjDeleteProxy@HookObjectNetworking@@YGXPAUIObjectNetworking@@H@Z 100026d0 f   Objects.obj
 0001:000016e0       ?ObjIsProxy@HookObjectNetworking@@YGHPAUIObjectNetworking@@H@Z 100026e0 f   Objects.obj
 0001:000016f0       ?ObjHostInfo@HookObjectNetworking@@YGXPAUIObjectNetworking@@HPAHPAF@Z 100026f0 f   Objects.obj
 0001:00001700       ?ObjTakeOver@HookObjectNetworking@@YGXPAUIObjectNetworking@@H@Z 10002700 f   Objects.obj
 0001:00001740       ?ObjGiveTo@HookObjectNetworking@@YGXPAUIObjectNetworking@@HHH@Z 10002740 f   Objects.obj
 0001:00001780       ?ObjGiveWithoutObjID@HookObjectNetworking@@YGXPAUIObjectNetworking@@HH@Z 10002780 f   Objects.obj
 0001:000017d0       ?StartBeginCreate@HookObjectNetworking@@YGXPAUIObjectNetworking@@HH@Z 100027d0 f   Objects.obj
 0001:000017e0       ?FinishBeginCreate@HookObjectNetworking@@YGXPAUIObjectNetworking@@H@Z 100027e0 f   Objects.obj
 0001:00001820       ?StartEndCreate@HookObjectNetworking@@YGXPAUIObjectNetworking@@H@Z 10002820 f   Objects.obj
 0001:00001830       ?FinishEndCreate@HookObjectNetworking@@YGXPAUIObjectNetworking@@H@Z 10002830 f   Objects.obj
 0001:00001840       ?StartDestroy@HookObjectNetworking@@YGXPAUIObjectNetworking@@H@Z 10002840 f   Objects.obj
 0001:00001880       ?NotifyObjRemapped@HookObjectNetworking@@YGXPAUIObjectNetworking@@HH@Z 10002880 f   Objects.obj
 0001:00001890       ?ObjectIsVisible@@YAHH@Z   10002890 f   Objects.obj
 0001:000018c0       ?Add@HookContainSys@@YGJPAUIContainSys@@HHII@Z 100028c0 f   Objects.obj
 0001:000019d0       ?Select@HookInventory@@YGJPAUIInventory@@H@Z 100029d0 f   Objects.obj
 0001:00001a80       ?ClearSelection@HookInventory@@YGJPAUIInventory@@W4eWhichInvObj@@@Z 10002a80 f   Objects.obj
 0001:00001b00       ?HookFrobPickup@@YAXHH@Z   10002b00 f   Packets.obj
 0001:00001b40       ?HookRegSphere@@YAXHHKMPAUmxs_vector@@K@Z 10002b40 f   Packets.obj
 0001:00001b70       ?HookHandleCreateQuestData@@YAXPADHHK@Z 10002b70 f   Packets.obj
 0001:00001bb0       ?HookHandleSetQuestData@@YAXPADHK@Z 10002bb0 f   Packets.obj
 0001:00001bf0       ?HookHandleFinishSynch@@YAXPAUINetManager@@@Z 10002bf0 f   Packets.obj
 0001:00001c00       ?HookHandlePlayerInfo@@YAXHPAD0HPAUINetManager@@@Z 10002c00 f   Packets.obj
 0001:00001c60       ?HookFrobRequest@@YAXHHHHHHH@Z 10002c60 f   Packets.obj
 0001:00001c70       ?HookHandleRequestDestroy@@YAXH@Z 10002c70 f   Packets.obj
 0001:00001cd0       ?HookHandleFireProjectile@@YAXHHKMPAUmxs_vector@@PAUmxs_angvec@@0@Z 10002cd0 f   Packets.obj
 0001:00001d30       ?HookHandleFrobPickup@@YAXHH@Z 10002d30 f   Packets.obj
 0001:00001f40       ?OnReact@HookReactions@@QAGXKPAUsReactionEvent@@PAUsReactionParam@@@Z 10002f40 f   Reactions.obj
 0001:00001fa0       ?OnStartAttack@HookBowSrv@@QAGJXZ 10002fa0 f   ScriptService.obj
 0001:00001fd0       ?OnFinishAttack@HookBowSrv@@QAGJXZ 10002fd0 f   ScriptService.obj
 0001:00001ff0       ?FinishPicking@HookPickLockSrv@@YGHKH@Z 10002ff0 f   ScriptService.obj
 0001:00002000       ?MPrint@HookDebugScrSrv@@YGJPAKAAVcScrStr@@1111111@Z 10003000 f   ScriptService.obj
 0001:00002060       ?StartPicking@HookPickLockSrv@@YGHKHHH@Z 10003060 f   ScriptService.obj
 0001:000020b0       ?SendPropertyMsg@HookStoredProperty@@YGHPAUsNetMsg_Generic@@HHK@Z 100030b0 f   StoredProperty.obj
 0001:00002100       ?ReceivePropertyMsg@HookStoredProperty@@YGXPBUsNetMsg_Generic@@KKH@Z 10003100 f   StoredProperty.obj
 0001:00002140       ??1bad_alloc@std@@UAE@XZ   10003140 f i DarkPeer.obj
 0001:00002150       ??_Ebad_alloc@std@@UAEPAXI@Z 10003150 f i DarkPeer.obj
 0001:00002150       ??_Gbad_alloc@std@@UAEPAXI@Z 10003150 f i DarkPeer.obj
 0001:00002180       ??1CCriticalSection@@QAE@XZ 10003180 f i DarkPeer.obj
 0001:00002190       ??1IDarkNet@@UAE@XZ        10003190 f i DarkPeer.obj
 0001:000021a0       ??_GIDarkNet@@UAEPAXI@Z    100031a0 f i DarkPeer.obj
 0001:000021a0       ??_EIDarkNet@@UAEPAXI@Z    100031a0 f i DarkPeer.obj
 0001:000021c0       ?what@logic_error@std@@UBEPBDXZ 100031c0 f i DarkPeer.obj
 0001:000021d0       ??_Gout_of_range@std@@UAEPAXI@Z 100031d0 f i DarkPeer.obj
 0001:000021d0       ??_Elogic_error@std@@UAEPAXI@Z 100031d0 f i DarkPeer.obj
 0001:000021d0       ??_Glogic_error@std@@UAEPAXI@Z 100031d0 f i DarkPeer.obj
 0001:000021d0       ??_Glength_error@std@@UAEPAXI@Z 100031d0 f i DarkPeer.obj
 0001:000021d0       ??_Elength_error@std@@UAEPAXI@Z 100031d0 f i DarkPeer.obj
 0001:000021d0       ??_Eout_of_range@std@@UAEPAXI@Z 100031d0 f i DarkPeer.obj
 0001:00002200       ??1length_error@std@@UAE@XZ 10003200 f i DarkPeer.obj
 0001:00002200       ??1out_of_range@std@@UAE@XZ 10003200 f i DarkPeer.obj
 0001:00002220       ?CancelEnumeration@CDarkPeer@@UAEXXZ 10003220 f   DarkPeer.obj
 0001:00002240       ?CancelAllEnumerations@CDarkPeer@@UAEXXZ 10003240 f   DarkPeer.obj
 0001:00002260       ?Close@CDarkPeer@@UAEXXZ   10003260 f   DarkPeer.obj
 0001:00002290       ?CrashCleanup@CDarkPeer@@UAEXXZ 10003290 f   DarkPeer.obj
 0001:000022c0       ?ConnectToServer@CDarkPeer@@UAE_NPBD0@Z 100032c0 f   DarkPeer.obj
 0001:00002310       ?DestroyPeer@CDarkPeer@@UAE_NKPBXK@Z 10003310 f   DarkPeer.obj
 0001:00002340       ?GetSendQueues@CDarkPeer@@UAEXXZ 10003340 f   DarkPeer.obj
 0001:00002410       ?GetHostConnectionInfo@CDarkPeer@@UAEJPAU_DPN_CONNECTION_INFO@@@Z 10003410 f   DarkPeer.obj
 0001:00002430       ?GetConnectionInfo@CDarkPeer@@UAEJKPAU_DPN_CONNECTION_INFO@@@Z 10003430 f   DarkPeer.obj
 0001:00002460       ?GetPeer@CDarkPeer@@UAEPAUIDirectPlay8Peer@@XZ 10003460 f   DarkPeer.obj
 0001:00002470       ?InitGlobalLink@CDarkPeer@@IAE_NXZ 10003470 f   DarkPeer.obj
 0001:000025c0       ?GetConnectEventHandle@CDarkPeer@@UAEPAXXZ 100035c0 f   DarkPeer.obj
 0001:000025d0       ?GetPeerInfo@CDarkPeer@@UAEPAU_DPN_PLAYER_INFO@@K@Z 100035d0 f   DarkPeer.obj
 0001:00002660       ?SendToAll@CDarkPeer@@UAEXPAXKKK@Z 10003660 f   DarkPeer.obj
 0001:00002680       ?SendOP@CDarkPeer@@UAEXKPAXKKK@Z 10003680 f   DarkPeer.obj
 0001:00002760       ?Update@CDarkPeer@@UAEXXZ  10003760 f   DarkPeer.obj
 0001:00002780       ?SetPlayerInfo@CDarkPeer@@UAEJXZ 10003780 f   DarkPeer.obj
 0001:00002810       ?Shutdown@CDarkPeer@@UAEXXZ 10003810 f   DarkPeer.obj
 0001:000028d0       ?GetSessionManager@CDarkPeer@@UAEPAVCDarkSessionManager@@XZ 100038d0 f   DarkPeer.obj
 0001:000028e0       ?GetSessionInfo@CDarkPeer@@UBEABUSessionInfo@@XZ 100038e0 f   DarkPeer.obj
 0001:000028f0       ?GetOldPlayerData@CDarkPeer@@UAEAAV?$map@KPAUDP4Data@@U?$less@K@std@@V?$allocator@U?$pair@$$CBKPAUDP4Data@@@std@@@3@@std@@XZ 100038f0 f   DarkPeer.obj
 0001:00002900       ?ReceivedPlayers@CDarkPeer@@UBE_NXZ 10003900 f   DarkPeer.obj
 0001:00002910       ?SetReceivedPlayers@CDarkPeer@@UAEX_N@Z 10003910 f   DarkPeer.obj
 0001:00002920       ?SendHeartbeat@CDarkPeer@@UAEXXZ 10003920 f   DarkPeer.obj
 0001:00002930       ??8const_iterator@?$_Tree@V?$_Tmap_traits@KPAUDP4Data@@U?$less@K@std@@V?$allocator@U?$pair@$$CBKPAUDP4Data@@@std@@@3@$0A@@std@@@std@@QBE_NABV012@@Z 10003930 f i DarkPeer.obj
 0001:00002930       ??8const_iterator@?$_Tree@V?$_Tmap_traits@HHU?$less@H@std@@V?$allocator@U?$pair@$$CBHH@std@@@2@$0A@@std@@@std@@QBE_NABV012@@Z 10003930 f i Gamesys.obj
 0001:00002960       ?_Max@?$_Tree@V?$_Tmap_traits@HHU?$less@H@std@@V?$allocator@U?$pair@$$CBHH@std@@@2@$0A@@std@@@std@@KAPAU_Node@?$_Tree_nod@V?$_Tmap_traits@HHU?$less@H@std@@V?$allocator@U?$pair@$$CBHH@std@@@2@$0A@@std@@@2@PAU342@@Z 10003960 f i Gamesys.obj
 0001:00002960       ?_Max@?$_Tree@V?$_Tmap_traits@KPAUDP4Data@@U?$less@K@std@@V?$allocator@U?$pair@$$CBKPAUDP4Data@@@std@@@3@$0A@@std@@@std@@KAPAU_Node@?$_Tree_nod@V?$_Tmap_traits@KPAUDP4Data@@U?$less@K@std@@V?$allocator@U?$pair@$$CBKPAUDP4Data@@@std@@@3@$0A@@std@@@2@PAU342@@Z 10003960 f i DarkPeer.obj
 0001:00002980       ?_Min@?$_Tree@V?$_Tmap_traits@KPAUDP4Data@@U?$less@K@std@@V?$allocator@U?$pair@$$CBKPAUDP4Data@@@std@@@3@$0A@@std@@@std@@KAPAU_Node@?$_Tree_nod@V?$_Tmap_traits@KPAUDP4Data@@U?$less@K@std@@V?$allocator@U?$pair@$$CBKPAUDP4Data@@@std@@@3@$0A@@std@@@2@PAU342@@Z 10003980 f i DarkPeer.obj
 0001:00002980       ?_Min@?$_Tree@V?$_Tmap_traits@HHU?$less@H@std@@V?$allocator@U?$pair@$$CBHH@std@@@2@$0A@@std@@@std@@KAPAU_Node@?$_Tree_nod@V?$_Tmap_traits@HHU?$less@H@std@@V?$allocator@U?$pair@$$CBHH@std@@@2@$0A@@std@@@2@PAU342@@Z 10003980 f i Gamesys.obj
 0001:000029a0       ??0bad_alloc@std@@QAE@ABV01@@Z 100039a0 f i DarkPeer.obj
 0001:000029c0       ?EnumHosts@CDarkPeer@@UAEXPBD0@Z 100039c0 f   DarkPeer.obj
 0001:00002ad0       ?OnEnumerationResponse@CDarkPeer@@IAEXPAU_DPNMSG_ENUM_HOSTS_RESPONSE@@@Z 10003ad0 f   DarkPeer.obj
 0001:00002cb0       ?GetSendQueueStats@CDarkPeer@@UAE_NAAUQueueStats@@@Z 10003cb0 f   DarkPeer.obj
 0001:00002cd0       ?SendToHost@CDarkPeer@@UAEXPAXKK@Z 10003cd0 f   DarkPeer.obj
 0001:00002d30       ?Send@CDarkPeer@@UAEXKPAXKKK@Z 10003d30 f   DarkPeer.obj
 0001:00002e20       ?SendChat@CDarkPeer@@UAEX_NPBD@Z 10003e20 f   DarkPeer.obj
 0001:00002ee0       ?HandleGameModeEntry@CDarkPeer@@IAEXXZ 10003ee0 f   DarkPeer.obj
 0001:00002fa0       ?EventHandler@CDarkPeer@@UAEXHPAX@Z 10003fa0 f   DarkPeer.obj
 0001:00002fd0       ?PopQueuedMessage@CDarkPeer@@UAEPAUNetMessage@@XZ 10003fd0 f   DarkPeer.obj
 0001:00003010       ?Start@ConnectAttempt@@QAEXIPBDPBG@Z 10004010 f   DarkPeer.obj
 0001:00003070       ?GetPlayers@@YAXQAH@Z      10004070 f   DarkPeer.obj
 0001:000030e0       ?Push@?$SimpleQueue@D@@QAEXPAD@Z 100040e0 f i ConsoleGUI.obj
 0001:000030e0       ?Push@?$SimpleQueue@H@@QAEXPAH@Z 100040e0 f i Gamesys.obj
 0001:000030e0       ?Push@?$SimpleQueue@UNetMessage@@@@QAEXPAUNetMessage@@@Z 100040e0 f i DarkPeer.obj
 0001:00003160       ?_Dec@const_iterator@?$_Tree@V?$_Tmap_traits@HHU?$less@H@std@@V?$allocator@U?$pair@$$CBHH@std@@@2@$0A@@std@@@std@@QAEXXZ 10004160 f i Gamesys.obj
 0001:00003160       ?_Dec@const_iterator@?$_Tree@V?$_Tmap_traits@KPAUDP4Data@@U?$less@K@std@@V?$allocator@U?$pair@$$CBKPAUDP4Data@@@std@@@3@$0A@@std@@@std@@QAEXXZ 10004160 f i DarkPeer.obj
 0001:000031f0       ?HandleCreatePlayerMsg@CDarkPeer@@IAEXPAU_DPNMSG_CREATE_PLAYER@@@Z 100041f0 f   DarkPeer.obj
 0001:00003430       ?HandleNewPacket@CDarkPeer@@IAEXPAEKK@Z 10004430 f   DarkPeer.obj
 0001:00003490       ?_Buynode@?$_Tree@V?$_Tmap_traits@HHU?$less@H@std@@V?$allocator@U?$pair@$$CBHH@std@@@2@$0A@@std@@@std@@IAEPAU_Node@?$_Tree_nod@V?$_Tmap_traits@HHU?$less@H@std@@V?$allocator@U?$pair@$$CBHH@std@@@2@$0A@@std@@@2@XZ 10004490 f i Gamesys.obj
 0001:00003490       ?_Buynode@?$_Tree@V?$_Tmap_traits@KPAUDP4Data@@U?$less@K@std@@V?$allocator@U?$pair@$$CBKPAUDP4Data@@@std@@@3@$0A@@std@@@std@@IAEPAU_Node@?$_Tree_nod@V?$_Tmap_traits@KPAUDP4Data@@U?$less@K@std@@V?$allocator@U?$pair@$$CBKPAUDP4Data@@@std@@@3@$0A@@std@@@2@XZ 10004490 f i DarkPeer.obj
 0001:000034d0       ?_Buynode@?$_Tree@V?$_Tmap_traits@HHU?$less@H@std@@V?$allocator@U?$pair@$$CBHH@std@@@2@$0A@@std@@@std@@IAEPAU_Node@?$_Tree_nod@V?$_Tmap_traits@HHU?$less@H@std@@V?$allocator@U?$pair@$$CBHH@std@@@2@$0A@@std@@@2@PAU342@00ABU?$pair@$$CBHH@2@D@Z 100044d0 f i Gamesys.obj
 0001:000034d0       ?_Buynode@?$_Tree@V?$_Tmap_traits@KPAUDP4Data@@U?$less@K@std@@V?$allocator@U?$pair@$$CBKPAUDP4Data@@@std@@@3@$0A@@std@@@std@@IAEPAU_Node@?$_Tree_nod@V?$_Tmap_traits@KPAUDP4Data@@U?$less@K@std@@V?$allocator@U?$pair@$$CBKPAUDP4Data@@@std@@@3@$0A@@std@@@2@PAU342@00ABU?$pair@$$CBKPAUDP4Data@@@2@D@Z 100044d0 f i DarkPeer.obj
 0001:00003510       ?_Erase@?$_Tree@V?$_Tmap_traits@HHU?$less@H@std@@V?$allocator@U?$pair@$$CBHH@std@@@2@$0A@@std@@@std@@IAEXPAU_Node@?$_Tree_nod@V?$_Tmap_traits@HHU?$less@H@std@@V?$allocator@U?$pair@$$CBHH@std@@@2@$0A@@std@@@2@@Z 10004510 f i Gamesys.obj
 0001:00003510       ?_Erase@?$_Tree@V?$_Tmap_traits@KPAUDP4Data@@U?$less@K@std@@V?$allocator@U?$pair@$$CBKPAUDP4Data@@@std@@@3@$0A@@std@@@std@@IAEXPAU_Node@?$_Tree_nod@V?$_Tmap_traits@KPAUDP4Data@@U?$less@K@std@@V?$allocator@U?$pair@$$CBKPAUDP4Data@@@std@@@3@$0A@@std@@@2@@Z 10004510 f i DarkPeer.obj
 0001:00003550       ?_Insert@?$_Tree@V?$_Tmap_traits@HHU?$less@H@std@@V?$allocator@U?$pair@$$CBHH@std@@@2@$0A@@std@@@std@@IAE?AViterator@12@_NPAU_Node@?$_Tree_nod@V?$_Tmap_traits@HHU?$less@H@std@@V?$allocator@U?$pair@$$CBHH@std@@@2@$0A@@std@@@2@ABU?$pair@$$CBHH@2@@Z 10004550 f i Gamesys.obj
 0001:00003550       ?_Insert@?$_Tree@V?$_Tmap_traits@KPAUDP4Data@@U?$less@K@std@@V?$allocator@U?$pair@$$CBKPAUDP4Data@@@std@@@3@$0A@@std@@@std@@IAE?AViterator@12@_NPAU_Node@?$_Tree_nod@V?$_Tmap_traits@KPAUDP4Data@@U?$less@K@std@@V?$allocator@U?$pair@$$CBKPAUDP4Data@@@std@@@3@$0A@@std@@@2@ABU?$pair@$$CBKPAUDP4Data@@@2@@Z 10004550 f i DarkPeer.obj
 0001:00003750       ??0logic_error@std@@QAE@ABV01@@Z 10004750 f i DarkPeer.obj
 0001:000037b0       ??0length_error@std@@QAE@ABV01@@Z 100047b0 f i DarkPeer.obj
 0001:000037d0       ??0out_of_range@std@@QAE@ABV01@@Z 100047d0 f i DarkPeer.obj
 0001:000037f0       ?insert@?$_Tree@V?$_Tmap_traits@KPAUDP4Data@@U?$less@K@std@@V?$allocator@U?$pair@$$CBKPAUDP4Data@@@std@@@3@$0A@@std@@@std@@QAE?AU?$pair@Viterator@?$_Tree@V?$_Tmap_traits@KPAUDP4Data@@U?$less@K@std@@V?$allocator@U?$pair@$$CBKPAUDP4Data@@@std@@@3@$0A@@std@@@std@@_N@2@ABU?$pair@$$CBKPAUDP4Data@@@2@@Z 100047f0 f i DarkPeer.obj
 0001:000038e0       ?insert@?$_Tree@V?$_Tmap_traits@KPAUDP4Data@@U?$less@K@std@@V?$allocator@U?$pair@$$CBKPAUDP4Data@@@std@@@3@$0A@@std@@@std@@QAE?AViterator@12@Vconst_iterator@12@ABU?$pair@$$CBKPAUDP4Data@@@2@@Z 100048e0 f i DarkPeer.obj
 0001:00003ac0       ??A?$map@KPAUDP4Data@@U?$less@K@std@@V?$allocator@U?$pair@$$CBKPAUDP4Data@@@std@@@3@@std@@QAEAAPAUDP4Data@@ABK@Z 10004ac0 f i DarkPeer.obj
 0001:00003b70       ??0?$_Tree@V?$_Tmap_traits@KPAUDP4Data@@U?$less@K@std@@V?$allocator@U?$pair@$$CBKPAUDP4Data@@@std@@@3@$0A@@std@@@std@@QAE@ABU?$less@K@1@ABV?$allocator@U?$pair@$$CBKPAUDP4Data@@@std@@@1@@Z 10004b70 f i DarkPeer.obj
 0001:00003b70       ??0?$_Tree@V?$_Tmap_traits@HHU?$less@H@std@@V?$allocator@U?$pair@$$CBHH@std@@@2@$0A@@std@@@std@@QAE@ABU?$less@H@1@ABV?$allocator@U?$pair@$$CBHH@std@@@1@@Z 10004b70 f i Gamesys.obj
 0001:00003bf0       ??1?$map@KPAUDP4Data@@U?$less@K@std@@V?$allocator@U?$pair@$$CBKPAUDP4Data@@@std@@@3@@std@@QAE@XZ 10004bf0 f i DarkPeer.obj
 0001:00003c00       ??1CDarkPeer@@UAE@XZ       10004c00 f   DarkPeer.obj
 0001:00003dc0       ?EventHandler@CDarkPeer@@W3AEXHPAX@Z 10004dc0 f i DarkPeer.obj
 0001:00003dd0       ?MessageHandler@CDarkPeer@@IAEJPAXK0@Z 10004dd0 f   DarkPeer.obj
 0001:00004110       ??_GCDarkPeer@@UAEPAXI@Z   10005110 f i DarkPeer.obj
 0001:00004110       ??_ECDarkPeer@@UAEPAXI@Z   10005110 f i DarkPeer.obj
 0001:00004130       ?StaticMessageHandler@CDarkPeer@@KGJPAXK0@Z 10005130 f   DarkPeer.obj
 0001:00004140       ?InitClient@CDarkPeer@@IAEXXZ 10005140 f   DarkPeer.obj
 0001:00004380       ?InitServer@CDarkPeer@@IAEXXZ 10005380 f   DarkPeer.obj
 0001:00004710       ??0CDarkPeer@@QAE@W4NetState@@@Z 10005710 f   DarkPeer.obj
 0001:000048a0       ?SetApplicationDesc@CDarkSessionManager@@QAEXPBU_DPN_APPLICATION_DESC@@@Z 100058a0 f   DarkSessionManager.obj
 0001:00004920       ?DPGetApplicationDesc@CDarkSessionManager@@IAEXXZ 10005920 f   DarkSessionManager.obj
 0001:000049a0       ?SetSessionInfo@CDarkSessionManager@@QAEXPBU_DPN_APPLICATION_DESC@@@Z 100059a0 f   DarkSessionManager.obj
 0001:00004a30       ?GetSessionInfo@CDarkSessionManager@@QBEABUSessionInfo@@XZ 10005a30 f   DarkSessionManager.obj
 0001:00004a40       ??0CDarkSessionManager@@QAE@PAUIDirectPlay8Peer@@@Z 10005a40 f   DarkSessionManager.obj
 0001:00004ab0       ??1CDarkSessionManager@@UAE@XZ 10005ab0 f   DarkSessionManager.obj
 0001:00004b20       ?GetServerName@CDarkSessionManager@@QBEPBDXZ 10005b20 f   DarkSessionManager.obj
 0001:00004b30       ?UpdateSessionInfo@CDarkSessionManager@@QAEXXZ 10005b30 f   DarkSessionManager.obj
 0001:00004c60       ??_GCDarkSessionManager@@UAEPAXI@Z 10005c60 f i DarkSessionManager.obj
 0001:00004c60       ??_ECDarkSessionManager@@UAEPAXI@Z 10005c60 f i DarkSessionManager.obj
 0001:00004c80       ?Rebuild@CMarshalled@@UAEXPAE@Z 10005c80 f   Marshal.obj
 0001:00004cc0       ?CopyMultiParm@CDarkMarshalBuffer@@QAEXABUsMultiParm@@@Z 10005cc0 f   Marshal.obj
 0001:00004cf0       ?CopyChainedEvent@CDarkMarshalBuffer@@QAEXABUsChainedEvent@@@Z 10005cf0 f   Marshal.obj
 0001:00004d30       ?GetChainedEvent@CDarkMarshalBuffer@@QAEXAAUsChainedEvent@@@Z 10005d30 f   Marshal.obj
 0001:00004d70       ?GetMultiParm@CDarkMarshalBuffer@@QAEXAAUsMultiParm@@@Z 10005d70 f   Marshal.obj
 0001:00004da0       ?Send@CMarshalled@@UAEHKK@Z 10005da0 f   Marshal.obj
 0001:00004e10       ?CopyGlobalFromObj@CDarkMarshalBuffer@@QAEXH@Z 10005e10 f   Marshal.obj
 0001:00004e40       ?CopyReactionEvent@CDarkMarshalBuffer@@QAEXABUsReactionEvent@@@Z 10005e40 f   Marshal.obj
 0001:00004e80       ?CopyReactionParam@CDarkMarshalBuffer@@QAEXABUsReactionParam@@@Z 10005e80 f   Marshal.obj
 0001:00004ef0       ?GetObjFromGlobal@CDarkMarshalBuffer@@QAEHXZ 10005ef0 f   Marshal.obj
 0001:00004f20       ?GetReactionEvent@CDarkMarshalBuffer@@QAEXAAUsReactionEvent@@@Z 10005f20 f   Marshal.obj
 0001:00004f70       ?GetReactionParam@CDarkMarshalBuffer@@QAEXAAUsReactionParam@@@Z 10005f70 f   Marshal.obj
 0001:00004fe0       ?SendTimeLimit@@YAXXZ      10005fe0 f   Network.obj
 0001:00005020       ?NetSimCallback@@YAXHH@Z   10006020 f   Network.obj
 0001:000050a0       ?ObjectSendData@@YAXHHPAXKK@Z 100060a0 f   Network.obj
 0001:00005140       ?SendAddLoot@@YAXHK@Z      10006140 f   Network.obj
 0001:000051d0       ?SendEndMission@@YAXXZ     100061d0 f   Network.obj
 0001:00005240       ?SendPlayerStopAnimation@@YAXXZ 10006240 f   Network.obj
 0001:000052b0       ??1PlayerData@@QAE@XZ      100062b0 f i PlayerDB.obj
 0001:000052c0       ??0PlayerData@@QAE@XZ      100062c0 f i PlayerDB.obj
 0001:000052d0       ?ClearPlayerInfo@PlayerDB@@QAEXXZ 100062d0 f   PlayerDB.obj
 0001:00005390       ??0PlayerDB@@QAE@XZ        10006390 f   PlayerDB.obj
 0001:000053f0       ?NameFromIndex@PlayerDB@@QAEPBDH@Z 100063f0 f   PlayerDB.obj
 0001:00005460       ?NameFromDPNID@PlayerDB@@QAEPBDK@Z 10006460 f   PlayerDB.obj
 0001:000054e0       ?SetPlayerInfo@PlayerDB@@QAEXHPBDH@Z 100064e0 f   PlayerDB.obj
 0001:000055b0       ??0CNetMsg_GenericReaction@@QAE@FPAUsReactionEvent@@PAUsReactionParam@@@Z 100065b0 f   T2GenericReaction.obj
 0001:00005680       ?Marshal@CNetMsg_GenericReaction@@UAEXAAVCDarkMarshalBuffer@@@Z 10006680 f   T2GenericReaction.obj
 0001:00005750       ?Unmarshal@CNetMsg_GenericReaction@@UAEXAAVCDarkMarshalBuffer@@@Z 10006750 f   T2GenericReaction.obj
 0001:00005820       ??0CNetMsg_PlayerDeath@@QAE@HH@Z 10006820 f   T2PlayerDeath.obj
 0001:00005840       ?Marshal@CNetMsg_PlayerDeath@@UAEXAAVCDarkMarshalBuffer@@@Z 10006840 f   T2PlayerDeath.obj
 0001:00005870       ?Unmarshal@CNetMsg_PlayerDeath@@UAEXAAVCDarkMarshalBuffer@@@Z 10006870 f   T2PlayerDeath.obj
 0001:000058a0       ?Marshal@CNetMsg_ScriptMsg@@UAEXAAVCDarkMarshalBuffer@@@Z 100068a0 f   T2ScriptMsg.obj
 0001:00005900       ?Unmarshal@CNetMsg_ScriptMsg@@UAEXAAVCDarkMarshalBuffer@@@Z 10006900 f   T2ScriptMsg.obj
 0001:00005960       ??0CNetMsg_ScriptMsg@@QAE@HHPBDPAUsMultiParm@@@Z 10006960 f   T2ScriptMsg.obj
 0001:000059c0       ??0sScrMsg@@QAE@XZ         100069c0 f i T2ScriptMsg.obj
 0001:000059e0       ?CreateFrobMsg@CNetMsg_ScriptMsg@@IAEPAUsScrMsg@@XZ 100069e0 f   T2ScriptMsg.obj
 0001:00005a50       ?CreateScrMsg@CNetMsg_ScriptMsg@@IAEPAUsScrMsg@@XZ 10006a50 f   T2ScriptMsg.obj
 0001:00005aa0       ?ScriptMessageCreate@CNetMsg_ScriptMsg@@QAEPAUsScrMsg@@XZ 10006aa0 f   T2ScriptMsg.obj
 0001:00005ad0       ?GetInt@CEControl@EngCtrls@@UAEHXZ 10006ad0 f i ConnectDialog.obj
 0001:00005af0       ?OnInitDialog@CConnectDialog@@QAEXPAUHWND__@@@Z 10006af0 f   ConnectDialog.obj
 0001:00005b80       ?SaveSettings@CConnectDialog@@QAEXXZ 10006b80 f   ConnectDialog.obj
 0001:00005c10       ??0CConnectDialog@@QAE@XZ  10006c10 f   ConnectDialog.obj
 0001:00005c60       ?DialogProc@CConnectDialog@@QAGHPAUHWND__@@IIJ@Z 10006c60 f   ConnectDialog.obj
 0001:00005da0       ?OnConnect@CConnectDialog@@QAEXXZ 10006da0 f   ConnectDialog.obj
 0001:00005e00       ?StaticDialogProc@CConnectDialog@@SGHPAUHWND__@@IIJ@Z 10006e00 f   ConnectDialog.obj
 0001:00005e30       ?DisplayPage@CConnectDialog@@QAEXXZ 10006e30 f   ConnectDialog.obj
 0001:00005f30       ??0HistoryItem@@QAE@PBD@Z  10006f30 f i ConsoleGUI.obj
 0001:00005f80       ??_GHistoryItem@@UAEPAXI@Z 10006f80 f i ConsoleGUI.obj
 0001:00005f80       ??_EHistoryItem@@UAEPAXI@Z 10006f80 f i ConsoleGUI.obj
 0001:00005fb0       ?FindCommand@CConsoleBase@@QAEHPBD@Z 10006fb0 f   ConsoleGUI.obj
 0001:00006030       ?OnInit@CConsoleBase@@UAEXXZ 10007030 f   ConsoleGUI.obj
 0001:00006050       ?SetWindowTitle@CConsoleBase@@QAEXPBD@Z 10007050 f   ConsoleGUI.obj
 0001:00006070       ?SetCommands@CConsoleBase@@QAEXPAUConsoleCommand@@H@Z 10007070 f   ConsoleGUI.obj
 0001:00006090       ?SetAcceleratorTable@CConsoleBase@@QAEXH@Z 10007090 f   ConsoleGUI.obj
 0001:000060d0       ?ExecuteCommand@CConsoleBase@@QAEXHPBD@Z 100070d0 f   ConsoleGUI.obj
 0001:00006200       ?ExecuteRaw@CConsoleBase@@QAE_NPAD@Z 10007200 f   ConsoleGUI.obj
 0001:00006250       ?Update@CConsoleBase@@QAEXXZ 10007250 f   ConsoleGUI.obj
 0001:00006340       ?PostMessageA@CConsoleBase@@QAEXPBD@Z 10007340 f   ConsoleGUI.obj
 0001:00006390       ?_Buynode@?$list@PAVMessage@@V?$allocator@PAVMessage@@@std@@@std@@IAEPAU_Node@?$_List_nod@PAVMessage@@V?$allocator@PAVMessage@@@std@@@2@PAU342@0ABQAVMessage@@@Z 10007390 f i MessageManager.obj
 0001:00006390       ?_Buynode@?$list@PAVHistoryItem@@V?$allocator@PAVHistoryItem@@@std@@@std@@IAEPAU_Node@?$_List_nod@PAVHistoryItem@@V?$allocator@PAVHistoryItem@@@std@@@2@PAU342@0ABQAVHistoryItem@@@Z 10007390 f i ConsoleGUI.obj
 0001:00006390       ?_Buynode@?$list@PAVCServerListEntry@@V?$allocator@PAVCServerListEntry@@@std@@@std@@IAEPAU_Node@?$_List_nod@PAVCServerListEntry@@V?$allocator@PAVCServerListEntry@@@std@@@2@PAU342@0ABQAVCServerListEntry@@@Z 10007390 f i ServerList.obj
 0001:000063d0       ?Advance@HistoryManager@@QAEX_N@Z 100073d0 f   ConsoleGUI.obj
 0001:00006570       ?OnUpKey@CConsoleBase@@UAEXXZ 10007570 f   ConsoleGUI.obj
 0001:000065f0       ?OnDownKey@CConsoleBase@@UAEXXZ 100075f0 f   ConsoleGUI.obj
 0001:00006630       ?AddLine@HistoryManager@@QAEXPBD@Z 10007630 f   ConsoleGUI.obj
 0001:000066e0       ??1HistoryManager@@QAE@XZ  100076e0 f   ConsoleGUI.obj
 0001:000067d0       ??0CConsoleBase@@QAE@PAUHINSTANCE__@@HHHP6GHPAUHWND__@@IIJ@Z@Z 100077d0 f   ConsoleGUI.obj
 0001:00006900       ??1CConsoleBase@@UAE@XZ    10007900 f   ConsoleGUI.obj
 0001:00006950       ?OnEnterKey@CConsoleBase@@UAEXXZ 10007950 f   ConsoleGUI.obj
 0001:00006a00       ??_ECConsoleBase@@UAEPAXI@Z 10007a00 f i ConsoleGUI.obj
 0001:00006a00       ??_GCConsoleBase@@UAEPAXI@Z 10007a00 f i ConsoleGUI.obj
 0001:00006a00       ??_GCThiefConsole@@UAEPAXI@Z 10007a00 f i DarkWinGui.obj
 0001:00006a00       ??_ECThiefConsole@@UAEPAXI@Z 10007a00 f i DarkWinGui.obj
 0001:00006a20       ??0CThiefConsole@@QAE@PAUHINSTANCE__@@HHHP6GHPAUHWND__@@IIJ@Z@Z 10007a20 f i DarkWinGui.obj
 0001:00006a60       ?Startup@InterfaceManager@@UAEXXZ 10007a60 f   DarkWinGui.obj
 0001:00006a70       ?Shutdown@InterfaceManager@@UAEXXZ 10007a70 f   DarkWinGui.obj
 0001:00006ab0       ?Update@InterfaceManager@@UAEXXZ 10007ab0 f   DarkWinGui.obj
 0001:00006ac0       ?PromptDisconnect@@YAHXZ   10007ac0 f   DarkWinGui.obj
 0001:00006ae0       ?WinGuiTerm@@YAXXZ         10007ae0 f   DarkWinGui.obj
 0001:00006b10       ?DialogProc@CThiefConsole@@QAGHPAUHWND__@@IIJ@Z 10007b10 f   DarkWinGui.obj
 0001:00006ff0       ?WinGuiInit@@YAXXZ         10007ff0 f   DarkWinGui.obj
 0001:00007050       ??_EInterfaceManager@@UAEPAXI@Z 10008050 f i DarkWinGui.obj
 0001:00007050       ??_GInterfaceManager@@UAEPAXI@Z 10008050 f i DarkWinGui.obj
 0001:000070b0       ?StaticDialogProc@CThiefConsole@@SGHPAUHWND__@@IIJ@Z 100080b0 f   DarkWinGui.obj
 0001:000070f0       ?CreateChildWindow@InterfaceManager@@UAEXH@Z 100080f0 f   DarkWinGui.obj
 0001:00007400       ?DbgMenuToggleEcho@@YAXXZ  10008400 f   DbgMenu.obj
 0001:00007410       ?EnableDebugMenuItems@@YAXPAUHMENU__@@@Z 10008410 f   DbgMenu.obj
 0001:00007570       ?Enable@CEEditBox@EngCtrls@@QAE_N_N@Z 10008570 f i HostDialog.obj
 0001:00007590       ?InitControlStates@CHostDialog@@QAEXXZ 10008590 f   HostDialog.obj
 0001:00007840       ?SaveSettings@CHostDialog@@QAEXXZ 10008840 f   HostDialog.obj
 0001:00007bc0       ??1?$IPtr@UIAINetManager@@@@QAE@XZ 10008bc0 f i ClientPacketHandler.obj
 0001:00007bc0       ??1?$IPtr@UIResMan@@@@QAE@XZ 10008bc0 f i DarkUIUtils.obj
 0001:00007bc0       ??1?$IPtr@UIGameStrings@@@@QAE@XZ 10008bc0 f i HostDialog.obj
 0001:00007bc0       ??1?$IPtr@UIStructDescTools@@@@QAE@XZ 10008bc0 f i HostDialog.obj
 0001:00007bc0       ??1?$IPtr@UIQuestData@@@@QAE@XZ 10008bc0 f i Commands.obj
 0001:00007bd0       ??0CHostDialog@@QAE@XZ     10008bd0 f   HostDialog.obj
 0001:00007ca0       ?OnHost@CHostDialog@@QAEXXZ 10008ca0 f   HostDialog.obj
 0001:00007d10       ?GetMissionFlags@CHostDialog@@QAEKH@Z 10008d10 f   HostDialog.obj
 0001:00007e10       ?InitButtons@CHostDialog@@QAEXXZ 10008e10 f   HostDialog.obj
 0001:00008180       ?DialogProc@CHostDialog@@QAGHPAUHWND__@@IIJ@Z 10009180 f   HostDialog.obj
 0001:00008350       ?StaticDialogProc@CHostDialog@@SGHPAUHWND__@@IIJ@Z 10009350 f   HostDialog.obj
 0001:00008380       ?DisplayPage@CHostDialog@@QAEXXZ 10009380 f   HostDialog.obj
 0001:00008440       ?OnInitDialog@CMissionSelectDialog@@QAEXPAUHWND__@@@Z 10009440 f   MissSelect.obj
 0001:00008560       ?DialogProc@CMissionSelectDialog@@QAGHPAUHWND__@@IIJ@Z 10009560 f   MissSelect.obj
 0001:00008600       ?StaticDialogProc@CMissionSelectDialog@@SGHPAUHWND__@@IIJ@Z 10009600 f   MissSelect.obj
 0001:00008630       ?DisplayPage@CMissionSelectDialog@@QAEXXZ 10009630 f   MissSelect.obj
 0001:000086c0       ??0CPasswordDialog@@QAE@XZ 100096c0 f   PasswordDialog.obj
 0001:000086f0       ?DialogProc@CPasswordDialog@@QAGHPAUHWND__@@IIJ@Z 100096f0 f   PasswordDialog.obj
 0001:000087a0       ?StaticDialogProc@CPasswordDialog@@SGHPAUHWND__@@IIJ@Z 100097a0 f   PasswordDialog.obj
 0001:000087d0       ?DisplayPage@CPasswordDialog@@QAEXXZ 100097d0 f   PasswordDialog.obj
 0001:00008860       ?InitButtons@CPlayerSettingsDialog@@QAEXXZ 10009860 f   PlayerSettings.obj
 0001:000088f0       ?InitControlStates@CPlayerSettingsDialog@@QAEXXZ 100098f0 f   PlayerSettings.obj
 0001:00008960       ?SaveSettings@CPlayerSettingsDialog@@QAEXXZ 10009960 f   PlayerSettings.obj
 0001:00008a00       ?DialogProc@CPlayerSettingsDialog@@QAGHPAUHWND__@@IIJ@Z 10009a00 f   PlayerSettings.obj
 0001:00008ab0       ?StaticDialogProc@CPlayerSettingsDialog@@SGHPAUHWND__@@IIJ@Z 10009ab0 f   PlayerSettings.obj
 0001:00008ae0       ?DisplayPage@CPlayerSettingsDialog@@QAEXXZ 10009ae0 f   PlayerSettings.obj
 0001:00008b40       ?EquipAIWeaponHook@@YGHHKK@Z 10009b40 f   AI.obj
 0001:00008b80       ?OnIsValidTarget@@YGHH@Z   10009b80 f   AI.obj
 0001:00008be0       ?DarkChatTerm@@YAXXZ       10009be0 f   Chat.obj
 0001:00008c10       ?ChatboxIsOpen@@YA_NXZ     10009c10 f   Chat.obj
 0001:00008c20       ?ChatboxOpen@@YAXXZ        10009c20 f   Chat.obj
 0001:00008cb0       ?ChatboxClose@@YAXPAU_LGadTextBox@@@Z 10009cb0 f   Chat.obj
 0001:00008d40       ?ChatboxCallback@@YAXPAU_LGadTextBox@@W4_LGadTextBoxEvent@@HPAX@Z 10009d40 f   Chat.obj
 0001:00008de0       ?DarkChatInit@@YAXXZ       10009de0 f   Chat.obj
 0001:00008e80       ?LoadMission@CClient@@QAEXH@Z 10009e80 f   Client.obj
 0001:00008eb0       ?MissionStarted@CClient@@QAE_NXZ 10009eb0 f   Client.obj
 0001:00008ec0       ?IsSimRunning@CClient@@QAE_NXZ 10009ec0 f   Client.obj
 0001:00008ed0       ?SetSimRunning@CClient@@QAEX_N@Z 10009ed0 f   Client.obj
 0001:00008ee0       ?GetTimeRemaining@CClient@@QAEMXZ 10009ee0 f   Client.obj
 0001:00008ef0       ?SetTimeRemaining@CClient@@QAEXM@Z 10009ef0 f   Client.obj
 0001:00008f10       ?IsTimeLimitSet@CClient@@QAE_NXZ 10009f10 f   Client.obj
 0001:00008f30       ?GameIsEnding@CClient@@QAE_NXZ 10009f30 f   Client.obj
 0001:00008f50       ?StartEndGameTimer@CClient@@QAEXMW4EndReason@@@Z 10009f50 f   Client.obj
 0001:00008fb0       ?EventHandler@CClient@@UAEXHPAX@Z 10009fb0 f   Client.obj
 0001:00008fc0       ?DrawPlayerNames@CClient@@QAEXXZ 10009fc0 f   Client.obj
 0001:00009070       ?DebugDrawVisibility@CClient@@QAEXXZ 1000a070 f   Client.obj
 0001:00009180       ?DebugDrawNetStats@CClient@@QAEXXZ 1000a180 f   Client.obj
 0001:000092c0       ?DebugDrawMiscStats@CClient@@QAEXXZ 1000a2c0 f   Client.obj
 0001:00009440       ?RenderOverlays@CClient@@QAEXXZ 1000a440 f   Client.obj
 0001:00009480       ?OnPlayerCreate@CClient@@SAXXZ 1000a480 f   Client.obj
 0001:000094b0       ?OnJump@CClient@@SAHXZ     1000a4b0 f   Client.obj
 0001:000094e0       ?OnLoadWorld@CClient@@QAEXXZ 1000a4e0 f   Client.obj
 0001:00009560       ?IsClient@CClient@@QAE_NXZ 1000a560 f   Client.obj
 0001:00009590       ?UpdateTransparency@CClient@@QAEXXZ 1000a590 f   Client.obj
 0001:00009720       ?OnDeath@CClient@@QAEXXZ   1000a720 f   Client.obj
 0001:00009810       ?RespawnPlayer@CClient@@QAEXXZ 1000a810 f   Client.obj
 0001:00009900       ?Update@CClient@@QAEXXZ    1000a900 f   Client.obj
 0001:00009aa0       ?StaticOnDeath@CClient@@SAXXZ 1000aaa0 f   Client.obj
 0001:00009ab0       ?StartGameModeCallback@CClient@@SGXK@Z 1000aab0 f   Client.obj
 0001:00009b70       ?HandleMissionEnd@PacketHandler@@IAEXXZ 1000ab70 f   ClientPacketHandler.obj
 0001:00009ba0       ?HandleLoadGame@PacketHandler@@IAEXXZ 1000aba0 f   ClientPacketHandler.obj
 0001:00009be0       ?HandleSaveGame@PacketHandler@@IAEXXZ 1000abe0 f   ClientPacketHandler.obj
 0001:00009c20       ?HandleObjectData@PacketHandler@@IAEXXZ 1000ac20 f   ClientPacketHandler.obj
 0001:00009d90       ?HandleFrobObject@PacketHandler@@IAEXXZ 1000ad90 f   ClientPacketHandler.obj
 0001:00009e30       ?HandleGiveObj@PacketHandler@@IAEXXZ 1000ae30 f   ClientPacketHandler.obj
 0001:00009f30       ?HandleAddLoot@PacketHandler@@IAEXXZ 1000af30 f   ClientPacketHandler.obj
 0001:0000a1a0       ?HandleSetWeapon@PacketHandler@@IAEXXZ 1000b1a0 f   ClientPacketHandler.obj
 0001:0000a200       ?HandleMissionStart@PacketHandler@@IAEXXZ 1000b200 f   ClientPacketHandler.obj
 0001:0000a300       ?HandleChat@PacketHandler@@IAEXXZ 1000b300 f   ClientPacketHandler.obj
 0001:0000a480       ?HandleCrcRequest@PacketHandler@@IAEXXZ 1000b480 f   ClientPacketHandler.obj
 0001:0000a5a0       ?HandleCrcResponse@PacketHandler@@IAEXXZ 1000b5a0 f   ClientPacketHandler.obj
 0001:0000a730       ?HandlePlayerDeath@PacketHandler@@IAEXXZ 1000b730 f   ClientPacketHandler.obj
 0001:0000a810       ?HandleSpeechHalt@PacketHandler@@IAEXXZ 1000b810 f   ClientPacketHandler.obj
 0001:0000a8a0       ?HandleSpeech@PacketHandler@@IAEXXZ 1000b8a0 f   ClientPacketHandler.obj
 0001:0000aac0       ?HandleGenericReaction@PacketHandler@@IAEXXZ 1000bac0 f   ClientPacketHandler.obj
 0001:0000acb0       ?HandleTransferAI@PacketHandler@@IAEXXZ 1000bcb0 f   ClientPacketHandler.obj
 0001:0000adf0       ?HandleObjectDamaged@PacketHandler@@IAEXXZ 1000bdf0 f   ClientPacketHandler.obj
 0001:0000aeb0       ?HandleSnapshotRequest@PacketHandler@@IAEXXZ 1000beb0 f   ClientPacketHandler.obj
 0001:0000af00       ?HandleCreatePlayer@PacketHandler@@IAEXXZ 1000bf00 f   ClientPacketHandler.obj
 0001:0000b1e0       ?HandleScriptMsg@PacketHandler@@IAEXXZ 1000c1e0 f   ClientPacketHandler.obj
 0001:0000b270       ?OnPollNetwork@PacketHandler@@QAEXXZ 1000c270 f   ClientPacketHandler.obj
 0001:0000b480       ?OnLoopMsg@HookLoading@@YIXPAVcLoading@@HHPAUtLoopMessageData__@@@Z 1000c480 f   ClientSynch.obj
 0001:0000b6d0       ?DoFileLoad@HookLoading@@YIXPAVcLoading@@HPAUITagFile@@@Z 1000c6d0 f   ClientSynch.obj
 0001:0000b700       ?OnLoopMsg@HookLoadingSaveGame@@YIXPAVcLoadingSaveGame@@HHPAUtLoopMessageData__@@@Z 1000c700 f   ClientSynch.obj
 0001:0000b7a0       ?ApplySettings@Config@@YAXXZ 1000c7a0 f   Config.obj
 0001:0000b7f0       ?GetSettings@Config@@YAXXZ 1000c7f0 f   Config.obj
 0001:0000be00       ?Reload@Config@@YAXXZ      1000ce00 f   Config.obj
 0001:0000be20       ?ConfigInit@@YAXXZ         1000ce20 f   Config.obj
 0001:0000be40       ?ConPrintF@@YAXPBDZZ       1000ce40 f   Console.obj
 0001:0000bf00       ?ConPrintEchoF@@YAXPBDZZ   1000cf00 f   Console.obj
 0001:0000bfa0       ?CmdAIPrediction@@YAXXZ    1000cfa0 f   Console.obj
 0001:0000bfb0       ?CmdClear@@YAXXZ           1000cfb0 f   Console.obj
 0001:0000bfc0       ?CmdNetStats@@YAXXZ        1000cfc0 f   Console.obj
 0001:0000bfd0       ?CmdVisStats@@YAXXZ        1000cfd0 f   Console.obj
 0001:0000bfe0       ?CmdObjPlayers@@YAXXZ      1000cfe0 f   Console.obj
 0001:0000c020       ?CmdSuicide@@YAXXZ         1000d020 f   Console.obj
 0001:0000c030       ?CmdSimTime@@YAXXZ         1000d030 f   Console.obj
 0001:0000c050       ?CmdSfxReset@@YAXXZ        1000d050 f   Console.obj
 0001:0000c070       ?CmdReload@@YAXXZ          1000d070 f   Console.obj
 0001:0000c090       ?CmdTeleport@@YAXPAD@Z     1000d090 f   Console.obj
 0001:0000c3a0       ?CmdTransMax@@YAXN@Z       1000d3a0 f   Console.obj
 0001:0000c3c0       ?CmdTransDistance@@YAXN@Z  1000d3c0 f   Console.obj
 0001:0000c3e0       ?CmdHelp@@YAXXZ            1000d3e0 f   Console.obj
 0001:0000c420       ?CmdObjHighlit@@YAXXZ      1000d420 f   Console.obj
 0001:0000c440       ?CmdTest@@YAXPAUsGhostRemote@@@Z 1000d440 f   Console.obj
 0001:0000c450       ?CmdObjectives@@YAXXZ      1000d450 f   Console.obj
 0001:0000c470       ?CmdNetState@@YAXXZ        1000d470 f   Console.obj
 0001:0000c4e0       ?CmdContainList@@YAXH@Z    1000d4e0 f   Console.obj
 0001:0000c570       ?CmdInvAdd@@YAXPBD@Z       1000d570 f   Console.obj
 0001:0000c5f0       ?CmdInvRem@@YAXH@Z         1000d5f0 f   Console.obj
 0001:0000c640       ?CmdSummonObj@@YAXPBD@Z    1000d640 f   Console.obj
 0001:0000c6a0       ?CmdObjDetails@@YAXH@Z     1000d6a0 f   Console.obj
 0001:0000ca60       ?CmdObjID@@YAXPBD@Z        1000da60 f   Console.obj
 0001:0000ca90       ?CmdQuestGet@@YAXPBD@Z     1000da90 f   Console.obj
 0001:0000cb10       ?CmdGhostList@@YAXXZ       1000db10 f   Console.obj
 0001:0000cbc0       ?CmdFindAll@@YAXPBD@Z      1000dbc0 f   Console.obj
 0001:0000cc60       ?CmdOpen@@YAXXZ            1000dc60 f   Console.obj
 0001:0000ccc0       ?CmdShowPlayers@@YAXXZ     1000dcc0 f   Console.obj
 0001:0000ccf0       ?InitNetCommands@@YAXXZ    1000dcf0 f   Console.obj
 0001:0000cd10       ?MainMenuBlistHook@@YIXPAVcDarkPanel@@HGH@Z 1000dd10 f   DarkPanels.obj
 0001:0000cdb0       ?DebriefBlistHook@@YIXPAVcDarkPanel@@HGH@Z 1000ddb0 f   DarkPanels.obj
 0001:0000cdf0       ?SimMenuBlistHook@@YIXPAVcDarkPanel@@HGH@Z 1000ddf0 f   DarkPanels.obj
 0001:0000cf40       ?DarkStatIntSet@@YAXPADH@Z 1000df40 f   DarkStat.obj
 0001:0000cfc0       ?DarkUIUtilsTerm@@YAXXZ    1000dfc0 f   DarkUIUtils.obj
 0001:0000d000       ?DarkUIUtilsInit@@YAXXZ    1000e000 f   DarkUIUtils.obj
 0001:0000d0b0       ?GetTextWidth@@YAMPAUgrs_font@@PBD@Z 1000e0b0 f   DarkUIUtils.obj
 0001:0000d100       ?TextDraw@@YAXPAUgrs_font@@HPBDHH@Z 1000e100 f   DarkUIUtils.obj
 0001:0000d160       ?TextDrawCentered@@YAXPAUgrs_font@@HPBDMM@Z 1000e160 f   DarkUIUtils.obj
 0001:0000d220       ?TextDraw@@YAXPAUgrs_font@@HPBDMM@Z 1000e220 f   DarkUIUtils.obj
 0001:0000d270       ?RestoreExceptionFilter@CDebugManager@@QAEXXZ 1000e270 f   Debug.obj
 0001:0000d290       ?SaveFlags@CDebugManager@@QAEXXZ 1000e290 f   Debug.obj
 0001:0000d2d0       ?ToggleFlag@CDebugManager@@QAEXI@Z 1000e2d0 f   Debug.obj
 0001:0000d2e0       ?ClearAllFlags@CDebugManager@@QAEXXZ 1000e2e0 f   Debug.obj
 0001:0000d2f0       ?ExceptFilter@CDebugManager@@KGJPAU_EXCEPTION_POINTERS@@@Z 1000e2f0 f   Debug.obj
 0001:0000d310       ?DebugInit@@YAXXZ          1000e310 f   Debug.obj
 0001:0000d350       ?SetExceptionFilter@CDebugManager@@QAEXXZ 1000e350 f   Debug.obj
 0001:0000d370       ?Difficulty_OnMeleeAttack@@YAXXZ 1000e370 f   Difficulty.obj
 0001:0000d3a0       ?Difficulty_GetAIAwarenessDelay@@YGHPAUIProperty@@HPAPAUsAIAwareDelay@@@Z 1000e3a0 f   Difficulty.obj
 0001:0000d440       ?Difficulty_SetAIAwarenessDelay@@YGHPAUIProperty@@HPAUsAIAwareDelay@@@Z 1000e440 f   Difficulty.obj
 0001:0000d490       ?AddRef@CDPWrapper@@UAGKXZ 1000e490 f   DP4Wrapper.obj
 0001:0000d4c0       ?Release@CDPWrapper@@UAGKXZ 1000e4c0 f   DP4Wrapper.obj
 0001:0000d4f0       ?QueryInterface@CDPWrapper@@UAGJABU_GUID@@PAPAX@Z 1000e4f0 f   DP4Wrapper.obj
 0001:0000d510       ?AddGroupToGroup@CDPWrapper@@UAGJKK@Z 1000e510 f   DP4Wrapper.obj
 0001:0000d530       ?AddPlayerToGroup@CDPWrapper@@UAGJKK@Z 1000e530 f   DP4Wrapper.obj
 0001:0000d550       ?CancelMessage@CDPWrapper@@UAGJKK@Z 1000e550 f   DP4Wrapper.obj
 0001:0000d570       ?CancelPriority@CDPWrapper@@UAGJKKK@Z 1000e570 f   DP4Wrapper.obj
 0001:0000d590       ?Close@CDPWrapper@@UAGJXZ  1000e590 f   DP4Wrapper.obj
 0001:0000d5c0       ?CreateGroup@CDPWrapper@@UAGJPAKPAUDPNAME@@PAXKK@Z 1000e5c0 f   DP4Wrapper.obj
 0001:0000d5e0       ?CreateGroupInGroup@CDPWrapper@@UAGJKPAKPAUDPNAME@@PAXKK@Z 1000e5e0 f   DP4Wrapper.obj
 0001:0000d600       ?CreatePlayer@CDPWrapper@@UAGJPAKPAUDPNAME@@PAX2KK@Z 1000e600 f   DP4Wrapper.obj
 0001:0000d6a0       ?DeleteGroupFromGroup@CDPWrapper@@UAGJKK@Z 1000e6a0 f   DP4Wrapper.obj
 0001:0000d6c0       ?DeletePlayerFromGroup@CDPWrapper@@UAGJKK@Z 1000e6c0 f   DP4Wrapper.obj
 0001:0000d6e0       ?DestroyGroup@CDPWrapper@@UAGJK@Z 1000e6e0 f   DP4Wrapper.obj
 0001:0000d700       ?DestroyPlayer@CDPWrapper@@UAGJK@Z 1000e700 f   DP4Wrapper.obj
 0001:0000d710       ?EnumConnections@CDPWrapper@@UAGJPBU_GUID@@P6GH0PAXKPBUDPNAME@@K1@Z1K@Z 1000e710 f   DP4Wrapper.obj
 0001:0000d730       ?EnumGroupPlayers@CDPWrapper@@UAGJKPAU_GUID@@P6GHKKPBUDPNAME@@KPAX@Z2K@Z 1000e730 f   DP4Wrapper.obj
 0001:0000d750       ?EnumGroups@CDPWrapper@@UAGJPAU_GUID@@P6GHKKPBUDPNAME@@KPAX@Z2K@Z 1000e750 f   DP4Wrapper.obj
 0001:0000d770       ?EnumGroupsInGroup@CDPWrapper@@UAGJKPAU_GUID@@P6GHKKPBUDPNAME@@KPAX@Z2K@Z 1000e770 f   DP4Wrapper.obj
 0001:0000d790       ?EnumPlayers@CDPWrapper@@UAGJPAU_GUID@@P6GHKKPBUDPNAME@@KPAX@Z2K@Z 1000e790 f   DP4Wrapper.obj
 0001:0000d920       ?EnumSessions@CDPWrapper@@UAGJPAUDPSESSIONDESC2@@KP6GHPBU2@PAKKPAX@Z3K@Z 1000e920 f   DP4Wrapper.obj
 0001:0000d930       ?GetCaps@CDPWrapper@@UAGJPAUDPCAPS@@K@Z 1000e930 f   DP4Wrapper.obj
 0001:0000d950       ?GetGroupConnectionSettings@CDPWrapper@@UAGJKKPAXPAK@Z 1000e950 f   DP4Wrapper.obj
 0001:0000d970       ?GetGroupData@CDPWrapper@@UAGJKPAXPAKK@Z 1000e970 f   DP4Wrapper.obj
 0001:0000d990       ?GetGroupFlags@CDPWrapper@@UAGJKPAK@Z 1000e990 f   DP4Wrapper.obj
 0001:0000d9b0       ?GetGroupName@CDPWrapper@@UAGJKPAXPAK@Z 1000e9b0 f   DP4Wrapper.obj
 0001:0000d9d0       ?GetGroupOwner@CDPWrapper@@UAGJKPAK@Z 1000e9d0 f   DP4Wrapper.obj
 0001:0000d9f0       ?GetGroupParent@CDPWrapper@@UAGJKPAK@Z 1000e9f0 f   DP4Wrapper.obj
 0001:0000da10       ?GetMessageCount@CDPWrapper@@UAGJKPAK@Z 1000ea10 f   DP4Wrapper.obj
 0001:0000da30       ?GetMessageQueue@CDPWrapper@@UAGJKKKPAK0@Z 1000ea30 f   DP4Wrapper.obj
 0001:0000da50       ?GetPlayerAccount@CDPWrapper@@UAGJKKPAXPAK@Z 1000ea50 f   DP4Wrapper.obj
 0001:0000da70       ?GetPlayerAddress@CDPWrapper@@UAGJKPAXPAK@Z 1000ea70 f   DP4Wrapper.obj
 0001:0000da80       ?GetPlayerCaps@CDPWrapper@@UAGJKPAUDPCAPS@@K@Z 1000ea80 f   DP4Wrapper.obj
 0001:0000daa0       ?GetPlayerFlags@CDPWrapper@@UAGJKPAK@Z 1000eaa0 f   DP4Wrapper.obj
 0001:0000dac0       ?GetPlayerName@CDPWrapper@@UAGJKPAXPAK@Z 1000eac0 f   DP4Wrapper.obj
 0001:0000dae0       ?GetSessionDesc@CDPWrapper@@UAGJPAXPAK@Z 1000eae0 f   DP4Wrapper.obj
 0001:0000db00       ?Initialize@CDPWrapper@@UAGJPAU_GUID@@@Z 1000eb00 f   DP4Wrapper.obj
 0001:0000db20       ?InitializeConnection@CDPWrapper@@UAGJPAXK@Z 1000eb20 f   DP4Wrapper.obj
 0001:0000db30       ?Open@CDPWrapper@@UAGJPAUDPSESSIONDESC2@@K@Z 1000eb30 f   DP4Wrapper.obj
 0001:0000dbe0       ?SecureOpen@CDPWrapper@@UAGJPBUDPSESSIONDESC2@@KPBUDPSECURITYDESC@@PBUDPCREDENTIALS@@@Z 1000ebe0 f   DP4Wrapper.obj
 0001:0000dc00       ?Send@CDPWrapper@@UAGJKKKPAXK@Z 1000ec00 f   DP4Wrapper.obj
 0001:0000dc20       ?SendChatMessage@CDPWrapper@@UAGJKKKPAUDPCHAT@@@Z 1000ec20 f   DP4Wrapper.obj
 0001:0000dc40       ?SendEx@CDPWrapper@@UAGJKKKPAXKKK0PAK@Z 1000ec40 f   DP4Wrapper.obj
 0001:0000dc70       ?SetGroupConnectionSettings@CDPWrapper@@UAGJKKPAUDPLCONNECTION@@@Z 1000ec70 f   DP4Wrapper.obj
 0001:0000dc90       ?SetGroupData@CDPWrapper@@UAGJKPAXKK@Z 1000ec90 f   DP4Wrapper.obj
 0001:0000dcb0       ?SetGroupName@CDPWrapper@@UAGJKPAUDPNAME@@K@Z 1000ecb0 f   DP4Wrapper.obj
 0001:0000dcd0       ?SetGroupOwner@CDPWrapper@@UAGJKK@Z 1000ecd0 f   DP4Wrapper.obj
 0001:0000dcf0       ?SetPlayerName@CDPWrapper@@UAGJKPAUDPNAME@@K@Z 1000ecf0 f   DP4Wrapper.obj
 0001:0000dd10       ?SetSessionDesc@CDPWrapper@@UAGJPAUDPSESSIONDESC2@@K@Z 1000ed10 f   DP4Wrapper.obj
 0001:0000dd30       ?StartSession@CDPWrapper@@UAGJKK@Z 1000ed30 f   DP4Wrapper.obj
 0001:0000dd50       ?WrapperTerm@@YAXXZ        1000ed50 f   DP4Wrapper.obj
 0001:0000dd70       ?Receive@CDPWrapper@@UAGJPAK0KPAX0@Z 1000ed70 f   DP4Wrapper.obj
 0001:0000deb0       ?FakeCoCreateInstance@@YGJABU_GUID@@PAUIUnknown@@K0PAPAX@Z 1000eeb0 f   DP4Wrapper.obj
 0001:0000df40       ?GetPlayerData@CDPWrapper@@UAGJKPAXPAKK@Z 1000ef40 f   DP4Wrapper.obj
 0001:0000dfd0       ?SetPlayerData@CDPWrapper@@UAGJKPAXKK@Z 1000efd0 f   DP4Wrapper.obj
 0001:0000e070       ?DoResize@cDABaseSrvFns@@SAHPAPAXII@Z 1000f070 f   DynArray.obj
 0001:0000e0f0       ?CollisionResolverHook@@YGXPBUtSpringInfo@@K@Z 1000f0f0 f   ErrorHanding.obj
 0001:0000e170       ?ObjectAnglesFuncHook@@YAXH@Z 1000f170 f   ErrorHanding.obj
 0001:0000e1a0       ?LoopSampleCallbackHook@@YAXKH@Z 1000f1a0 f   ErrorHanding.obj
 0001:0000e230       ?PropSndEnterCBHook@@YIHPAVcPropSndInstHigh@@HPBVcRoom@@PBVcRoomPortal@@ABUmxs_vector@@M@Z 1000f230 f   ErrorHanding.obj
 0001:0000e2f0       ?SpeechEndCallbackHook@@YAXHHH@Z 1000f2f0 f   ErrorHanding.obj
 0001:0000e390       ?mx_sub_vec_safe@@YAXPAUmxs_vector@@PBU1@1@Z 1000f390 f   ErrorHanding.obj
 0001:0000e3f0       ?mx_dist_vec_safe@@YAMPAUmxs_vector@@0@Z 1000f3f0 f   ErrorHanding.obj
 0001:0000e460       ?CellBinComputeFuncHook@@YAHHKK@Z 1000f460 f   ErrorHanding.obj
 0001:0000e4a0       ?OnCollideEvent@@YGHHHHMPAVcPhysClsn@@@Z 1000f4a0 f   ErrorHanding.obj
 0001:0000e520       ?ValidateScriptModules@@YAXXZ 1000f520 f   FileHash.obj
 0001:0000e5b0       ?GetGamesysCrc@CGamesysManager@@QAEKXZ 1000f5b0 f   Gamesys.obj
 0001:0000e5c0       ?EventHandler@CGamesysManager@@UAEXHPAX@Z 1000f5c0 f   Gamesys.obj
 0001:0000e5f0       ?GamesysInit@@YAXXZ        1000f5f0 f   Gamesys.obj
 0001:0000e600       ?GamesysTerm@@YAXXZ        1000f600 f   Gamesys.obj
 0001:0000e610       ?Clear@?$SimpleQueue@D@@QAEXXZ 1000f610 f i ConsoleGUI.obj
 0001:0000e610       ?Clear@?$SimpleQueue@H@@QAEXXZ 1000f610 f i Gamesys.obj
 0001:0000e610       ?Clear@?$SimpleQueue@UNetMessage@@@@QAEXXZ 1000f610 f i DarkPeer.obj
 0001:0000e650       ?CacheArchetype@CGamesysManager@@QAEXAAHPBD@Z 1000f650 f   Gamesys.obj
 0001:0000e6c0       ?CreateNewArchetype@CGamesysManager@@QAEHHPBD@Z 1000f6c0 f   Gamesys.obj
 0001:0000e750       ?AvatarWeaponsTerm@CGamesysManager@@QAEXXZ 1000f750 f   Gamesys.obj
 0001:0000e7e0       ?FakeLootInit@CGamesysManager@@QAEXXZ 1000f7e0 f   Gamesys.obj
 0001:0000e850       ?CreateBaseAvatar@CGamesysManager@@QAEXXZ 1000f850 f   Gamesys.obj
 0001:0000ea10       ?CreateDerivedAvatars@CGamesysManager@@QAEXXZ 1000fa10 f   Gamesys.obj
 0001:0000ea90       ??1?$SimpleQueue@D@@QAE@XZ 1000fa90 f i ConsoleGUI.obj
 0001:0000ea90       ??1?$SimpleQueue@UNetMessage@@@@QAE@XZ 1000fa90 f i DarkPeer.obj
 0001:0000ea90       ??1?$SimpleQueue@H@@QAE@XZ 1000fa90 f i Gamesys.obj
 0001:0000eaa0       ?_Lrotate@?$_Tree@V?$_Tmap_traits@HHU?$less@H@std@@V?$allocator@U?$pair@$$CBHH@std@@@2@$0A@@std@@@std@@IAEXPAU_Node@?$_Tree_nod@V?$_Tmap_traits@HHU?$less@H@std@@V?$allocator@U?$pair@$$CBHH@std@@@2@$0A@@std@@@2@@Z 1000faa0 f i Gamesys.obj
 0001:0000eaa0       ?_Lrotate@?$_Tree@V?$_Tmap_traits@KPAUDP4Data@@U?$less@K@std@@V?$allocator@U?$pair@$$CBKPAUDP4Data@@@std@@@3@$0A@@std@@@std@@IAEXPAU_Node@?$_Tree_nod@V?$_Tmap_traits@KPAUDP4Data@@U?$less@K@std@@V?$allocator@U?$pair@$$CBKPAUDP4Data@@@std@@@3@$0A@@std@@@2@@Z 1000faa0 f i DarkPeer.obj
 0001:0000eaf0       ?_Rrotate@?$_Tree@V?$_Tmap_traits@HHU?$less@H@std@@V?$allocator@U?$pair@$$CBHH@std@@@2@$0A@@std@@@std@@IAEXPAU_Node@?$_Tree_nod@V?$_Tmap_traits@HHU?$less@H@std@@V?$allocator@U?$pair@$$CBHH@std@@@2@$0A@@std@@@2@@Z 1000faf0 f i Gamesys.obj
 0001:0000eaf0       ?_Rrotate@?$_Tree@V?$_Tmap_traits@KPAUDP4Data@@U?$less@K@std@@V?$allocator@U?$pair@$$CBKPAUDP4Data@@@std@@@3@$0A@@std@@@std@@IAEXPAU_Node@?$_Tree_nod@V?$_Tmap_traits@KPAUDP4Data@@U?$less@K@std@@V?$allocator@U?$pair@$$CBKPAUDP4Data@@@std@@@3@$0A@@std@@@2@@Z 1000faf0 f i DarkPeer.obj
 0001:0000eb50       ?_Inc@const_iterator@?$_Tree@V?$_Tmap_traits@KPAUDP4Data@@U?$less@K@std@@V?$allocator@U?$pair@$$CBKPAUDP4Data@@@std@@@3@$0A@@std@@@std@@QAEXXZ 1000fb50 f i DarkPeer.obj
 0001:0000eb50       ?_Inc@const_iterator@?$_Tree@V?$_Tmap_traits@HHU?$less@H@std@@V?$allocator@U?$pair@$$CBHH@std@@@2@$0A@@std@@@std@@QAEXXZ 1000fb50 f i Gamesys.obj
 0001:0000ebc0       ?AvatarWeaponsInit@CGamesysManager@@QAEXXZ 1000fbc0 f   Gamesys.obj
 0001:0000ed70       ?erase@?$_Tree@V?$_Tmap_traits@HHU?$less@H@std@@V?$allocator@U?$pair@$$CBHH@std@@@2@$0A@@std@@@std@@QAE?AViterator@12@Vconst_iterator@12@@Z 1000fd70 f i Gamesys.obj
 0001:0000ed70       ?erase@?$_Tree@V?$_Tmap_traits@KPAUDP4Data@@U?$less@K@std@@V?$allocator@U?$pair@$$CBKPAUDP4Data@@@std@@@3@$0A@@std@@@std@@QAE?AViterator@12@Vconst_iterator@12@@Z 1000fd70 f i DarkPeer.obj
 0001:0000f040       ?insert@?$_Tree@V?$_Tmap_traits@HHU?$less@H@std@@V?$allocator@U?$pair@$$CBHH@std@@@2@$0A@@std@@@std@@QAE?AU?$pair@Viterator@?$_Tree@V?$_Tmap_traits@HHU?$less@H@std@@V?$allocator@U?$pair@$$CBHH@std@@@2@$0A@@std@@@std@@_N@2@ABU?$pair@$$CBHH@2@@Z 10010040 f i Gamesys.obj
 0001:0000f130       ?erase@?$_Tree@V?$_Tmap_traits@KPAUDP4Data@@U?$less@K@std@@V?$allocator@U?$pair@$$CBKPAUDP4Data@@@std@@@3@$0A@@std@@@std@@QAE?AViterator@12@Vconst_iterator@12@0@Z 10010130 f i DarkPeer.obj
 0001:0000f130       ?erase@?$_Tree@V?$_Tmap_traits@HHU?$less@H@std@@V?$allocator@U?$pair@$$CBHH@std@@@2@$0A@@std@@@std@@QAE?AViterator@12@Vconst_iterator@12@0@Z 10010130 f i Gamesys.obj
 0001:0000f210       ?LocalToPickupProjectile@CGamesysManager@@QAEHH@Z 10010210 f   Gamesys.obj
 0001:0000f2b0       ?find@?$_Tree@V?$_Tmap_traits@HHU?$less@H@std@@V?$allocator@U?$pair@$$CBHH@std@@@2@$0A@@std@@@std@@QAE?AViterator@12@ABH@Z 100102b0 f i Gamesys.obj
 0001:0000f340       ?insert@?$_Tree@V?$_Tmap_traits@HHU?$less@H@std@@V?$allocator@U?$pair@$$CBHH@std@@@2@$0A@@std@@@std@@QAE?AViterator@12@Vconst_iterator@12@ABU?$pair@$$CBHH@2@@Z 10010340 f i Gamesys.obj
 0001:0000f520       ?PickupToLocalProjectile@CGamesysManager@@QAEHH@Z 10010520 f   Gamesys.obj
 0001:0000f590       ??A?$map@HHU?$less@H@std@@V?$allocator@U?$pair@$$CBHH@std@@@2@@std@@QAEAAHABH@Z 10010590 f i Gamesys.obj
 0001:0000f640       ??1?$_Tree@V?$_Tmap_traits@KPAUDP4Data@@U?$less@K@std@@V?$allocator@U?$pair@$$CBKPAUDP4Data@@@std@@@3@$0A@@std@@@std@@QAE@XZ 10010640 f i DarkPeer.obj
 0001:0000f640       ??1?$_Tree@V?$_Tmap_traits@HHU?$less@H@std@@V?$allocator@U?$pair@$$CBHH@std@@@2@$0A@@std@@@std@@QAE@XZ 10010640 f i Gamesys.obj
 0001:0000f6b0       ?CreateProjectilePickups@CGamesysManager@@QAEXXZ 100106b0 f   Gamesys.obj
 0001:0000f8b0       ?InitializeArchCache@CGamesysManager@@QAEXK@Z 100108b0 f   Gamesys.obj
 0001:00010070       ?GhostHeartbeatFrequencyMax@@YAHPAUsGhostLocal@@PAUsGhostPos@@@Z 10011070 f   Ghost.obj
 0001:00010080       ?IsNewPacketNeededHook@@YGHPAUsGhostLocal@@PAUsGhostPos@@@Z 10011080 f   Ghost.obj
 0001:000100f0       ?OnGhostJumpOff@@YGXH@Z    100110f0 f   Ghost.obj
 0001:00010190       ?GhostAllowedToBuildModels@@YAHPAUsGhostRemote@@@Z 10011190 f   Ghost.obj
 0001:000101d0       ?UpdateGhostPrediction@@YAXPAUsGhostRemote@@M@Z 100111d0 f   Ghost.obj
 0001:00010240       ?GhostPerFrameModeUpdate@@YA_NPAUsGhostRemote@@@Z 10011240 f   Ghost.obj
 0001:000102a0       ?MocapRunMe@@YAXPAUsGhostRemote@@PAD@Z 100112a0 f   Ghost.obj
 0001:00010300       ?_GhostConfigureRemoteModels@@YAXPAUsGhostRemote@@@Z 10011300 f   Ghost.obj
 0001:00010360       ?GhostFrameProcessRemote@@YAXPAUsGhostRemote@@M@Z 10011360 f   Ghost.obj
 0001:00010400       ?GhostAttachWeapon@@YAXHD@Z 10011400 f   Ghost.obj
 0001:000105c0       ?IsUpdateNeeded@@YA_NH@Z   100115c0 f   Ghost.obj
 0001:00010680       ?GhostFrameProcessLocal@@YAXPAUsGhostLocal@@M@Z 10011680 f   Ghost.obj
 0001:00010800       ?InitHook@@YAXXZ           10011800 f   Init.obj
 0001:00010830       ?InitGame@@YAXXZ           10011830 f   Init.obj
 0001:00010850       ?TermGame@@YAXXZ           10011850 f   Init.obj
 0001:00010870       ?ShutdownHook@@YAXXZ       10011870 f   Init.obj
 0001:00010890       ?IsSimTimePassing@@YA_NXZ  10011890 f   LG.obj
 0001:000108b0       ?ForceFinishBowAttack@@YAX_N@Z 100118b0 f   LG.obj
 0001:00010910       ?Append@cAnsiStr@@QAEXHPBD@Z 10011910 f   LG.obj
 0001:00010920       ?QueryInterface@IUnknownImpl@@EAGJABU_GUID@@PAPAX@Z 10011920 f   LG.obj
 0001:00010940       ?AddRef@IUnknownImpl@@EAGKXZ 10011940 f   LG.obj
 0001:00010950       ?Release@IUnknownImpl@@EAGKXZ 10011950 f   LG.obj
 0001:00010970       ?PlayerNum@cAvatar@@UAGKXZ 10011970 f   LG.obj
 0001:00010980       ?PlayerObjID@cAvatar@@UAGHXZ 10011980 f   LG.obj
 0001:00010990       ?WriteTagInfo@cAvatar@@UAGXPAUITagFile@@@Z 10011990 f   LG.obj
 0001:000109c0       ?DestroyArrowObject@@YAXXZ 100119c0 f   LG.obj
 0001:000109e0       ?NewUpdateBowAttack@@YGXXZ 100119e0 f   LG.obj
 0001:00010c20       ?FreeStr@cAnsiStr@@QAEXPAD@Z 10011c20 f   LG.obj
 0001:00010c40       ??0cAvatar@@QAE@HK@Z       10011c40 f   LG.obj
 0001:00010c60       ?SimulationLoopHook@@YGHKW4eLoopMsgType@@PAUtLoopMessageData__@@@Z 10011c60 f   LoopClients.obj
 0001:00010ca0       ?RenderLoopHook@@YGHKW4eLoopMsgType@@PAUtLoopMessageData__@@@Z 10011ca0 f   LoopClients.obj
 0001:00010d90       ?SimLoopClientHook@@YGHKW4eLoopMsgType@@PAUtLoopMessageData__@@@Z 10011d90 f   LoopClients.obj
 0001:00010e20       ?GameModeLoopClientHook@@YGHKW4eLoopMsgType@@PAUtLoopMessageData__@@@Z 10011e20 f   LoopClients.obj
 0001:00010e90       ?ObjSysLoopClientHook@@YGHKW4eLoopMsgType@@PAUtLoopMessageData__@@@Z 10011e90 f   LoopClients.obj
 0001:00010f10       _DllMain@12                10011f10 f   Main.obj
 0001:00010f80       ?PumpEventsHook@@YGXPAKHW4eWinPumpDuration@@@Z 10011f80 f   Main.obj
 0001:00010fc0       ??0Message@@QAE@PBDM@Z     10011fc0 f   MessageManager.obj
 0001:00011020       ?Shutdown@MessageMgr@@SAXXZ 10012020 f   MessageManager.obj
 0001:00011040       ?EnableRendering@MessageMgr@@QAEX_N@Z 10012040 f   MessageManager.obj
 0001:00011040       ?SetEnabled@DialogElement@@QAEX_N@Z 10012040 f   DialogElement.obj
 0001:00011050       ??_GMessage@@UAEPAXI@Z     10012050 f i MessageManager.obj
 0001:00011050       ??_EMessage@@UAEPAXI@Z     10012050 f i MessageManager.obj
 0001:00011080       ?DrawInput@MessageMgr@@QAEXXZ 10012080 f   MessageManager.obj
 0001:00011260       ?_Buynode@?$list@PAVHistoryItem@@V?$allocator@PAVHistoryItem@@@std@@@std@@IAEPAU_Node@?$_List_nod@PAVHistoryItem@@V?$allocator@PAVHistoryItem@@@std@@@2@XZ 10012260 f i ConsoleGUI.obj
 0001:00011260       ?_Buynode@?$list@PAVMessage@@V?$allocator@PAVMessage@@@std@@@std@@IAEPAU_Node@?$_List_nod@PAVMessage@@V?$allocator@PAVMessage@@@std@@@2@XZ 10012260 f i MessageManager.obj
 0001:00011260       ?_Buynode@?$list@PAVCServerListEntry@@V?$allocator@PAVCServerListEntry@@@std@@@std@@IAEPAU_Node@?$_List_nod@PAVCServerListEntry@@V?$allocator@PAVCServerListEntry@@@std@@@2@XZ 10012260 f i ServerBrowser.obj
 0001:00011280       ?_Tidy@?$list@PAVCServerListEntry@@V?$allocator@PAVCServerListEntry@@@std@@@std@@IAEXXZ 10012280 f i ServerBrowser.obj
 0001:00011280       ?_Tidy@?$list@PAVMessage@@V?$allocator@PAVMessage@@@std@@@std@@IAEXXZ 10012280 f i MessageManager.obj
 0001:00011280       ?_Tidy@?$list@PAVHistoryItem@@V?$allocator@PAVHistoryItem@@@std@@@std@@IAEXXZ 10012280 f i ConsoleGUI.obj
 0001:000112d0       ?front@?$list@PAVMessage@@V?$allocator@PAVMessage@@@std@@@std@@QAEAAPAVMessage@@XZ 100122d0 f i MessageManager.obj
 0001:00011300       ?ClearMessages@MessageMgr@@QAEXXZ 10012300 f   MessageManager.obj
 0001:000113a0       ??1?$list@PAVMessage@@V?$allocator@PAVMessage@@@std@@@std@@QAE@XZ 100123a0 f i MessageManager.obj
 0001:000113a0       ??1?$list@PAVHistoryItem@@V?$allocator@PAVHistoryItem@@@std@@@std@@QAE@XZ 100123a0 f i ConsoleGUI.obj
 0001:000113c0       ??1MessageMgr@@UAE@XZ      100123c0 f   MessageManager.obj
 0001:00011430       ?DeleteTopmost@MessageMgr@@IAEXXZ 10012430 f   MessageManager.obj
 0001:00011490       ?Update@MessageMgr@@QAEXXZ 10012490 f   MessageManager.obj
 0001:00011730       ??0?$list@PAVMessage@@V?$allocator@PAVMessage@@@std@@@std@@QAE@XZ 10012730 f i MessageManager.obj
 0001:00011730       ??0?$list@PAVCServerListEntry@@V?$allocator@PAVCServerListEntry@@@std@@@std@@QAE@XZ 10012730 f i ServerBrowser.obj
 0001:00011730       ??0?$list@PAVHistoryItem@@V?$allocator@PAVHistoryItem@@@std@@@std@@QAE@XZ 10012730 f i ConsoleGUI.obj
 0001:00011790       ??0MessageMgr@@QAE@XZ      10012790 f   MessageManager.obj
 0001:000117f0       ??_EMessageMgr@@UAEPAXI@Z  100127f0 f i MessageManager.obj
 0001:000117f0       ??_GMessageMgr@@UAEPAXI@Z  100127f0 f i MessageManager.obj
 0001:00011810       ?Get@MessageMgr@@SAPAV1@XZ 10012810 f   MessageManager.obj
 0001:00011880       ?AddLine@MessageMgr@@QAEX_NPBD@Z 10012880 f   MessageManager.obj
 0001:00011970       ?AddLineFormat@MessageMgr@@QAAX_NPBDZZ 10012970 f   MessageManager.obj
 0001:000119c0       ?PatchPropDescs@@YAXXZ     100129c0 f   NetProperties.obj
 0001:00011a20       ?NetPropertiesInit@@YAXXZ  10012a20 f   NetProperties.obj
 0001:00011a40       ?NetPropertiesTerm@@YAXXZ  10012a40 f   NetProperties.obj
 0001:00011a50       ?GetNetworkedReaction@@YAPAUNetworkableReactionInfo@@K@Z 10012a50 f   NetReactions.obj
 0001:00011aa0       ?PostReactionMessage@@YAXKPAUsReactionEvent@@PAUsReactionParam@@@Z 10012aa0 f   NetReactions.obj
 0001:00011b90       ?FilterFrobObjectReactionHandler@@YGKPAUsReactionEvent@@PBUsReactionParam@@PAX@Z 10012b90 f   NetReactions.obj
 0001:00011c20       ?FilterKnockoutReaction@@YG_NKPAUsReactionEvent@@PBUsReactionParam@@PAX@Z 10012c20 f   NetReactions.obj
 0001:00011cf0       ?PatchVtable@@YAXHZZ       10012cf0 f   Patcher.obj
 0001:00011d10       ?InstallCallbacks@@YAXXZ   10012d10 f   Patcher.obj
 0001:00011eb0       ?PatcherInit@@YAXXZ        10012eb0 f   Patcher.obj
 0001:00011f00       ?PlayerCreateHook@@YAXHH@Z 10012f00 f   Player.obj
 0001:00011f10       ?ThrowCreatureHook@@YAXHHMKKKK@Z 10012f10 f   Player.obj
 0001:00011f60       ?SendSetWeapon@@YAXH@Z     10012f60 f   Player.obj
 0001:00011ff0       ?EquipBowHook@@YGXHHH@Z    10012ff0 f   Player.obj
 0001:00012020       ?UnEquipBowHook@@YGXH@Z    10013020 f   Player.obj
 0001:00012070       ?LaunchProjectileHook@@YAHHHMKKKK@Z 10013070 f   Player.obj
 0001:00012160       ?ForceActivateLoadoutCache@@YAXH@Z 10013160 f   Player.obj
 0001:000121d0       ?MPPlayerCreate@@YAXXZ     100131d0 f   Player.obj
 0001:000124a0       ?SendLoadMsg@SaveManager@@QAEXXZ 100134a0 f   SaveManager.obj
 0001:000124d0       ?SendSaveMsg@SaveManager@@QAEXH@Z 100134d0 f   SaveManager.obj
 0001:00012510       ?SetLastSlot@SaveManager@@QAEXH@Z 10013510 f   SaveManager.obj
 0001:00012520       ?DoNetworkLoad@SaveManager@@QAEXH@Z 10013520 f   SaveManager.obj
 0001:000125d0       ?EventHandler@SaveManager@@UAEXHPAX@Z 100135d0 f   SaveManager.obj
 0001:00012600       ?SaveManagerTerm@@YAXXZ    10013600 f   SaveManager.obj
 0001:00012620       ??_ESaveManager@@UAEPAXI@Z 10013620 f i SaveManager.obj
 0001:00012620       ??_GSaveManager@@UAEPAXI@Z 10013620 f i SaveManager.obj
 0001:00012650       ?DoNetworkSave@SaveManager@@QAEXH@Z 10013650 f   SaveManager.obj
 0001:00012850       ?OnLoadRemoteGhosts@SaveManager@@IAEXPAVTagFileRead@@K@Z 10013850 f   SaveManager.obj
 0001:000128d0       ?OnSaveRemoteGhosts@SaveManager@@IAEXPAVTagFileWrite@@K@Z 100138d0 f   SaveManager.obj
 0001:00012b00       ?HookQuickSave@SaveManager@@SGXXZ 10013b00 f   SaveManager.obj
 0001:00012b60       ?HookQuickLoad@SaveManager@@SGXXZ 10013b60 f   SaveManager.obj
 0001:00012ba0       ?HookLoadRemoteGhosts@SaveManager@@SGXPAVTagFileRead@@K@Z 10013ba0 f   SaveManager.obj
 0001:00012bb0       ?HookSaveRemoteGhosts@SaveManager@@SAXPAVTagFileWrite@@K@Z 10013bb0 f   SaveManager.obj
 0001:00012bd0       ?SaveManagerInit@@YAXXZ    10013bd0 f   SaveManager.obj
 0001:00012c50       ?SchemaPlayAtObj@@YAXHH@Z  10013c50 f   Sound.obj
 0001:00012ca0       ?SchemaIDPlay@@YAPAUsSchemaPlay@@HPAUsSchemaCallParams@@PAX@Z 10013ca0 f   Sound.obj
 0001:00012dc0       ?NetSchemaPlaySample@@YAPAUsSchemaPlay@@HHPAUsSchemaCallParams@@PAX@Z 10013dc0 f   Sound.obj
 0001:00012eb0       ?DoEquipSound@@YAXPAUsGhostRemote@@@Z 10013eb0 f   Sound.obj
 0001:00012f40       ?DoUnequipSound@@YAXPAUsGhostRemote@@@Z 10013f40 f   Sound.obj
 0001:00012fd0       ?OnGenerateSoundVec@@YGHPAUmxs_vector@@HHPADMPAUsfx_parm@@HH@Z 10013fd0 f   Sound.obj
 0001:00013090       ?OnGenerateSoundObj@@YGHHHPADMPAUsfx_parm@@HH@Z 10014090 f   Sound.obj
 0001:00013150       ?OnGenerateSound@@YGHHPADPAUsfx_parm@@@Z 10014150 f   Sound.obj
 0001:00013200       ?OnSpeechHalt@@YAXH@Z      10014200 f   Sound.obj
 0001:00013320       ?SpeechBroadcast@@YAXAAVCNetMsg_AiSpeech@@@Z 10014320 f   SpeechNet.obj
 0001:00013350       ?GetAIVoice@@YAHH@Z        10014350 f   SpeechNet.obj
 0001:000133d0       ?PrintSpeechDebug@@YAXHHHHPBULabel@@_N@Z 100143d0 f   SpeechNet.obj
 0001:00013430       ?SpeechNetHandler@@YAXH_NPBUsSchemaCallParams@@@Z 10014430 f   SpeechNet.obj
 0001:00013550       ?LogPrintCallback@@YAXPAX@Z 10014550 f   Tools.obj
 0001:00013560       ?DebugStringHook@@YGXPBD@Z 10014560 f   Tools.obj
 0001:00013570       ?DPlayErrorToString@@YAPBDJ@Z 10014570 f   Tools.obj
 0001:00013760       ?MissionNumToMap@@YAHH@Z   10014760 f   Tools.obj
 0001:00013780       ?GetNumChainedEvents@@YAHPAUsChainedEvent@@@Z 10014780 f   Tools.obj
 0001:000137a0       ?PrintEventChain@@YAXPAUsChainedEvent@@@Z 100147a0 f   Tools.obj
 0001:000137f0       ?GetScreenMode@@YA?AUsScreenMode@@XZ 100147f0 f   Tools.obj
 0001:00013810       ?GetScreenRect@@YA?AURect@@XZ 10014810 f   Tools.obj
 0001:00013850       ?TimeString@@YA?AVNString@@H@Z 10014850 f   Tools.obj
 0001:00013920       ?SetFrobHandler@@YAXHW4eFrobHandler@@@Z 10014920 f   Tools.obj
 0001:00013940       ?SummonObject@@YAHH@Z      10014940 f   Tools.obj
 0001:000139b0       ?GetMissionName@@YA_NHPADH@Z 100149b0 f   Tools.obj
 0001:00013a60       ?PhysModelFromObj@@YAPAVcPhysModel@@H@Z 10014a60 f   Tools.obj
 0001:00013aa0       ?ObjHasScript@@YA_NHPBD@Z  10014aa0 f   Tools.obj
 0001:00013b00       ?ProxyFrobGetInverse@@YAHH@Z 10014b00 f   Tools.obj
 0001:00013b90       ?GetMissionName@@YA?AVcAnsiStr@@H@Z 10014b90 f   Tools.obj
 0001:00013c30       ?GS_OnReceive@@YAXPAUIGSClient@@PAEK@Z 10014c30 f   GlobalServer.obj
 0001:00013ce0       ?GS_OnConnectionLost@@YAXPAUIGSClient@@@Z 10014ce0 f   GlobalServer.obj
 0001:00013d00       ?GS_OnConnectComplete@@YAXPAUIGSClient@@W4ConnectResult@1@@Z 10014d00 f   GlobalServer.obj
 0001:00013d20       ?GetServers@CServerList@@QAEAAV?$list@PAVCServerListEntry@@V?$allocator@PAVCServerListEntry@@@std@@@std@@XZ 10014d20 f   GlobalServer.obj
 0001:00013d30       ?GS_SendHeartbeat@@YAXPAUIGSClient@@@Z 10014d30 f   GlobalServer.obj
 0001:00013e60       ?Marshal@Msg_DarkHeartbeat@@QAEXPAVCMarshalBuffer@@@Z 10014e60 f   Msg_Dark.obj
 0001:00013ed0       ?Unmarshal@Msg_DarkServerInfo@@QAEXPAVCMarshalBuffer@@@Z 10014ed0 f   Msg_Dark.obj
 0001:00013f40       ?ConnectToGlobal@CServerBrowser@@QAEXXZ 10014f40 f   ServerBrowser.obj
 0001:00013fc0       ?BrowserTerm@@YAXXZ        10014fc0 f   ServerBrowser.obj
 0001:00013fe0       ?HandlePingResponse@CServerBrowser@@UAEXPAX@Z 10014fe0 f   ServerBrowser.obj
 0001:00014100       ?UpdateServerCount@CServerBrowser@@QAEXXZ 10015100 f   ServerBrowser.obj
 0001:00014180       ?HandleRemoveServer@CServerBrowser@@UAEXPAXK@Z 10015180 f   ServerBrowser.obj
 0001:00014230       ?OnSelectItem@CServerBrowser@@IAEXXZ 10015230 f   ServerBrowser.obj
 0001:000142d0       ?ConnectToSelectedServer@CServerBrowser@@QAEXXZ 100152d0 f   ServerBrowser.obj
 0001:00014380       ?OnRefreshList@CServerBrowser@@IAEXXZ 10015380 f   ServerBrowser.obj
 0001:00014430       ?OnStateChange@CServerBrowser@@UAEXW4ConnState@IGSClient@@@Z 10015430 f   ServerBrowser.obj
 0001:00014540       ?HandleServerInfo@CServerBrowser@@UAEXPAXK@Z 10015540 f   ServerBrowser.obj
 0001:000146b0       ?OnDoubleClickItem@CServerBrowser@@IAEXXZ 100156b0 f   ServerBrowser.obj
 0001:00014720       ?DialogProc@CServerBrowser@@QAGHPAUHWND__@@IIJ@Z 10015720 f   ServerBrowser.obj
 0001:000147f0       ?StaticDialogProc@CServerBrowser@@SGHPAUHWND__@@IIJ@Z 100157f0 f   ServerBrowser.obj
 0001:00014820       ?CreateBrowserWindow@CServerBrowser@@QAE_NH@Z 10015820 f   ServerBrowser.obj
 0001:00014880       ?UpdatePings@CServerBrowser@@IAEXXZ 10015880 f   ServerBrowser.obj
 0001:00014970       ??1CServerList@@UAE@XZ     10015970 f i ServerBrowser.obj
 0001:00014990       ??_GCServerList@@UAEPAXI@Z 10015990 f i ServerBrowser.obj
 0001:00014990       ??_ECServerList@@UAEPAXI@Z 10015990 f i ServerBrowser.obj
 0001:000149d0       ??1CServerBrowser@@UAE@XZ  100159d0 f   ServerBrowser.obj
 0001:00014a60       ?Update@CServerBrowser@@QAEXXZ 10015a60 f   ServerBrowser.obj
 0001:00014a90       ??0CServerBrowser@@QAE@XZ  10015a90 f   ServerBrowser.obj
 0001:00014bd0       ??_GCServerBrowser@@UAEPAXI@Z 10015bd0 f i ServerBrowser.obj
 0001:00014bd0       ??_ECServerBrowser@@UAEPAXI@Z 10015bd0 f i ServerBrowser.obj
 0001:00014bf0       ??0CServerListEntry@@QAE@PBD00GGEE@Z 10015bf0 f   ServerList.obj
 0001:00014c70       ??_ECServerListEntry@@UAEPAXI@Z 10015c70 f i ServerList.obj
 0001:00014c70       ??_GCServerListEntry@@UAEPAXI@Z 10015c70 f i ServerList.obj
 0001:00014c90       ?UpdateListedServerData@CServerList@@QAEXPAVCServerListEntry@@@Z 10015c90 f   ServerList.obj
 0001:00014dc0       ?InitializeControls@CServerList@@QAEXPAUHWND__@@@Z 10015dc0 f   ServerList.obj
 0001:00014f10       ?GetLocalID@CDarkPeer@@UAEKXZ 10015f10 f   DarkPeer.obj
 0001:00014f10       ?GetCount@CServerList@@QAEIXZ 10015f10 f   ServerList.obj
 0001:00014f20       ?_Incsize@?$list@PAVCServerListEntry@@V?$allocator@PAVCServerListEntry@@@std@@@std@@IAEXI@Z 10015f20 f i ServerList.obj
 0001:00014f20       ?_Incsize@?$list@PAVHistoryItem@@V?$allocator@PAVHistoryItem@@@std@@@std@@IAEXI@Z 10015f20 f i ConsoleGUI.obj
 0001:00014f20       ?_Incsize@?$list@PAVMessage@@V?$allocator@PAVMessage@@@std@@@std@@IAEXI@Z 10015f20 f i MessageManager.obj
 0001:00014fc0       ?AddServer@CServerList@@QAEPAVCServerListEntry@@PBD00GGEE@Z 10015fc0 f   ServerList.obj
 0001:000150a0       ?FindServerFromIP@CServerList@@QAEPAVCServerListEntry@@PBD@Z 100160a0 f   ServerList.obj
 0001:00015130       ?DeleteAll@CServerList@@QAEXXZ 10016130 f   ServerList.obj
 0001:000151d0       ?erase@?$list@PAVHistoryItem@@V?$allocator@PAVHistoryItem@@@std@@@std@@QAE?AV?$_Iterator@$00@12@V?$_Const_iterator@$00@12@@Z 100161d0 f i ConsoleGUI.obj
 0001:000151d0       ?erase@?$list@PAVCServerListEntry@@V?$allocator@PAVCServerListEntry@@@std@@@std@@QAE?AV?$_Iterator@$00@12@V?$_Const_iterator@$00@12@@Z 100161d0 f i ServerList.obj
 0001:000151d0       ?erase@?$list@PAVMessage@@V?$allocator@PAVMessage@@@std@@@std@@QAE?AV?$_Iterator@$00@12@V?$_Const_iterator@$00@12@@Z 100161d0 f i MessageManager.obj
 0001:00015250       ?RemoveServer@CServerList@@QAEXPAVCServerListEntry@@@Z 10016250 f   ServerList.obj
 0001:00015310       ?FixupImports@@YAXXZ       10016310 f   Imports.obj
 0001:00015340       ?HookVictoryCheckOnSlain@@YGXPAUsScrMsg@@PAVcMultiParm@@@Z 10016340 f   ScriptHooks.obj
 0001:00015350       ?ApplyGenPatches@@YAXXZ    10016350 f   ScriptHooks.obj
 0001:00015390       ?IsScriptModule@@YA_NPBD0@Z 10016390 f   ScriptHooks.obj
 0001:000153f0       ?SendMessageA@HookScriptMan@@YGJKPAUsScrMsg@@PAUsMultiParm@@@Z 100163f0 f   ScriptHooks.obj
 0001:00015440       ?HookStdElevatorReceiveMessage@@YGXPAVStdElevatorScript@@PAUsScrMsg@@PAVcMultiParm@@W4eScrTraceAction@@@Z 10016440 f   ScriptHooks.obj
 0001:00015520       ?HookContainerReceiveMessage@@YGXPAUIRootScript@@PAUsScrMsg@@PAVcMultiParm@@W4eScrTraceAction@@@Z 10016520 f   ScriptHooks.obj
 0001:000155d0       ?HookLockSoundsReceiveMessage@@YGXPAUIRootScript@@PAUsScrMsg@@PAVcMultiParm@@W4eScrTraceAction@@@Z 100165d0 f   ScriptHooks.obj
 0001:00015760       ?HookStdBookReceiveMessage@@YGXPAUIRootScript@@PAUsScrMsg@@PAVcMultiParm@@W4eScrTraceAction@@@Z 10016760 f   ScriptHooks.obj
 0001:00015850       ?HookStdKeyReceiveMessage@@YGXPAUIRootScript@@PAUsScrMsg@@PAVcMultiParm@@W4eScrTraceAction@@@Z 10016850 f   ScriptHooks.obj
 0001:000159b0       ?HookArrowReceiveMessage@@YGXPAUIRootScript@@PAUsScrMsg@@PAVcMultiParm@@W4eScrTraceAction@@@Z 100169b0 f   ScriptHooks.obj
 0001:00015b10       ?HookCollisionStickReceiveMessage@@YGXPAVCollisionStickScript@@PAUsScrMsg@@PAVcMultiParm@@W4eScrTraceAction@@@Z 10016b10 f   ScriptHooks.obj
 0001:00015d10       ?AddModule@HookScriptMan@@YGJKPBD@Z 10016d10 f   ScriptHooks.obj
 0001:00015da0       ?WorldFrobbableReceiveMessage@@YGXPAUIRootScript@@PAUsScrMsg@@PAVcMultiParm@@W4eScrTraceAction@@@Z 10016da0 f   ScriptHooks.obj
 0001:00015ee0       ?FindString@StringHashTable@@QAE?AW4StringHashID@@PBD@Z 10016ee0 f   StringHashTable.obj
 0001:00015f20       ?StringHashInit@@YAXXZ     10016f20 f   StringHashTable.obj
 0001:00015fb0       ?StringHashTerm@@YAXXZ     10016fb0 f   StringHashTable.obj
 0001:00015fd0       ?FreePCX@@YAXAAPAUIRes@@@Z 10016fd0 f   DarkOverlay.obj
 0001:00016000       ?DrawByHandle@@YAXPAUIRes@@AAUPoint@@@Z 10017000 f   DarkOverlay.obj
 0001:00016040       ??1DarkOverlayManager@@UAE@XZ 10017040 f   DarkOverlay.obj
 0001:00016090       ?FindByName@DarkOverlayManager@@QAEPAUIDarkOverlay@@PBD@Z 10017090 f   DarkOverlay.obj
 0001:000160e0       ?OverlayEnabled@DarkOverlayManager@@QAE_NPBD@Z 100170e0 f   DarkOverlay.obj
 0001:00016100       ?InitAll@DarkOverlayManager@@QAEXXZ 10017100 f   DarkOverlay.obj
 0001:00016130       ?DrawAll@DarkOverlayManager@@QAEXXZ 10017130 f   DarkOverlay.obj
 0001:00016170       ?DisableAll@DarkOverlayManager@@QAEXXZ 10017170 f   DarkOverlay.obj
 0001:000161a0       ?AnyEnabled@DarkOverlayManager@@QAE_NXZ 100171a0 f   DarkOverlay.obj
 0001:000161d0       ?TermAll@DarkOverlayManager@@QAEXXZ 100171d0 f   DarkOverlay.obj
 0001:00016200       ?SetEnable@DarkOverlay@@UAEX_N@Z 10017200 f   DarkOverlay.obj
 0001:00016230       ?IsEnabled@DarkOverlay@@UAE_NXZ 10017230 f   DarkOverlay.obj
 0001:00016240       ?GetID@DarkOverlay@@UAEKXZ 10017240 f   DarkOverlay.obj
 0001:00016250       ?CenterRect@DarkOverlay@@IAEXAAURect@@0@Z 10017250 f   DarkOverlay.obj
 0001:000162c0       ?Init@DarkOverlay@@UAE_NXZ 100172c0 f   DarkOverlay.obj
 0001:000162f0       ?OnAddTimeClicked@PlayersOverlay@@SAXPAVDialogElement@@UPoint@@@Z 100172f0 f   DarkOverlay.obj
 0001:00016330       ?Init@BookOverlay@@UAE_NXZ 10017330 f   DarkOverlay.obj
 0001:00016380       ?OnLeftClick@BookOverlay@@UAEXUPoint@@@Z 10017380 f   DarkOverlay.obj
 0001:000163f0       ?SetupPages@BookOverlay@@QAEXXZ 100173f0 f   DarkOverlay.obj
 0001:000164b0       ?IsStagingMode@@YA_NXZ     100174b0 f   DarkOverlay.obj
 0001:000164d0       ?OverlayTerm@@YAXXZ        100174d0 f   DarkOverlay.obj
 0001:000164f0       ?_Xlen@?$vector@PAVDialogElement@@V?$allocator@PAVDialogElement@@@std@@@std@@KAXXZ 100174f0 f i DarkOverlay.obj
 0001:00016570       ??$_Allocate@PAVDialogElement@@@std@@YAPAPAVDialogElement@@IPAPAV1@@Z 10017570 f i DarkOverlay.obj
 0001:000165d0       ?LoadPCX@@YAPAUIRes@@PBD0_N@Z 100175d0 f   DarkOverlay.obj
 0001:000166a0       ?Draw@DarkOverlay@@UAEXXZ  100176a0 f   DarkOverlay.obj
 0001:00016720       ??_EDarkOverlayManager@@UAEPAXI@Z 10017720 f i DarkOverlay.obj
 0001:00016720       ??_GDarkOverlayManager@@UAEPAXI@Z 10017720 f i DarkOverlay.obj
 0001:00016740       ?EnableOverlay@DarkOverlayManager@@QAEXPBD_N@Z 10017740 f   DarkOverlay.obj
 0001:000167a0       ?ToggleOverlay@DarkOverlayManager@@QAEXPBD@Z 100177a0 f   DarkOverlay.obj
 0001:00016800       ?EnableMouseMode@DarkOverlayManager@@QAEX_N@Z 10017800 f   DarkOverlay.obj
 0001:000168c0       ?DrawCursor@DarkOverlayManager@@QAEXXZ 100178c0 f   DarkOverlay.obj
 0001:00016920       ?HandleClick@DarkOverlayManager@@QAE_NXZ 10017920 f   DarkOverlay.obj
 0001:000169a0       ?OnLeftClick@PlayersOverlay@@UAEXUPoint@@@Z 100179a0 f   DarkOverlay.obj
 0001:00016a00       ?UpdatePlayers@PlayersOverlay@@QAEXXZ 10017a00 f   DarkOverlay.obj
 0001:00016be0       ?SetEnable@PlayersOverlay@@UAEX_N@Z 10017be0 f   DarkOverlay.obj
 0001:00016cb0       ?OnKickPlayerClicked@PlayersOverlay@@SAXPAVDialogElement@@UPoint@@@Z 10017cb0 f   DarkOverlay.obj
 0001:00016d10       ?LoadMapImage@MapOverlay@@QAEXXZ 10017d10 f   DarkOverlay.obj
 0001:00016d70       ?Draw@BookOverlay@@UAEXXZ  10017d70 f   DarkOverlay.obj
 0001:00017050       ?SetEnable@BookOverlay@@UAEX_N@Z 10018050 f   DarkOverlay.obj
 0001:00017050       ?SetEnable@SimOverlay@@UAEX_N@Z 10018050 f   DarkOverlay.obj
 0001:000170b0       ?DestroyBook@BookOverlay@@QAEXXZ 100180b0 f   DarkOverlay.obj
 0001:00017180       ?LoadBook@BookOverlay@@QAEXPBD0@Z 10018180 f   DarkOverlay.obj
 0001:000174b0       ?Init@SimOverlay@@UAE_NXZ  100184b0 f   DarkOverlay.obj
 0001:00017570       ?Draw@SimOverlay@@UAEXXZ   10018570 f   DarkOverlay.obj
 0001:00017740       ?Init@ObjectivesOverlay@@UAE_NXZ 10018740 f   DarkOverlay.obj
 0001:000179b0       ?DrawGoalStatus@ObjectivesOverlay@@IAEXHPAUgrs_font@@H@Z 100189b0 f   DarkOverlay.obj
 0001:00017aa0       ?DisplayFits@ObjectivesOverlay@@IAE_NABURect@@PAUgrs_font@@@Z 10018aa0 f   DarkOverlay.obj
 0001:00017bd0       ?Draw@ObjectivesOverlay@@UAEXXZ 10018bd0 f   DarkOverlay.obj
 0001:00017ee0       ?SetEnable@ObjectivesOverlay@@UAEX_N@Z 10018ee0 f   DarkOverlay.obj
 0001:00017f50       ?Draw@StagingOverlay@@UAEXXZ 10018f50 f   DarkOverlay.obj
 0001:00017fc0       ?UpdateSettings@StagingOverlay@@IAEXXZ 10018fc0 f   DarkOverlay.obj
 0001:00018220       ?SetEnable@StagingOverlay@@UAEX_N@Z 10019220 f   DarkOverlay.obj
 0001:00018270       ?OnLeftClick@StagingOverlay@@UAEXUPoint@@@Z 10019270 f   DarkOverlay.obj
 0001:00018280       ?StagingClose@@YAXXZ       10019280 f   DarkOverlay.obj
 0001:000182d0       ?OnFrame@DarkOverlayManager@@QAEXXZ 100192d0 f   DarkOverlay.obj
 0001:000182e0       ?Draw@PlayersOverlay@@UAEXXZ 100192e0 f   DarkOverlay.obj
 0001:00018320       ?Init@MapOverlay@@UAE_NXZ  10019320 f   DarkOverlay.obj
 0001:000183c0       ?OnLeftClick@MapOverlay@@UAEXUPoint@@@Z 100193c0 f   DarkOverlay.obj
 0001:00018410       ?OnReadBook@@YGJKPBD0@Z    10019410 f   DarkOverlay.obj
 0001:000184f0       ?OnLoadMission@StagingOverlay@@SAXPAVDialogElement@@UPoint@@@Z 100194f0 f   DarkOverlay.obj
 0001:00018520       ?OnQuit@StagingOverlay@@SAXPAVDialogElement@@UPoint@@@Z 10019520 f   DarkOverlay.obj
 0001:00018590       ??1?$_List_val@PAVMessage@@V?$allocator@PAVMessage@@@std@@@std@@QAE@XZ 10019590 f i MessageManager.obj
 0001:00018590       ??1?$_List_val@PAVHistoryItem@@V?$allocator@PAVHistoryItem@@@std@@@std@@QAE@XZ 10019590 f i ConsoleGUI.obj
 0001:00018590       ??1?$_Vector_val@PAVDialogElement@@V?$allocator@PAVDialogElement@@@std@@@std@@QAE@XZ 10019590 f i DarkOverlay.obj
 0001:00018590       ??1?$_Tree_val@V?$_Tmap_traits@HHU?$less@H@std@@V?$allocator@U?$pair@$$CBHH@std@@@2@$0A@@std@@@std@@QAE@XZ 10019590 f i Gamesys.obj
 0001:00018590       ??1?$_List_val@PAVCServerListEntry@@V?$allocator@PAVCServerListEntry@@@std@@@std@@QAE@XZ 10019590 f i ServerBrowser.obj
 0001:00018590       ??1?$_Tree_val@V?$_Tmap_traits@KPAUDP4Data@@U?$less@K@std@@V?$allocator@U?$pair@$$CBKPAUDP4Data@@@std@@@3@$0A@@std@@@std@@QAE@XZ 10019590 f i DarkPeer.obj
 0001:000185a0       ??$fill@PAPAVDialogElement@@PAV1@@std@@YAXPAPAVDialogElement@@0ABQAV1@@Z 100195a0 f i DarkOverlay.obj
 0001:000185c0       ??$_Unchecked_move_backward@PAPAVDialogElement@@PAPAV1@@stdext@@YAPAPAVDialogElement@@PAPAV1@00@Z 100195c0 f i DarkOverlay.obj
 0001:000185f0       ?SetEnable@MapOverlay@@UAEX_N@Z 100195f0 f   DarkOverlay.obj
 0001:00018680       ?Draw@MapOverlay@@UAEXXZ   10019680 f   DarkOverlay.obj
 0001:000188b0       ??1?$vector@PAVDialogElement@@V?$allocator@PAVDialogElement@@@std@@@std@@QAE@XZ 100198b0 f i DarkOverlay.obj
 0001:000188f0       ??$_Umove@PAPAVDialogElement@@@?$vector@PAVDialogElement@@V?$allocator@PAVDialogElement@@@std@@@std@@IAEPAPAVDialogElement@@PAPAV2@00@Z 100198f0 f i DarkOverlay.obj
 0001:00018930       ??1DarkOverlay@@UAE@XZ     10019930 f i DarkOverlay.obj
 0001:00018970       ?GetListView@CServerList@@QAEPAVCEListView@EngCtrls@@XZ 10019970 f i ServerList.obj
 0001:00018970       ?GetName@DarkOverlay@@UAEPBDXZ 10019970 f i DarkOverlay.obj
 0001:00018980       ?OnLeftClick@DarkOverlay@@UAEXUPoint@@@Z 10019980 f i DarkOverlay.obj
 0001:00018980       ?OnCharacter@CConsoleBase@@UAEXI@Z 10019980 f i ConsoleGUI.obj
 0001:00018990       ?GetDrawingArea@DarkOverlay@@UAEABURect@@XZ 10019990 f i DarkOverlay.obj
 0001:000189a0       ??0DarkOverlay@@QAE@PBD@Z  100199a0 f   DarkOverlay.obj
 0001:00018a40       ??0MapOverlay@@QAE@PBD@Z   10019a40 f   DarkOverlay.obj
 0001:00018ab0       ??1MapOverlay@@UAE@XZ      10019ab0 f   DarkOverlay.obj
 0001:00018b30       ??1BookOverlay@@UAE@XZ     10019b30 f   DarkOverlay.obj
 0001:00018bb0       ??0SimOverlay@@QAE@PBD@Z   10019bb0 f   DarkOverlay.obj
 0001:00018c20       ??0ObjectivesOverlay@@QAE@PBD@Z 10019c20 f   DarkOverlay.obj
 0001:00018ca0       ??1ObjectivesOverlay@@UAE@XZ 10019ca0 f   DarkOverlay.obj
 0001:00018d20       ?erase@?$vector@PAVDialogElement@@V?$allocator@PAVDialogElement@@@std@@@std@@QAE?AV?$_Vector_iterator@PAVDialogElement@@V?$allocator@PAVDialogElement@@@std@@@2@V?$_Vector_const_iterator@PAVDialogElement@@V?$allocator@PAVDialogElement@@@std@@@2@0@Z 10019d20 f i DarkOverlay.obj
 0001:00018db0       ?_Ufill@?$vector@PAVDialogElement@@V?$allocator@PAVDialogElement@@@std@@@std@@IAEPAPAVDialogElement@@PAPAV3@IABQAV3@@Z 10019db0 f i DarkOverlay.obj
 0001:00018de0       ?_Insert_n@?$vector@PAVDialogElement@@V?$allocator@PAVDialogElement@@@std@@@std@@IAEXV?$_Vector_const_iterator@PAVDialogElement@@V?$allocator@PAVDialogElement@@@std@@@2@IABQAVDialogElement@@@Z 10019de0 f i DarkOverlay.obj
 0001:00018f60       ??0DarkOverlayManager@@QAE@XZ 10019f60 f   DarkOverlay.obj
 0001:00019270       ??_EMapOverlay@@UAEPAXI@Z  1001a270 f i DarkOverlay.obj
 0001:00019270       ??_GMapOverlay@@UAEPAXI@Z  1001a270 f i DarkOverlay.obj
 0001:00019290       ??_GBookOverlay@@UAEPAXI@Z 1001a290 f i DarkOverlay.obj
 0001:00019290       ??_EBookOverlay@@UAEPAXI@Z 1001a290 f i DarkOverlay.obj
 0001:000192b0       ??_GObjectivesOverlay@@UAEPAXI@Z 1001a2b0 f i DarkOverlay.obj
 0001:000192b0       ??_EObjectivesOverlay@@UAEPAXI@Z 1001a2b0 f i DarkOverlay.obj
 0001:000192d0       ??_GStagingOverlay@@UAEPAXI@Z 1001a2d0 f i DarkOverlay.obj
 0001:000192d0       ??_EStagingOverlay@@UAEPAXI@Z 1001a2d0 f i DarkOverlay.obj
 0001:000192d0       ??_EDarkOverlay@@UAEPAXI@Z 1001a2d0 f i DarkOverlay.obj
 0001:000192d0       ??_GDarkOverlay@@UAEPAXI@Z 1001a2d0 f i DarkOverlay.obj
 0001:000192d0       ??_EPlayersOverlay@@UAEPAXI@Z 1001a2d0 f i DarkOverlay.obj
 0001:000192d0       ??_GPlayersOverlay@@UAEPAXI@Z 1001a2d0 f i DarkOverlay.obj
 0001:00019320       ?OverlayInit@@YAXXZ        1001a320 f   DarkOverlay.obj
 0001:00019380       ?insert@?$vector@PAVDialogElement@@V?$allocator@PAVDialogElement@@@std@@@std@@QAE?AV?$_Vector_iterator@PAVDialogElement@@V?$allocator@PAVDialogElement@@@std@@@2@V?$_Vector_const_iterator@PAVDialogElement@@V?$allocator@PAVDialogElement@@@std@@@2@ABQAVDialogElement@@@Z 1001a380 f i DarkOverlay.obj
 0001:00019440       ?Term@DarkOverlay@@UAE_NXZ 1001a440 f   DarkOverlay.obj
 0001:000194f0       ?Term@MapOverlay@@UAE_NXZ  1001a4f0 f   DarkOverlay.obj
 0001:00019530       ?Term@BookOverlay@@UAE_NXZ 1001a530 f   DarkOverlay.obj
 0001:00019560       ?Term@SimOverlay@@UAE_NXZ  1001a560 f   DarkOverlay.obj
 0001:000195c0       ?Term@ObjectivesOverlay@@UAE_NXZ 1001a5c0 f   DarkOverlay.obj
 0001:00019630       ?push_back@?$vector@PAVDialogElement@@V?$allocator@PAVDialogElement@@@std@@@std@@QAEXABQAVDialogElement@@@Z 1001a630 f i DarkOverlay.obj
 0001:000196a0       ?AddText@DarkOverlay@@QAEPAVElement_Text@@PBDMMKKPAUgrs_font@@@Z 1001a6a0 f   DarkOverlay.obj
 0001:00019730       ?AddImage@DarkOverlay@@QAEPAVElement_Image@@PBD0MMKP6AXPAVDialogElement@@UPoint@@@Z@Z 1001a730 f   DarkOverlay.obj
 0001:000197c0       ?AddButton@DarkOverlay@@QAEPAVElement_Button@@PBDMMKKPAUgrs_font@@P6AXPAVDialogElement@@UPoint@@@Z@Z 1001a7c0 f   DarkOverlay.obj
 0001:00019860       ?Init@PlayersOverlay@@UAE_NXZ 1001a860 f   DarkOverlay.obj
 0001:00019c10       ??1SimOverlay@@UAE@XZ      1001ac10 f   DarkOverlay.obj
 0001:00019ca0       ?Init@StagingOverlay@@UAE_NXZ 1001aca0 f   DarkOverlay.obj
 0001:0001a220       ??_ESimOverlay@@UAEPAXI@Z  1001b220 f i DarkOverlay.obj
 0001:0001a220       ??_GSimOverlay@@UAEPAXI@Z  1001b220 f i DarkOverlay.obj
 0001:0001a240       ??1DialogElement@@UAE@XZ   1001b240 f   DialogElement.obj
 0001:0001a260       ??_GDialogElement@@UAEPAXI@Z 1001b260 f i DialogElement.obj
 0001:0001a260       ??_EDialogElement@@UAEPAXI@Z 1001b260 f i DialogElement.obj
 0001:0001a290       ?GetData@DialogElement@@UAEPAXXZ 1001b290 f   DialogElement.obj
 0001:0001a2a0       ?SetData@DialogElement@@UAEXPAX@Z 1001b2a0 f   DialogElement.obj
 0001:0001a2b0       ?GetParent@DialogElement@@UAEPAUIDarkOverlay@@XZ 1001b2b0 f   DialogElement.obj
 0001:0001a2c0       ??1Element_Text@@UAE@XZ    1001b2c0 f   DialogElement.obj
 0001:0001a320       ?GetType@Element_Text@@UAEKXZ 1001b320 f i DialogElement.obj
 0001:0001a330       ?SetText@Element_Text@@QAEXPBD@Z 1001b330 f   DialogElement.obj
 0001:0001a340       ??1Element_Image@@UAE@XZ   1001b340 f   DialogElement.obj
 0001:0001a3b0       ?GetType@Element_Image@@UAEKXZ 1001b3b0 f i DialogElement.obj
 0001:0001a3c0       ?HandleClick@DialogElement@@UAE_NUPoint@@@Z 1001b3c0 f   DialogElement.obj
 0001:0001a480       ??_EElement_Text@@UAEPAXI@Z 1001b480 f i DialogElement.obj
 0001:0001a480       ??_GElement_Button@@UAEPAXI@Z 1001b480 f i DialogElement.obj
 0001:0001a480       ??_GElement_Text@@UAEPAXI@Z 1001b480 f i DialogElement.obj
 0001:0001a480       ??_EElement_Button@@UAEPAXI@Z 1001b480 f i DialogElement.obj
 0001:0001a4a0       ?GetTextWidth@Element_Text@@QAEMXZ 1001b4a0 f   DialogElement.obj
 0001:0001a4f0       ?Draw@Element_Text@@UAEXXZ 1001b4f0 f   DialogElement.obj
 0001:0001a520       ??0Element_Image@@QAE@PAUIDarkOverlay@@PBD1MMKP6AXPAVDialogElement@@UPoint@@@Z@Z 1001b520 f   DialogElement.obj
 0001:0001a6b0       ??_GElement_Image@@UAEPAXI@Z 1001b6b0 f i DialogElement.obj
 0001:0001a6b0       ??_EElement_Image@@UAEPAXI@Z 1001b6b0 f i DialogElement.obj
 0001:0001a6d0       ?Draw@Element_Image@@UAEXXZ 1001b6d0 f   DialogElement.obj
 0001:0001a720       ??0Element_Text@@QAE@PAUIDarkOverlay@@PBDMMKKPAUgrs_font@@@Z 1001b720 f   DialogElement.obj
 0001:0001a8d0       ??0Element_Button@@QAE@PAUIDarkOverlay@@PBDMMKKPAUgrs_font@@P6AXPAVDialogElement@@UPoint@@@Z@Z 1001b8d0 f   DialogElement.obj
 0001:0001a920       ?GetType@Element_Button@@UAEKXZ 1001b920 f i DialogElement.obj
 0001:0001a930       ?SetStr@ConfigVar@@QAEXPBD@Z 1001b930 f i Engine:ConfigManager.obj
 0001:0001a980       ?CreateIntVar@ConfigManager@@IAEPAVConfigVar@@PBD@Z 1001b980 f i Engine:ConfigManager.obj
 0001:0001aa00       ?CreateFloatVar@ConfigManager@@IAEPAVConfigVar@@PBD@Z 1001ba00 f i Engine:ConfigManager.obj
 0001:0001aa60       ?CreateStringVar@ConfigManager@@IAEPAVConfigVar@@PBD@Z 1001ba60 f i Engine:ConfigManager.obj
 0001:0001aac0       ?SetIniFile@ConfigManager@@QAEXPBD@Z 1001bac0 f   Engine:ConfigManager.obj
 0001:0001ab60       ?clear@?$list@PAVConfigVar@@V?$allocator@PAVConfigVar@@@std@@@std@@QAEXXZ 1001bb60 f i Engine:ConfigManager.obj
 0001:0001aba0       ?_Buynode@?$list@PAVConfigVar@@V?$allocator@PAVConfigVar@@@std@@@std@@IAEPAU_Node@?$_List_nod@PAVConfigVar@@V?$allocator@PAVConfigVar@@@std@@@2@XZ 1001bba0 f i Engine:ConfigManager.obj
 0001:0001abc0       ?_Buynode@?$list@PAVConfigVar@@V?$allocator@PAVConfigVar@@@std@@@std@@IAEPAU_Node@?$_List_nod@PAVConfigVar@@V?$allocator@PAVConfigVar@@@std@@@2@PAU342@0ABQAVConfigVar@@@Z 1001bbc0 f i Engine:ConfigManager.obj
 0001:0001abf0       ?_Incsize@?$list@PAVConfigVar@@V?$allocator@PAVConfigVar@@@std@@@std@@IAEXI@Z 1001bbf0 f i Engine:ConfigManager.obj
 0001:0001ac90       ?ClearVariables@ConfigManager@@QAEXXZ 1001bc90 f   Engine:ConfigManager.obj
 0001:0001ad00       ??1ConfigManager@@UAE@XZ   1001bd00 f   Engine:ConfigManager.obj
 0001:0001ad50       ??0ConfigManager@@QAE@XZ   1001bd50 f   Engine:ConfigManager.obj
 0001:0001ad80       ??_GConfigManager@@UAEPAXI@Z 1001bd80 f i Engine:ConfigManager.obj
 0001:0001ad80       ??_EConfigManager@@UAEPAXI@Z 1001bd80 f i Engine:ConfigManager.obj
 0001:0001ada0       ?GetInt@ConfigManager@@QAEHPBD@Z 1001bda0 f   Engine:ConfigManager.obj
 0001:0001ada0       ?GetString@ConfigManager@@QAEPBDPBD@Z 1001bda0 f   Engine:ConfigManager.obj
 0001:0001ade0       ?GetFloat@ConfigManager@@QAEMPBD@Z 1001bde0 f   Engine:ConfigManager.obj
 0001:0001ae30       ?GetBool@ConfigManager@@QAE_NPBD@Z 1001be30 f   Engine:ConfigManager.obj
 0001:0001ae50       ?SetInt@ConfigManager@@QAEXPBDH@Z 1001be50 f   Engine:ConfigManager.obj
 0001:0001aee0       ?SetFloat@ConfigManager@@QAEXPBDM@Z 1001bee0 f   Engine:ConfigManager.obj
 0001:0001af70       ?SetString@ConfigManager@@QAEXPBD0@Z 1001bf70 f   Engine:ConfigManager.obj
 0001:0001b000       ??0Logger@@QAE@XZ          1001c000 f   Engine:Logger.obj
 0001:0001b020       ?Open@Logger@@QAE_NPBD_N@Z 1001c020 f   Engine:Logger.obj
 0001:0001b060       ?PrintFile@Logger@@SAXPBD0ZZ 1001c060 f   Engine:Logger.obj
 0001:0001b100       ?EnableTimestamps@Logger@@QAEX_N@Z 1001c100 f   Engine:Logger.obj
 0001:0001b110       ?SetLogCallback@Logger@@QAEXP6AXPAX@Z@Z 1001c110 f   Engine:Logger.obj
 0001:0001b120       ?PrintPrefix@Logger@@IAEXW4LogPrefix@@@Z 1001c120 f   Engine:Logger.obj
 0001:0001b1b0       ??1Logger@@QAE@XZ          1001c1b0 f   Engine:Logger.obj
 0001:0001b1d0       ?DoPrint@Logger@@IAEXW4LogPrefix@@PBD@Z 1001c1d0 f   Engine:Logger.obj
 0001:0001b270       ?Print@Logger@@QAAXPBDZZ   1001c270 f   Engine:Logger.obj
 0001:0001b2b0       ?atobool@@YA_NPBD@Z        1001c2b0 f   Engine:Utilities.obj
 0001:0001b300       ?GetParam@@YA?AV?$basic_string@DU?$char_traits@D@std@@V?$allocator@D@2@@std@@V12@DI@Z 1001c300 f   Engine:Utilities.obj
 0001:0001b400       ?AnsiToWide@@YAXPAGPBDH@Z  1001c400 f   Engine:Utilities.obj
 0001:0001b450       ?WideToAnsi@@YAXPADPBGH@Z  1001c450 f   Engine:Utilities.obj
 0001:0001b4a0       ?StringEnd@@YAPBDPADH@Z    1001c4a0 f   Engine:Utilities.obj
 0001:0001b4f0       ?safe_strcpy@@YAXPADPBDH@Z 1001c4f0 f   Engine:Utilities.obj
 0001:0001b520       ?safe_snprintf@@YAXPADHPBDZZ 1001c520 f   Engine:Utilities.obj
 0001:0001b550       ?FileExists@Utils@@YA_NPBD@Z 1001c550 f   Engine:Utilities.obj
 0001:0001b580       ??ANString@@QAEAADH@Z      1001c580 f   Engine:NString.obj
 0001:0001b590       ?Allocate@NString@@IAEXH@Z 1001c590 f   Engine:NString.obj
 0001:0001b5e0       ?Format@NString@@QAAXPBDZZ 1001c5e0 f   Engine:NString.obj
 0001:0001b6a0       ??1NString@@QAE@XZ         1001c6a0 f   Engine:NString.obj
 0001:0001b6c0       ?Assign@NString@@QAEXPBD@Z 1001c6c0 f   Engine:NString.obj
 0001:0001b710       ??0NString@@QAE@XZ         1001c710 f   Engine:NString.obj
 0001:0001b730       ??0NString@@QAE@PBG@Z      1001c730 f   Engine:NString.obj
 0001:0001b7b0       ??4NString@@QAEABV0@PBD@Z  1001c7b0 f   Engine:NString.obj
 0001:0001b7d0       ??4NString@@QAEABV0@ABV0@@Z 1001c7d0 f   Engine:NString.obj
 0001:0001b810       ??$fill@PAVEventListener@@V1@@std@@YAXPAVEventListener@@0ABV1@@Z 1001c810 f i Engine:EventManager.obj
 0001:0001b840       ?_Xlen@?$vector@VEventListener@@V?$allocator@VEventListener@@@std@@@std@@IBEXXZ 1001c840 f i Engine:EventManager.obj
 0001:0001b8c0       ??$copy_backward@PAVEventListener@@PAV1@@std@@YAPAVEventListener@@PAV1@00@Z 1001c8c0 f i Engine:EventManager.obj
 0001:0001b8f0       ??$_Uninit_copy@PAVEventListener@@PAV1@V?$allocator@VEventListener@@@std@@@std@@YAPAVEventListener@@PAV1@00AAV?$allocator@VEventListener@@@0@U_Nonscalar_ptr_iterator_tag@0@@Z 1001c8f0 f i Engine:EventManager.obj
 0001:0001b920       ??$_Uninit_fill_n@PAVEventListener@@IV1@V?$allocator@VEventListener@@@std@@@std@@YAXPAVEventListener@@IABV1@AAV?$allocator@VEventListener@@@0@U_Nonscalar_ptr_iterator_tag@0@@Z 1001c920 f i Engine:EventManager.obj
 0001:0001b950       ?Broadcast@EventManager@@SAXHPAX@Z 1001c950 f   Engine:EventManager.obj
 0001:0001b990       ?_Ufill@?$vector@VEventListener@@V?$allocator@VEventListener@@@std@@@std@@IAEPAVEventListener@@PAV3@IABV3@@Z 1001c990 f i Engine:EventManager.obj
 0001:0001b9c0       ?_Insert_n@?$vector@VEventListener@@V?$allocator@VEventListener@@@std@@@std@@IAEXViterator@12@IABVEventListener@@@Z 1001c9c0 f i Engine:EventManager.obj
 0001:0001bc10       ?UnregisterListener@EventManager@@SA_NHPAUIEventListener@@@Z 1001cc10 f   Engine:EventManager.obj
 0001:0001bc80       ??1EventManager@@QAE@XZ    1001cc80 f i Engine:EventManager.obj
 0001:0001bcb0       ?RegisterListener@EventManager@@SA_NHPAUIEventListener@@@Z 1001ccb0 f   Engine:EventManager.obj
 0001:0001bd60       ?Initialize@EventManager@@SAXXZ 1001cd60 f   Engine:EventManager.obj
 0001:0001bdd0       ?Shutdown@EventManager@@SAXXZ 1001cdd0 f   Engine:EventManager.obj
 0001:0001be00       ?SafeWrite@@YAXPAX0H@Z     1001ce00 f   Engine:MemPatch.obj
 0001:0001be40       ?SafeWriteData@@YAXPAX_JH@Z 1001ce40 f   Engine:MemPatch.obj
 0001:0001be80       ?SafeRead@@YAXPAX0H@Z      1001ce80 f   Engine:MemPatch.obj
 0001:0001bed0       ?InstallCallback@@YAXKKW4CallbackType@@HH@Z 1001ced0 f   Engine:MemPatch.obj
 0001:0001bf90       ?WritePtr@MemPatcher@@SAXPAUPtrPatchList@@PAUHINSTANCE__@@K@Z 1001cf90 f   Engine:MemPatch.obj
 0001:0001c0b0       ?RestorePtr@MemPatcher@@SAXPAUPtrPatchList@@@Z 1001d0b0 f   Engine:MemPatch.obj
 0001:0001c100       ?WriteRaw@MemPatcher@@SAXPAURawPatchList@@PAUHINSTANCE__@@K@Z 1001d100 f   Engine:MemPatch.obj
 0001:0001c1e0       ?RestoreRaw@MemPatcher@@SAXPAURawPatchList@@@Z 1001d1e0 f   Engine:MemPatch.obj
 0001:0001c230       ?WritePtr@MemPatcher@@SAXPAUPtrPatchList@@@Z 1001d230 f   Engine:MemPatch.obj
 0001:0001c250       ??0CMarshalBuffer@@QAE@XZ  1001d250 f   Engine:MarshalBuffer.obj
 0001:0001c260       ?CopyVoid@CMarshalBuffer@@QAEXPBXH@Z 1001d260 f   Engine:MarshalBuffer.obj
 0001:0001c2a0       ?CopyString@CMarshalBuffer@@QAEXPBDH@Z 1001d2a0 f   Engine:MarshalBuffer.obj
 0001:0001c2f0       ?GetVoid@CMarshalBuffer@@QAEXPAXH@Z 1001d2f0 f   Engine:MarshalBuffer.obj
 0001:0001c320       ?GetInt@CMarshalBuffer@@QAEHXZ 1001d320 f   Engine:MarshalBuffer.obj
 0001:0001c330       ?GetByte@CMarshalBuffer@@QAEEXZ 1001d330 f   Engine:MarshalBuffer.obj
 0001:0001c340       ?GetWord@CMarshalBuffer@@QAEGXZ 1001d340 f   Engine:MarshalBuffer.obj
 0001:0001c350       ?GetStartBuffer@CMarshalBuffer@@QAEPAEXZ 1001d350 f   Engine:MarshalBuffer.obj
 0001:0001c360       ?GetString@CMarshalBuffer@@QAEXPADH@Z 1001d360 f   Engine:MarshalBuffer.obj
 0001:0001c3a0       ?GetBytesWritten@CMarshalBuffer@@QAEHXZ 1001d3a0 f   Engine:MarshalBuffer.obj
 0001:0001c3b0       ?SetBuffer@CMarshalBuffer@@QAEXPAEH@Z 1001d3b0 f   Engine:MarshalBuffer.obj
 0001:0001c3d0       ?UseDefaultBuffer@CMarshalBuffer@@QAEXXZ 1001d3d0 f   Engine:MarshalBuffer.obj
 0001:0001c3f0       ?SkipBytes@CMarshalBuffer@@QAEXH@Z 1001d3f0 f   Engine:MarshalBuffer.obj
 0001:0001c400       ?CopyByte@CMarshalBuffer@@QAEXE@Z 1001d400 f   Engine:MarshalBuffer.obj
 0001:0001c420       ?CopyWord@CMarshalBuffer@@QAEXG@Z 1001d420 f   Engine:MarshalBuffer.obj
 0001:0001c440       ?CopyInt@CMarshalBuffer@@QAEXH@Z 1001d440 f   Engine:MarshalBuffer.obj
 0001:0001c460       ?Init@CEControl@EngCtrls@@UAE_NPAUHWND__@@H@Z 1001d460 f   Engine:WinClasses.obj
 0001:0001c490       ?AddString@CEListBox@EngCtrls@@QAEHPBD@Z 1001d490 f   Engine:WinClasses.obj
 0001:0001c4f0       ?GetItemData@CEListView@EngCtrls@@QAEJH@Z 1001d4f0 f   Engine:WinClasses.obj
 0001:0001c560       ?InsertColumn@CEListView@EngCtrls@@QAEXHPAD@Z 1001d560 f   Engine:WinClasses.obj
 0001:0001c5a0       ?InsertColumn@CEListView@EngCtrls@@QAEXHPADH@Z 1001d5a0 f   Engine:WinClasses.obj
 0001:0001c5e0       ?InsertItem@CEListView@EngCtrls@@QAEHHPADJ@Z 1001d5e0 f   Engine:WinClasses.obj
 0001:0001c640       ?SetColumnWidth@CEListView@EngCtrls@@QAEXHH@Z 1001d640 f   Engine:WinClasses.obj
 0001:0001c660       ?SetItemText@CEListView@EngCtrls@@QAEXHHPAD@Z 1001d660 f   Engine:WinClasses.obj
 0001:0001c6a0       ?CaretToEnd@CEEditBox@EngCtrls@@QAEXXZ 1001d6a0 f   Engine:WinClasses.obj
 0001:0001c6c0       ?AppendString@CEEditBox@EngCtrls@@UAEXPBD@Z 1001d6c0 f   Engine:WinClasses.obj
 0001:0001c7b0       ?SetMaxLines@CEEditBox@EngCtrls@@QAEXH@Z 1001d7b0 f   Engine:WinClasses.obj
 0001:0001c7c0       ?GetCheck@CEButton@EngCtrls@@QAEJXZ 1001d7c0 f   Engine:WinClasses.obj
 0001:0001c7e0       ?IsChecked@CEButton@EngCtrls@@QAE_NXZ 1001d7e0 f   Engine:WinClasses.obj
 0001:0001c800       ?SetCheck@CEButton@EngCtrls@@QAEX_N@Z 1001d800 f   Engine:WinClasses.obj
 0001:0001c820       ?AddString@CEComboBox@EngCtrls@@QAEHPBD@Z 1001d820 f   Engine:WinClasses.obj
 0001:0001c840       ?AddString@CEComboBox@EngCtrls@@QAEHPBDJ@Z 1001d840 f   Engine:WinClasses.obj
 0001:0001c880       ?GetText@CEComboBox@EngCtrls@@QAEHPADH@Z 1001d880 f   Engine:WinClasses.obj
 0001:0001c8a0       ?GetCurSel@CEComboBox@EngCtrls@@QAEHXZ 1001d8a0 f   Engine:WinClasses.obj
 0001:0001c8c0       ?SetCurSel@CEComboBox@EngCtrls@@QAEHH@Z 1001d8c0 f   Engine:WinClasses.obj
 0001:0001c8e0       ?GetItemData@CEComboBox@EngCtrls@@QAEJH@Z 1001d8e0 f   Engine:WinClasses.obj
 0001:0001c900       ?SetItemData@CEComboBox@EngCtrls@@QAEHHJ@Z 1001d900 f   Engine:WinClasses.obj
 0001:0001c920       ?SetFile@IniFile@@QAE_NPBD@Z 1001d920 f   Engine:IniFile.obj
 0001:0001c950       ?WriteString@IniFile@@QAE_NPBD00@Z 1001d950 f   Engine:IniFile.obj
 0001:0001c980       ?WriteInt@IniFile@@QAE_NPBD0H@Z 1001d980 f   Engine:IniFile.obj
 0001:0001c9e0       ??0IniFile@@QAE@PBD@Z      1001d9e0 f   Engine:IniFile.obj
 0001:0001ca10       ?GetDouble@IniFile@@QAENPBD0N_N@Z 1001da10 f   Engine:IniFile.obj
 0001:0001ca90       ?GetInt@IniFile@@QAEHPBD0H_N@Z 1001da90 f   Engine:IniFile.obj
 0001:0001cb10       ?GetString@IniFile@@QAEPBDPBD0H0_N@Z 1001db10 f   Engine:IniFile.obj
 0001:0001cb80       ?GetFloat@IniFile@@QAEMPBD0M_N@Z 1001db80 f   Engine:IniFile.obj
 0001:0001cbb0       ?GetBool@IniFile@@QAE_NPBD0_N1@Z 1001dbb0 f   Engine:IniFile.obj
 0001:0001cc70       ?LastErrorToString@@YA?AV?$basic_string@DU?$char_traits@D@std@@V?$allocator@D@2@@std@@XZ 1001dc70 f   Engine:EngError.obj
 0001:0001ccc0       ?ErrorMessageBox@@YAXPBD@Z 1001dcc0 f   Engine:EngError.obj
 0001:0001cd50       ?ErrorExit@@YAXPBD@Z       1001dd50 f   Engine:EngError.obj
 0001:0001cd70       ?Init@Timing@@YAXXZ        1001dd70 f   Engine:Timing.obj
 0001:0001cd90       ?GetTimeMS@Timing@@YA_JXZ  1001dd90 f   Engine:Timing.obj
 0001:0001ce00       ?Reset@Delta@Timing@@QAEXXZ 1001de00 f   Engine:Timing.obj
 0001:0001ce50       ?Calculate@Delta@Timing@@QAEX_N@Z 1001de50 f   Engine:Timing.obj
 0001:0001cfb0       ?Get@Delta@Timing@@QAEMXZ  1001dfb0 f   Engine:Timing.obj
 0001:0001cfc0       ?GetElapsedTime@Delta@Timing@@QAEMXZ 1001dfc0 f   Engine:Timing.obj
 0001:0001cfd0       ?GetNumFrames@Delta@Timing@@QAEHXZ 1001dfd0 f   Engine:Timing.obj
 0001:0001cfe0       ?GenerateHash@Crc32@@YAKPBXI@Z 1001dfe0 f i Engine:Crc32.obj
 0001:0001d040       ?CreateID@Crc32@@YAKPBD@Z  1001e040 f   Engine:Crc32.obj
 0001:0001d0c0       ?ScanFile@Crc32@@YAKPBD@Z  1001e0c0 f   Engine:Crc32.obj
 0001:0001d1b0       ?ScanFilePart@Crc32@@YAKPBDKK@Z 1001e1b0 f   Engine:Crc32.obj
 0001:0001d590       ?RecordExceptionInfo@@YGJPAU_EXCEPTION_POINTERS@@@Z 1001e590 f   Engine:ExceptionHandler.obj
 0001:0001d9e0       ?GS_CreateDP8Client@@YAPAUIGSClient@@XZ 1001e9e0 f   GSClient_r:GSClient.obj
 0001:0001d9f0       ?GS_DestroyClient@@YAXAAPAUIGSClient@@@Z 1001e9f0 f   GSClient_r:GSClient.obj
 0001:0001da10       ___CxxFrameHandler3        1001ea10 f   MSVCRT:MSVCR90.dll
 0001:0001da16       ??3@YAXPAX@Z               1001ea16 f   MSVCRT:MSVCR90.dll
 0001:0001da1c       ??2@YAPAXI@Z               1001ea1c f   MSVCRT:MSVCR90.dll
 0001:0001da22       ??_Etype_info@@UAEPAXI@Z   1001ea22 f i MSVCRT:ti_inst.obj
 0001:0001da6e       ?what@exception@std@@UBEPBDXZ 1001ea6e f   MSVCRT:MSVCR90.dll
 0001:0001da74       __purecall                 1001ea74 f   MSVCRT:MSVCR90.dll
 0001:0001da7a       ??_U@YAPAXI@Z              1001ea7a f   MSVCRT:MSVCR90.dll
 0001:0001da80       _memset                    1001ea80 f   MSVCRT:MSVCR90.dll
 0001:0001da86       __CxxThrowException@8      1001ea86 f   MSVCRT:MSVCR90.dll
 0001:0001da8c       ??0exception@@QAE@ABV0@@Z  1001ea8c f   MSVCRT:MSVCR90.dll
 0001:0001da8c       ??0exception@std@@QAE@ABV01@@Z 1001ea8c f   MSVCRT:MSVCR90.dll
 0001:0001da92       ??_V@YAXPAX@Z              1001ea92 f   MSVCRT:MSVCR90.dll
 0001:0001da98       _memcpy                    1001ea98 f   MSVCRT:MSVCR90.dll
 0001:0001da9e       __onexit                   1001ea9e f   MSVCRT:atonexit.obj
 0001:0001db43       _atexit                    1001eb43 f   MSVCRT:atonexit.obj
 0001:0001db5a       ?__ArrayUnwind@@YGXPAXIHP6EX0@Z@Z 1001eb5a f   MSVCRT:ehvecdtr.obj
 0001:0001dbb8       ??_M@YGXPAXIHP6EX0@Z@Z     1001ebb8 f   MSVCRT:ehvecdtr.obj
 0001:0001dc1b       ??_L@YGXPAXIHP6EX0@Z1@Z    1001ec1b f   MSVCRT:ehvecctr.obj
 0001:0001dc80       __CIsqrt                   1001ec80 f   MSVCRT:MSVCR90.dll
 0001:0001dc90       __ftol2_sse                1001ec90 f   MSVCRT:ftol2.obj
 0001:0001dc99       __ftol2_pentium4           1001ec99 f   MSVCRT:ftol2.obj
 0001:0001dcac       __ftol2_sse_excpt          1001ecac f   MSVCRT:ftol2.obj
 0001:0001dcc6       __ftol2                    1001ecc6 f   MSVCRT:ftol2.obj
 0001:0001dd40       __chkstk                   1001ed40 f   MSVCRT:chkstk.obj
 0001:0001dd40       __alloca_probe             1001ed40     MSVCRT:chkstk.obj
 0001:0001ddba       __CRT_INIT@12              1001edba f   MSVCRT:crtdll.obj
 0001:0001e0f6       __DllMainCRTStartup@12     1001f0f6 f   MSVCRT:crtdll.obj
 0001:0001e11a       ___CxxFrameHandler         1001f11a f   MSVCRT:MSVCR90.dll
 0001:0001e120       __alldiv                   1001f120 f   MSVCRT:lldiv.obj
 0001:0001e1ca       __except_handler3          1001f1ca f   MSVCRT:MSVCR90.dll
 0001:0001e1d0       __unlock                   1001f1d0 f   MSVCRT:MSVCR90.dll
 0001:0001e1d6       ___dllonexit               1001f1d6 f   MSVCRT:MSVCR90.dll
 0001:0001e1dc       __lock                     1001f1dc f   MSVCRT:MSVCR90.dll
 0001:0001e1e4       __SEH_prolog4              1001f1e4 f   MSVCRT:sehprolg4.obj
 0001:0001e229       __SEH_epilog4              1001f229 f   MSVCRT:sehprolg4.obj
 0001:0001e23d       __except_handler4          1001f23d f   MSVCRT:chandler4gs.obj
 0001:0001e262       ?terminate@@YAXXZ          1001f262 f   MSVCRT:MSVCR90.dll
 0001:0001e2b8       __get_sse2_info            1001f2b8 f   MSVCRT:cpu_disp.obj
 0001:0001e31a       ___sse2_available_init     1001f31a f   MSVCRT:cpu_disp.obj
 0001:0001e327       ___clean_type_info_names   1001f327 f   MSVCRT:tncleanup.obj
 0001:0001e333       __RTC_Initialize           1001f333 f   MSVCRT:_initsect_.obj
 0001:0001e359       __RTC_Terminate            1001f359 f   MSVCRT:_initsect_.obj
 0001:0001e380       __ValidateImageBase        1001f380 f   MSVCRT:pesect.obj
 0001:0001e3c0       __FindPESection            1001f3c0 f   MSVCRT:pesect.obj
 0001:0001e410       __IsNonwritableInCurrentImage 1001f410 f   MSVCRT:pesect.obj
 0001:0001e4ce       __initterm                 1001f4ce f   MSVCRT:MSVCR90.dll
 0001:0001e4d4       __initterm_e               1001f4d4 f   MSVCRT:MSVCR90.dll
 0001:0001e4da       __amsg_exit                1001f4da f   MSVCRT:MSVCR90.dll
 0001:0001e4e0       ___CppXcptFilter           1001f4e0 f   MSVCRT:MSVCR90.dll
 0001:0001e4e6       ___security_init_cookie    1001f4e6 f   MSVCRT:gs_support.obj
 0001:0001e57c       ?_type_info_dtor_internal_method@type_info@@QAEXXZ 1001f57c f   MSVCRT:MSVCR90.dll
 0001:0001e57c       ??1type_info@@UAE@XZ       1001f57c f   MSVCRT:MSVCR90.dll
 0001:0001e582       @__security_check_cookie@4 1001f582 f   MSVCRT:secchk.obj
 0001:0001e592       __except_handler4_common   1001f592 f   MSVCRT:MSVCR90.dll
 0001:0001e598       ___clean_type_info_names_internal 1001f598 f   MSVCRT:MSVCR90.dll
 0001:0001e59e       ___report_gsfailure        1001f59e f   MSVCRT:gs_report.obj
 0001:0001e6a4       __crt_debugger_hook        1001f6a4 f   MSVCRT:MSVCR90.dll
 0002:00000000       __imp__InitCommonControls@0 10021000     comctl32:COMCTL32.dll
 0002:00000004       \177COMCTL32_NULL_THUNK_DATA 10021004     comctl32:COMCTL32.dll
 0002:00000008       __imp__TerminateProcess@8  10021008     kernel32:KERNEL32.dll
 0002:0000000c       __imp__GetCurrentProcess@0 1002100c     kernel32:KERNEL32.dll
 0002:00000010       __imp__UnhandledExceptionFilter@4 10021010     kernel32:KERNEL32.dll
 0002:00000014       __imp__IsDebuggerPresent@0 10021014     kernel32:KERNEL32.dll
 0002:00000018       __imp__InitializeCriticalSection@4 10021018     kernel32:KERNEL32.dll
 0002:0000001c       __imp__DeleteCriticalSection@4 1002101c     kernel32:KERNEL32.dll
 0002:00000020       __imp__EnterCriticalSection@4 10021020     kernel32:KERNEL32.dll
 0002:00000024       __imp__LeaveCriticalSection@4 10021024     kernel32:KERNEL32.dll
 0002:00000028       __imp__WaitForSingleObject@8 10021028     kernel32:KERNEL32.dll
 0002:0000002c       __imp__CloseHandle@4       1002102c     kernel32:KERNEL32.dll
 0002:00000030       __imp__SetEvent@4          10021030     kernel32:KERNEL32.dll
 0002:00000034       __imp__CreateEventA@16     10021034     kernel32:KERNEL32.dll
 0002:00000038       __imp__SetUnhandledExceptionFilter@4 10021038     kernel32:KERNEL32.dll
 0002:0000003c       __imp__ExitProcess@4       1002103c     kernel32:KERNEL32.dll
 0002:00000040       __imp__DisableThreadLibraryCalls@4 10021040     kernel32:KERNEL32.dll
 0002:00000044       __imp__DeleteFileA@4       10021044     kernel32:KERNEL32.dll
 0002:00000048       __imp__GetModuleHandleA@4  10021048     kernel32:KERNEL32.dll
 0002:0000004c       __imp__MultiByteToWideChar@24 1002104c     kernel32:KERNEL32.dll
 0002:00000050       __imp__WideCharToMultiByte@32 10021050     kernel32:KERNEL32.dll
 0002:00000054       __imp__CreateFileA@28      10021054     kernel32:KERNEL32.dll
 0002:00000058       __imp__VirtualProtect@16   10021058     kernel32:KERNEL32.dll
 0002:0000005c       __imp__ReadProcessMemory@20 1002105c     kernel32:KERNEL32.dll
 0002:00000060       __imp__VirtualProtectEx@20 10021060     kernel32:KERNEL32.dll
 0002:00000064       __imp__OpenProcess@12      10021064     kernel32:KERNEL32.dll
 0002:00000068       __imp__GetCurrentProcessId@0 10021068     kernel32:KERNEL32.dll
 0002:0000006c       __imp__GetCurrentThreadId@0 1002106c     kernel32:KERNEL32.dll
 0002:00000070       __imp__WritePrivateProfileStringA@16 10021070     kernel32:KERNEL32.dll
 0002:00000074       __imp__GetPrivateProfileStringA@24 10021074     kernel32:KERNEL32.dll
 0002:00000078       __imp__GetPrivateProfileIntA@16 10021078     kernel32:KERNEL32.dll
 0002:0000007c       __imp__FormatMessageA@28   1002107c     kernel32:KERNEL32.dll
 0002:00000080       __imp__GetLastError@0      10021080     kernel32:KERNEL32.dll
 0002:00000084       __imp__QueryPerformanceFrequency@4 10021084     kernel32:KERNEL32.dll
 0002:00000088       __imp__QueryPerformanceCounter@4 10021088     kernel32:KERNEL32.dll
 0002:0000008c       __imp__ReadFile@20         1002108c     kernel32:KERNEL32.dll
 0002:00000090       __imp__SetFilePointer@16   10021090     kernel32:KERNEL32.dll
 0002:00000094       __imp__WriteFile@20        10021094     kernel32:KERNEL32.dll
 0002:00000098       __imp__lstrlenA@4          10021098     kernel32:KERNEL32.dll
 0002:0000009c       __imp__GetFileSize@8       1002109c     kernel32:KERNEL32.dll
 0002:000000a0       __imp__GetModuleFileNameA@12 100210a0     kernel32:KERNEL32.dll
 0002:000000a4       __imp__VirtualQuery@12     100210a4     kernel32:KERNEL32.dll
 0002:000000a8       __imp__GetSystemInfo@4     100210a8     kernel32:KERNEL32.dll
 0002:000000ac       __imp__GlobalMemoryStatus@4 100210ac     kernel32:KERNEL32.dll
 0002:000000b0       __imp__lstrcpyA@8          100210b0     kernel32:KERNEL32.dll
 0002:000000b4       __imp__OutputDebugStringA@4 100210b4     kernel32:KERNEL32.dll
 0002:000000b8       __imp__GetSystemTimeAsFileTime@4 100210b8     kernel32:KERNEL32.dll
 0002:000000bc       __imp__GetTickCount@0      100210bc     kernel32:KERNEL32.dll
 0002:000000c0       __imp__InterlockedCompareExchange@12 100210c0     kernel32:KERNEL32.dll
 0002:000000c4       __imp__Sleep@4             100210c4     kernel32:KERNEL32.dll
 0002:000000c8       __imp__InterlockedExchange@8 100210c8     kernel32:KERNEL32.dll
 0002:000000cc       \177KERNEL32_NULL_THUNK_DATA 100210cc     kernel32:KERNEL32.dll
 0002:000000d0       __imp_??A?$basic_string@DU?$char_traits@D@std@@V?$allocator@D@2@@std@@QAEAADI@Z 100210d0     msvcprt:MSVCP90.dll
 0002:000000d4       __imp_??Y?$basic_string@DU?$char_traits@D@std@@V?$allocator@D@2@@std@@QAEAAV01@D@Z 100210d4     msvcprt:MSVCP90.dll
 0002:000000d8       __imp_??0?$basic_string@DU?$char_traits@D@std@@V?$allocator@D@2@@std@@QAE@PBD@Z 100210d8     msvcprt:MSVCP90.dll
 0002:000000dc       __imp_??4?$basic_string@DU?$char_traits@D@std@@V?$allocator@D@2@@std@@QAEAAV01@PBD@Z 100210dc     msvcprt:MSVCP90.dll
 0002:000000e0       __imp_??4?$basic_string@GU?$char_traits@G@std@@V?$allocator@G@2@@std@@QAEAAV01@PBG@Z 100210e0     msvcprt:MSVCP90.dll
 0002:000000e4       __imp_?c_str@?$basic_string@GU?$char_traits@G@std@@V?$allocator@G@2@@std@@QBEPBGXZ 100210e4     msvcprt:MSVCP90.dll
 0002:000000e8       __imp_?clear@?$basic_string@GU?$char_traits@G@std@@V?$allocator@G@2@@std@@QAEXXZ 100210e8     msvcprt:MSVCP90.dll
 0002:000000ec       __imp_?clear@?$basic_string@DU?$char_traits@D@std@@V?$allocator@D@2@@std@@QAEXXZ 100210ec     msvcprt:MSVCP90.dll
 0002:000000f0       __imp_??1?$basic_string@GU?$char_traits@G@std@@V?$allocator@G@2@@std@@QAE@XZ 100210f0     msvcprt:MSVCP90.dll
 0002:000000f4       __imp_??0?$basic_string@DU?$char_traits@D@std@@V?$allocator@D@2@@std@@QAE@XZ 100210f4     msvcprt:MSVCP90.dll
 0002:000000f8       __imp_??0?$basic_string@GU?$char_traits@G@std@@V?$allocator@G@2@@std@@QAE@XZ 100210f8     msvcprt:MSVCP90.dll
 0002:000000fc       __imp_?c_str@?$basic_string@DU?$char_traits@D@std@@V?$allocator@D@2@@std@@QBEPBDXZ 100210fc     msvcprt:MSVCP90.dll
 0002:00000100       __imp_??1?$basic_string@DU?$char_traits@D@std@@V?$allocator@D@2@@std@@QAE@XZ 10021100     msvcprt:MSVCP90.dll
 0002:00000104       __imp_??0?$basic_string@DU?$char_traits@D@std@@V?$allocator@D@2@@std@@QAE@ABV01@@Z 10021104     msvcprt:MSVCP90.dll
 0002:00000108       \177MSVCP90_NULL_THUNK_DATA 10021108     msvcprt:MSVCP90.dll
 0002:0000010c       __imp___crt_debugger_hook  1002110c     MSVCRT:MSVCR90.dll
 0002:00000110       __imp____clean_type_info_names_internal 10021110     MSVCRT:MSVCR90.dll
 0002:00000114       __imp___except_handler4_common 10021114     MSVCRT:MSVCR90.dll
 0002:00000118       __imp_?_type_info_dtor_internal_method@type_info@@QAEXXZ 10021118     MSVCRT:MSVCR90.dll
 0002:0000011c       __imp__time                1002111c     MSVCRT:MSVCR90.dll
 0002:0000011c       __imp___time32             1002111c     MSVCRT:MSVCR90.dll
 0002:00000120       __imp___localtime32        10021120     MSVCRT:MSVCR90.dll
 0002:00000120       __imp__localtime           10021120     MSVCRT:MSVCR90.dll
 0002:00000124       __imp____CppXcptFilter     10021124     MSVCRT:MSVCR90.dll
 0002:00000128       __imp___adjust_fdiv        10021128     MSVCRT:MSVCR90.dll
 0002:0000012c       __imp___amsg_exit          1002112c     MSVCRT:MSVCR90.dll
 0002:00000130       __imp___initterm_e         10021130     MSVCRT:MSVCR90.dll
 0002:00000134       __imp___wassert            10021134     MSVCRT:MSVCR90.dll
 0002:00000138       __imp____CxxFrameHandler3  10021138     MSVCRT:MSVCR90.dll
 0002:0000013c       __imp__sprintf             1002113c     MSVCRT:MSVCR90.dll
 0002:00000140       __imp_??3@YAXPAX@Z         10021140     MSVCRT:MSVCR90.dll
 0002:00000144       __imp_??2@YAPAXI@Z         10021144     MSVCRT:MSVCR90.dll
 0002:00000148       __imp_??0exception@std@@QAE@ABQBD@Z 10021148     MSVCRT:MSVCR90.dll
 0002:0000014c       __imp_?what@exception@std@@UBEPBDXZ 1002114c     MSVCRT:MSVCR90.dll
 0002:00000150       __imp_??1exception@std@@UAE@XZ 10021150     MSVCRT:MSVCR90.dll
 0002:00000150       __imp_??1exception@@UAE@XZ 10021150     MSVCRT:MSVCR90.dll
 0002:00000154       __imp___purecall           10021154     MSVCRT:MSVCR90.dll
 0002:00000158       __imp_??0exception@@QAE@XZ 10021158     MSVCRT:MSVCR90.dll
 0002:00000158       __imp_??0exception@std@@QAE@XZ 10021158     MSVCRT:MSVCR90.dll
 0002:0000015c       __imp_??_U@YAPAXI@Z        1002115c     MSVCRT:MSVCR90.dll
 0002:00000160       __imp__memset              10021160     MSVCRT:MSVCR90.dll
 0002:00000164       __imp___invalid_parameter_noinfo 10021164     MSVCRT:MSVCR90.dll
 0002:00000168       __imp___CxxThrowException@8 10021168     MSVCRT:MSVCR90.dll
 0002:0000016c       __imp_??0exception@std@@QAE@ABV01@@Z 1002116c     MSVCRT:MSVCR90.dll
 0002:0000016c       __imp_??0exception@@QAE@ABV0@@Z 1002116c     MSVCRT:MSVCR90.dll
 0002:00000170       __imp_??_V@YAXPAX@Z        10021170     MSVCRT:MSVCR90.dll
 0002:00000174       __imp__memcpy              10021174     MSVCRT:MSVCR90.dll
 0002:00000178       __imp___stricmp            10021178     MSVCRT:MSVCR90.dll
 0002:0000017c       __imp__atoi                1002117c     MSVCRT:MSVCR90.dll
 0002:00000180       __imp__strtok              10021180     MSVCRT:MSVCR90.dll
 0002:00000184       __imp__atof                10021184     MSVCRT:MSVCR90.dll
 0002:00000188       __imp___snprintf           10021188     MSVCRT:MSVCR90.dll
 0002:0000018c       __imp___CIsqrt             1002118c     MSVCRT:MSVCR90.dll
 0002:00000190       __imp___vsnprintf          10021190     MSVCRT:MSVCR90.dll
 0002:00000194       __imp___mkdir              10021194     MSVCRT:MSVCR90.dll
 0002:00000198       __imp__rename              10021198     MSVCRT:MSVCR90.dll
 0002:0000019c       __imp__strchr              1002119c     MSVCRT:MSVCR90.dll
 0002:000001a0       __imp__memmove_s           100211a0     MSVCRT:MSVCR90.dll
 0002:000001a4       __imp__isspace             100211a4     MSVCRT:MSVCR90.dll
 0002:000001a8       __imp___strdup             100211a8     MSVCRT:MSVCR90.dll
 0002:000001ac       __imp____CxxFrameHandler   100211ac     MSVCRT:MSVCR90.dll
 0002:000001b0       __imp__fopen               100211b0     MSVCRT:MSVCR90.dll
 0002:000001b4       __imp__fclose              100211b4     MSVCRT:MSVCR90.dll
 0002:000001b8       __imp__fprintf             100211b8     MSVCRT:MSVCR90.dll
 0002:000001bc       __imp__strftime            100211bc     MSVCRT:MSVCR90.dll
 0002:000001c0       __imp__fflush              100211c0     MSVCRT:MSVCR90.dll
 0002:000001c4       __imp__wcslen              100211c4     MSVCRT:MSVCR90.dll
 0002:000001c8       __imp__strncpy             100211c8     MSVCRT:MSVCR90.dll
 0002:000001cc       __imp__malloc              100211cc     MSVCRT:MSVCR90.dll
 0002:000001d0       __imp__realloc             100211d0     MSVCRT:MSVCR90.dll
 0002:000001d4       __imp__free                100211d4     MSVCRT:MSVCR90.dll
 0002:000001d8       __imp___strlwr             100211d8     MSVCRT:MSVCR90.dll
 0002:000001dc       __imp___except_handler3    100211dc     MSVCRT:MSVCR90.dll
 0002:000001e0       __imp__strrchr             100211e0     MSVCRT:MSVCR90.dll
 0002:000001e4       __imp___unlock             100211e4     MSVCRT:MSVCR90.dll
 0002:000001e8       __imp____dllonexit         100211e8     MSVCRT:MSVCR90.dll
 0002:000001ec       __imp___encode_pointer     100211ec     MSVCRT:MSVCR90.dll
 0002:000001f0       __imp___lock               100211f0     MSVCRT:MSVCR90.dll
 0002:000001f4       __imp___onexit             100211f4     MSVCRT:MSVCR90.dll
 0002:000001f8       __imp___decode_pointer     100211f8     MSVCRT:MSVCR90.dll
 0002:000001fc       __imp_?terminate@@YAXXZ    100211fc     MSVCRT:MSVCR90.dll
 0002:00000200       __imp___malloc_crt         10021200     MSVCRT:MSVCR90.dll
 0002:00000204       __imp___encoded_null       10021204     MSVCRT:MSVCR90.dll
 0002:00000208       __imp___initterm           10021208     MSVCRT:MSVCR90.dll
 0002:0000020c       \177MSVCR90_NULL_THUNK_DATA 1002120c     MSVCRT:MSVCR90.dll
 0002:00000210       __imp__TranslateAcceleratorA@12 10021210     user32:USER32.dll
 0002:00000214       __imp__GetWindowTextLengthA@4 10021214     user32:USER32.dll
 0002:00000218       __imp__wsprintfA           10021218     user32:USER32.dll
 0002:0000021c       __imp__wvsprintfA@12       1002121c     user32:USER32.dll
 0002:00000220       __imp__GetWindowRect@8     10021220     user32:USER32.dll
 0002:00000224       __imp__SetDlgItemTextA@12  10021224     user32:USER32.dll
 0002:00000228       __imp__DestroyWindow@4     10021228     user32:USER32.dll
 0002:0000022c       __imp__SendMessageA@16     1002122c     user32:USER32.dll
 0002:00000230       __imp__CheckMenuItem@12    10021230     user32:USER32.dll
 0002:00000234       __imp__EnableMenuItem@12   10021234     user32:USER32.dll
 0002:00000238       __imp__MessageBoxA@16      10021238     user32:USER32.dll
 0002:0000023c       __imp__GetDlgItemTextA@16  1002123c     user32:USER32.dll
 0002:00000240       __imp__CreateDialogParamA@20 10021240     user32:USER32.dll
 0002:00000244       __imp__GetMenu@4           10021244     user32:USER32.dll
 0002:00000248       __imp__ShowWindow@8        10021248     user32:USER32.dll
 0002:0000024c       __imp__PeekMessageA@20     1002124c     user32:USER32.dll
 0002:00000250       __imp__SetWindowTextA@8    10021250     user32:USER32.dll
 0002:00000254       __imp__IsDialogMessageA@8  10021254     user32:USER32.dll
 0002:00000258       __imp__TranslateMessage@4  10021258     user32:USER32.dll
 0002:0000025c       __imp__DispatchMessageA@4  1002125c     user32:USER32.dll
 0002:00000260       __imp__LoadAcceleratorsA@8 10021260     user32:USER32.dll
 0002:00000264       __imp__SetFocus@4          10021264     user32:USER32.dll
 0002:00000268       __imp__DialogBoxParamA@20  10021268     user32:USER32.dll
 0002:0000026c       __imp__SwitchToThisWindow@8 1002126c     user32:USER32.dll
 0002:00000270       __imp__GetWindowTextW@12   10021270     user32:USER32.dll
 0002:00000274       __imp__EndDialog@8         10021274     user32:USER32.dll
 0002:00000278       __imp__EnableWindow@8      10021278     user32:USER32.dll
 0002:0000027c       __imp__GetDlgItem@8        1002127c     user32:USER32.dll
 0002:00000280       __imp__SetDlgItemInt@16    10021280     user32:USER32.dll
 0002:00000284       __imp__GetDlgItemInt@16    10021284     user32:USER32.dll
 0002:00000288       __imp__GetWindowTextA@12   10021288     user32:USER32.dll
 0002:0000028c       \177USER32_NULL_THUNK_DATA 1002128c     user32:USER32.dll
 0002:00000290       __imp__CoCreateInstance@20 10021290     ole32:ole32.dll
 0002:00000294       \177ole32_NULL_THUNK_DATA  10021294     ole32:ole32.dll
 0002:00000298       ___xc_a                    10021298     MSVCRT:cinitexe.obj
 0002:000002c0       ___xc_z                    100212c0     MSVCRT:cinitexe.obj
 0002:000002c4       ___xi_a                    100212c4     MSVCRT:cinitexe.obj
 0002:000002d0       ___xi_z                    100212d0     MSVCRT:cinitexe.obj
 0002:000002fc       ??_C@_0M@CENACABH@WithSword?50?$AA@ 100212fc     sshock2.obj
 0002:00000308       ??_C@_06NPAAKFED@Player?$AA@ 10021308     sshock2.obj
 0002:00000310       ??_C@_0BB@DDMJPNIJ@Crumple?50?0?5Die?50?$AA@ 10021310     sshock2.obj
 0002:00000324       ??_C@_0N@DFCHFNMP@receivewound?$AA@ 10021324     sshock2.obj
 0002:00000334       ??_C@_0CB@KHIEAEKA@attack?0?5meleecombat?0?5direction?50@ 10021334     sshock2.obj
 0002:00000358       ??_C@_0BK@OGPCEJE@RangedCombat?50?0?5WithBow?50?$AA@ 10021358     sshock2.obj
 0002:00000374       ??_C@_0CJ@CKBKAIOK@Transferring?5?$CFs?5to?5?$CFd?5?$CI?$CFf?5?$CFf?5?$CFf?5@ 10021374     AIManager.obj
 0002:000003a0       ??_C@_0P@NGFKHJJB@?$CFs?5is?5a?5proxy?4?$AA@ 100213a0     AIManager.obj
 0002:000003b0       ??_C@_07BMHLCHEL@automap?$AA@ 100213b0     Commands.obj
 0002:000003b8       ??_C@_0L@GJJFINGI@objectives?$AA@ 100213b8     Commands.obj
 0002:000003c4       ??_C@_08HFJOOHIC@sim_menu?$AA@ 100213c4     Commands.obj
 0002:000003d0       ??_C@_0M@FHLGIKD@win_mission?$AA@ 100213d0     Commands.obj
 0002:000003dc       ??_C@_09OMGHDOBI@drop_item?$AA@ 100213dc     Commands.obj
 0002:000003e8       ??_C@_0L@JKOPOPKB@use_weapon?$AA@ 100213e8     Commands.obj
 0002:000003f4       ??_C@_0BD@INAHMNGF@overlay_objectives?$AA@ 100213f4     Commands.obj
 0002:00000408       ??_C@_0M@LCGNHHLH@overlay_map?$AA@ 10021408     Commands.obj
 0002:00000414       ??_C@_0M@EOGAHMD@UseOverlays?$AA@ 10021414     Commands.obj
 0002:00000420       ??_C@_1CM@JMICNCFM@?$AAC?$AAo?$AAm?$AAm?$AAa?$AAn?$AAd?$AAL?$AAi?$AAs?$AAt?$AA?$FL?$AAi?$AA?$FN?$AA?4?$AAp?$AAf?$AAn?$AAO?$AAl?$AAd?$AA?$AA@ 10021420     Commands.obj
 0002:0000044c       ??_C@_1DE@IBFDGGDO@?$AAC?$AAo?$AAm?$AAm?$AAa?$AAn?$AAd?$AAL?$AAi?$AAs?$AAt?$AA?$FL?$AAi?$AA?$FN?$AA?4?$AAp?$AAf?$AAn?$AAC?$AAo?$AAm?$AAm?$AAa?$AAn?$AAd?$AA?$AA@ 1002144c     Commands.obj
 0002:00000480       ??_C@_1CO@LNIJDLPP@?$AA?4?$AA?4?$AA?2?$AAs?$AAo?$AAu?$AAr?$AAc?$AAe?$AA?2?$AAC?$AAo?$AAm?$AAm?$AAa?$AAn?$AAd?$AAs?$AA?4?$AAc?$AAp?$AAp?$AA?$AA@ 10021480     Commands.obj
 0002:000004b0       __real@3d4ccccd            100214b0     Commands.obj
 0002:000004b4       ??_C@_0BB@BDCPNPMF@MISSION_COMPLETE?$AA@ 100214b4     Commands.obj
 0002:000004c8       ??_C@_0CE@LLLBDLIK@?$CFs?5was?5damaged?5by?5?$CFd?5for?5?$CFd?5poin@ 100214c8     Damage.obj
 0002:000004ec       ??_C@_0DJ@PHNKOGMF@Dark?5damage?5listener?3?5?$CFs?5was?5dam@ 100214ec     Damage.obj
 0002:00000528       ??_C@_0BI@HAKKDMGC@?$CFs?5was?5destroyed?5by?5?$CFd?4?$AA@ 10021528     Damage.obj
 0002:00000540       ??_C@_0BD@LFKBPNLH@saves?2game?$CF04d?4sav?$AA@ 10021540     FilePanel.obj
 0002:00000554       ??_C@_0BA@LNFDDLCO@saves?2quick?4sav?$AA@ 10021554     FilePanel.obj
 0002:00000564       ??_C@_0BG@CBMGBHNB@netsaves?2game?$CF04d?4sav?$AA@ 10021564     FilePanel.obj
 0002:0000057c       ??_C@_0BD@GAJMHFLF@netsaves?2quick?4sav?$AA@ 1002157c     FilePanel.obj
 0002:00000590       ??_C@_0DP@IGLIECBP@ERROR?3?5invalid?5motor?5passed?5to?5g@ 10021590     Motions.obj
 0002:000005d0       ??_C@_0DI@POJGLBLA@ERROR?3?5invalid?5motor?5passed?5to?5p@ 100215d0     Motions.obj
 0002:00000608       ??_C@_0DN@IIEBAMIN@ERROR?3?5invalid?5motor?5passed?5to?5g@ 10021608     Motions.obj
 0002:00000648       ??_C@_0CE@GFOECBEG@Error?3?5Dark?5peer?5already?5allocat@ 10021648     Net.obj
 0002:0000066c       ??_C@_0BG@GJPOGBNK@Join?5failed?3?5?$CFs?5?$CI?$CFx?$CJ?4?$AA@ 1002166c     Net.obj
 0002:00000684       ??_C@_0BP@KDGEHLIG@Failed?5to?5create?5local?5player?4?$AA@ 10021684     Net.obj
 0002:000006a4       ??_C@_0BF@EBLAJMDC@Failed?5to?5host?5game?4?$AA@ 100216a4     Net.obj
 0002:000006bc       ??_C@_0DA@HPGOEKOL@Successfully?5hosted?5game?4?5Awaiti@ 100216bc     Net.obj
 0002:000006ec       ??_C@_1BI@OOJEIDKP@?$AA?$CB?$AAg?$AA_?$AAp?$AAD?$AAa?$AAr?$AAk?$AAN?$AAe?$AAt?$AA?$AA@ 100216ec     Net.obj
 0002:00000704       ??_C@_1CE@NEBFAAKP@?$AA?4?$AA?4?$AA?2?$AAs?$AAo?$AAu?$AAr?$AAc?$AAe?$AA?2?$AAN?$AAe?$AAt?$AA?4?$AAc?$AAp?$AAp?$AA?$AA@ 10021704     Net.obj
 0002:00000728       ??_C@_0P@NMOILHK@MaximumPlayers?$AA@ 10021728     Net.obj
 0002:00000738       ??_C@_0BD@LCAJMCPG@?$CFs?5is?5in?5the?5game?4?$AA@ 10021738     NetManager.obj
 0002:0000074c       ??_C@_0DG@CAGPHHNF@NET?5DEBUG?3?5Enum?5players?5callback@ 1002174c     NetManager.obj
 0002:00000784       ??_C@_0DB@GONILAGO@NET?5DEBUG?3?5Init?5existing?5player?3@ 10021784     NetManager.obj
 0002:000007b8       ??_C@_0DC@EHEKHOGN@NET?5DEBUG?3?5Destroying?5net?5player@ 100217b8     NetManager.obj
 0002:000007ea       ??_C@_00CNPNBAHC@?$AA@     100217ea     NetManager.obj
 0002:000007ec       ??_C@_19LMNHMMDC@?$AAa?$AAr?$AAc?$AAh?$AA?$AA@ 100217ec     NetManager.obj
 0002:000007f8       ??_C@_1DC@MOGPPOHO@?$AA?4?$AA?4?$AA?2?$AAs?$AAo?$AAu?$AAr?$AAc?$AAe?$AA?2?$AAN?$AAe?$AAt?$AAM?$AAa?$AAn?$AAa?$AAg?$AAe?$AAr?$AA?4?$AAc?$AAp?$AAp?$AA?$AA@ 100217f8     NetManager.obj
 0002:0000082c       ??_C@_09NHABHLPN@MP?5Avatar?$AA@ 1002182c     NetManager.obj
 0002:00000838       ??_C@_0M@PMLJGEBD@MP?5Avatar?55?$AA@ 10021838     NetManager.obj
 0002:00000844       ??_C@_0M@OFKCFFFC@MP?5Avatar?54?$AA@ 10021844     NetManager.obj
 0002:00000850       ??_C@_0M@KKODMDJF@MP?5Avatar?53?$AA@ 10021850     NetManager.obj
 0002:0000085c       ??_C@_0M@LDPIPCNE@MP?5Avatar?52?$AA@ 1002185c     NetManager.obj
 0002:00000868       ??_C@_05NFIJOKEG@Model?$AA@ 10021868     NetManager.obj
 0002:00000870       ??_C@_0BB@CANHPBK@ObjTakeOver?3?5?$CFs?4?$AA@ 10021870     Objects.obj
 0002:00000884       ??_C@_0BH@MKJMLHDH@ObjGiveTo?3?5?$CFd?0?5?$CFd?0?5?$CFd?4?$AA@ 10021884     Objects.obj
 0002:0000089c       ??_C@_0BN@MCHFLBII@ObjGiveWithoutObjID?3?5?$CFs?0?5?$CFs?4?$AA@ 1002189c     Objects.obj
 0002:000008bc       ??_C@_0BF@CNGDLGMG@Object?5creation?3?5?$CFs?4?$AA@ 100218bc     Objects.obj
 0002:000008d4       ??_C@_0BH@EBLOHCID@Object?5destruction?3?5?$CFs?$AA@ 100218d4     Objects.obj
 0002:000008ec       ??_C@_0CL@HEPPOJJF@Handle?5frob?5pickup?5for?3?5?$CFd?0?5high@ 100218ec     Packets.obj
 0002:00000918       ??_C@_0BL@KKAFEDDH@Creating?5quest?5?$CFs?3?5?$CFd?0?5?$CFd?4?$AA@ 10021918     Packets.obj
 0002:00000934       ??_C@_0BJ@JLBCGHDG@Setting?5quest?5?$CFs?5to?3?5?$CFd?4?$AA@ 10021934     Packets.obj
 0002:00000950       ??_C@_0EC@IDAMOBDC@Received?5player?5info?5for?5player?5@ 10021950     Packets.obj
 0002:00000998       ??_C@_0EA@GHILBFAA@Received?5a?5request?5to?5destroy?5?$CFd@ 10021998     Packets.obj
 0002:000009d8       ??_C@_0BG@NLILKHCK@Destroying?5object?5?$CFs?4?$AA@ 100219d8     Packets.obj
 0002:000009f0       ??_C@_0BA@IGHADBLO@bowtwang_player?$AA@ 100219f0     Packets.obj
 0002:00000a00       ??_C@_07LAGHFAPL@Crystal?$AA@ 10021a00     Packets.obj
 0002:00000a08       ??_C@_0L@JIFOHJAC@Projectile?$AA@ 10021a08     Packets.obj
 0002:00000a14       ??_C@_0BB@JAHKEOEL@?$CFs?$CFs?$CFs?$CFs?$CFs?$CFs?$CFs?$CFs?$AA@ 10021a14     ScriptService.obj
 0002:00000a28       ??_C@_0BA@HKMGKHHI@ShowScriptDebug?$AA@ 10021a28     ScriptService.obj
 0002:00000a38       ??_C@_0DK@IGGNAMPL@Sending?5property?5msg?5for?5?$CFs?3?5Nam@ 10021a38     StoredProperty.obj
 0002:00000a74       ??_C@_0BK@NOMELAIN@Received?5property?5msg?5?$CFs?4?$AA@ 10021a74     StoredProperty.obj
 0002:00000aa4       ??_7bad_alloc@std@@6B@     10021aa4     DarkPeer.obj
 0002:00000ab4       ??_7IDarkNet@@6B@          10021ab4     DarkPeer.obj
 0002:00000b38       ??_7logic_error@std@@6B@   10021b38     DarkPeer.obj
 0002:00000b44       ??_7length_error@std@@6B@  10021b44     DarkPeer.obj
 0002:00000b50       ??_7out_of_range@std@@6B@  10021b50     DarkPeer.obj
 0002:00000b5c       ??_7IEventListener@@6B@    10021b5c     DarkPeer.obj
 0002:00000b60       ??_C@_0BG@FJOOPMBM@Connection?5timed?5out?4?$AA@ 10021b60     DarkPeer.obj
 0002:00000b78       ??_C@_0CB@JDDCFFPM@Queue?5for?5?$CFx?3?5?$CFd?5msgs?0?5?$CFd?5bytes?4@ 10021b78     DarkPeer.obj
 0002:00000b9c       ??_C@_0CG@LNHAHOBM@Failed?5to?5get?5send?5queue?5info?5fo@ 10021b9c     DarkPeer.obj
 0002:00000bc4       ??_C@_0DI@OCMOAOGD@Failed?5to?5initialize?5global?5serv@ 10021bc4     DarkPeer.obj
 0002:00000bfc       ??_C@_0CN@HLPMNBMI@Failed?5to?5connect?5to?5global?5serv@ 10021bfc     DarkPeer.obj
 0002:00000c2c       ??_C@_0BH@IFNEELK@?4?4?2source?2DarkPeer?4cpp?$AA@ 10021c2c     DarkPeer.obj
 0002:00000c44       ??_C@_08EJIMMOH@HostName?$AA@ 10021c44     DarkPeer.obj
 0002:00000c50       ??_C@_0L@KEEDOPBA@GlobalPort?$AA@ 10021c50     DarkPeer.obj
 0002:00000c5c       ??_C@_0CO@NCKDDDJJ@Failed?5to?5initialize?5global?5serv@ 10021c5c     DarkPeer.obj
 0002:00000c8c       ??_C@_0DJ@PFOOAHKN@?$CFs?$CI?$CFd?$CJ?5DPlay?5error?3?5?$CFs?4?5Failed?5t@ 10021c8c     DarkPeer.obj
 0002:00000cc8       ??_C@_0CB@MHLBPJCG@Unknown?5flags?5on?5old?5packet?5?$CI?$CFx?$CJ@ 10021cc8     DarkPeer.obj
 0002:00000cec       ??_C@_0L@HMKCBGMC@PlayerName?$AA@ 10021cec     DarkPeer.obj
 0002:00000cf8       ??_C@_0CA@JHGBLBFE@Failed?5to?5enumerate?5hosts?5?$CI?$CFx?$CJ?4?$AA@ 10021cf8     DarkPeer.obj
 0002:00000d18       ??_C@_19EBEADLAH@?$AAp?$AAo?$AAr?$AAt?$AA?$AA@ 10021d18     DarkPeer.obj
 0002:00000d24       ??_C@_1BC@FGKBPBF@?$AAh?$AAo?$AAs?$AAt?$AAn?$AAa?$AAm?$AAe?$AA?$AA@ 10021d24     DarkPeer.obj
 0002:00000d38       ??_C@_0CC@NOPPNCA@Failed?5to?5connect?5to?5server?4?5?$CI?$CFx@ 10021d38     DarkPeer.obj
 0002:00000d5c       ??_C@_0BE@CCKECLBP@The?5server?5is?5full?4?$AA@ 10021d5c     DarkPeer.obj
 0002:00000d70       ??_C@_0DO@FGOGJCDI@Cannot?5join?5server?3?5the?5host?5has@ 10021d70     DarkPeer.obj
 0002:00000db0       ??_C@_0BE@FMJKNIIE@Incorrect?5password?4?$AA@ 10021db0     DarkPeer.obj
 0002:00000dc4       ??_C@_0BJ@LBALNBFL@Failed?5to?5set?5peer?5info?4?$AA@ 10021dc4     DarkPeer.obj
 0002:00000de0       ??_C@_0CL@CHDCCFBN@Game?5found?3?5?$CFs?5?5Players?3?5?$CFd?1?$CFd?5?5@ 10021de0     DarkPeer.obj
 0002:00000e10       ??_C@_0EG@COIFKEHE@Server?5version?5?$CI?$CFd?$CJ?5does?5not?5mat@ 10021e10     DarkPeer.obj
 0002:00000e58       ??_C@_0EJ@FHPNEPEA@?$CFs?$CI?$CFd?$CJ?5DPlay?5error?3?5?$CFs?4?5Attempte@ 10021e58     DarkPeer.obj
 0002:00000ea8       ??_C@_0FE@IDNDMJNO@?$CFs?$CI?$CFd?$CJ?5DPlay?5error?3?5?$CFs?4?5Attempte@ 10021ea8     DarkPeer.obj
 0002:00000efc       ??_C@_0DN@OHIEMDJF@ERROR?3?5Attempted?5to?5send?5packet?5@ 10021efc     DarkPeer.obj
 0002:00000f3c       ??_C@_0N@MKOFHGIF@ListOnGlobal?$AA@ 10021f3c     DarkPeer.obj
 0002:00000f4c       ??_C@_0N@PJANFJIF@pickloot?4wav?$AA@ 10021f4c     DarkPeer.obj
 0002:00000f5c       ??_C@_0BK@HJLADJMP@Creating?5local?5host?4?5?$CI?$CFx?$CJ?$AA@ 10021f5c     DarkPeer.obj
 0002:00000f78       ??_C@_0L@JLGPALCD@Difficulty?$AA@ 10021f78     DarkPeer.obj
 0002:00000f84       ??_C@_0CG@BDEDPOOE@Failed?5to?5get?5peer?5info?5for?5DPNI@ 10021f84     DarkPeer.obj
 0002:00000fac       ??_C@_0O@NDALCJBM@?$CFs?5connected?4?$AA@ 10021fac     DarkPeer.obj
 0002:00000fbc       ??_C@_0BG@INDKOHEP@Set?5host?5DPNID?5to?5?$CFx?4?$AA@ 10021fbc     DarkPeer.obj
 0002:00000fd4       ??_C@_0BE@JONHPENG@map?1set?$DMT?$DO?5too?5long?$AA@ 10021fd4     DarkPeer.obj
 0002:00000fe8       ??_C@_0BM@PAPJHAGI@invalid?5map?1set?$DMT?$DO?5iterator?$AA@ 10021fe8     DarkPeer.obj
 0002:00001004       ??_C@_0CD@EACKNKNE@Deleting?5player?5data?5for?5DPNID?5?$CF@ 10022004     DarkPeer.obj
 0002:00001028       ??_C@_0BP@NIFEIAN@Failed?5to?5unregister?5listener?4?$AA@ 10022028     DarkPeer.obj
 0002:0000104c       ??_7CDarkPeer@@6BIEventListener@@@ 1002204c     DarkPeer.obj
 0002:00001054       ??_7CDarkPeer@@6BIDarkNet@@@ 10022054     DarkPeer.obj
 0002:000010d4       __real@40d00000            100220d4     DarkPeer.obj
 0002:000010d8       ??_C@_0BG@CJHJNIJP@Connected?5to?5session?4?$AA@ 100220d8     DarkPeer.obj
 0002:000010f0       ??_C@_0BG@OFGCHGBE@?$CFs?5has?5left?5the?5game?4?$AA@ 100220f0     DarkPeer.obj
 0002:00001108       ??_C@_0BD@EGGJBAG@SetSPCaps?$CI?$CJ?5failed?$AA@ 10022108     DarkPeer.obj
 0002:0000111c       ??_C@_0L@NENEEBIN@BufferSize?$AA@ 1002211c     DarkPeer.obj
 0002:00001128       ??_C@_0P@DCIBGALE@GetSP?$CI?$CJ?5failed?$AA@ 10022128     DarkPeer.obj
 0002:00001138       ??_C@_0P@PMJPJKJI@SetSP?$CI?$CJ?5failed?$AA@ 10022138     DarkPeer.obj
 0002:00001148       ??_C@_0CA@EEDCMLGH@Could?5not?5initialize?5DirectPlay?$AA@ 10022148     DarkPeer.obj
 0002:00001168       ??_C@_0BK@FBFLCICJ@COM?5initialization?5failed?$AA@ 10022168     DarkPeer.obj
 0002:00001184       ??_C@_0O@GCDHFIKE@Host?$CI?$CJ?5failed?$AA@ 10022184     DarkPeer.obj
 0002:00001194       ??_C@_0BF@EOJPIAG@SetPeerInfo?$CI?$CJ?5failed?$AA@ 10022194     DarkPeer.obj
 0002:000011ac       ??_C@_0BG@BMNFNOMK@AddComponent?$CI?$CJ?5failed?$AA@ 100221ac     DarkPeer.obj
 0002:000011c4       ??_C@_0L@COJEKOJM@ServerPort?$AA@ 100221c4     DarkPeer.obj
 0002:000011d0       ??_C@_0BD@POEMKHOO@GetSPCaps?$CI?$CJ?5failed?$AA@ 100221d0     DarkPeer.obj
 0002:000011e4       ??_C@_08FJIAHGMM@Password?$AA@ 100221e4     DarkPeer.obj
 0002:000011f0       ??_C@_0L@FFDIDHBB@ServerName?$AA@ 100221f0     DarkPeer.obj
 0002:000011fc       ??_C@_0M@HHNLPIAL@user_mp?4bnd?$AA@ 100221fc     DarkPeer.obj
 0002:00001208       ??_C@_0CB@BALKDDLO@Failed?5to?5list?5server?5to?5global?4@ 10022208     DarkPeer.obj
 0002:0000122c       ??_C@_0BD@IDIFJPGK@peer?5enum?5response?$AA@ 1002222c     DarkPeer.obj
 0002:00001240       ??_C@_07HMEMGDHJ@receive?$AA@ 10022240     DarkPeer.obj
 0002:0000124c       ??_7CDarkSessionManager@@6B@ 1002224c     DarkSessionManager.obj
 0002:00001250       ??_C@_09OHILOMME@TimeLimit?$AA@ 10022250     DarkSessionManager.obj
 0002:0000125c       ??_C@_09JPFOHINI@SaveLimit?$AA@ 1002225c     DarkSessionManager.obj
 0002:00001268       ??_C@_0BD@OIFANMBJ@IncreaseDifficulty?$AA@ 10022268     DarkSessionManager.obj
 0002:0000127c       ??_C@_0O@PEJIDJAD@CheatsEnabled?$AA@ 1002227c     DarkSessionManager.obj
 0002:0000128c       ??_C@_0L@KPOBODEE@TeamDamage?$AA@ 1002228c     DarkSessionManager.obj
 0002:00001298       ??_C@_09MJCGPJCP@NoLoadout?$AA@ 10022298     DarkSessionManager.obj
 0002:000012a4       ??_C@_0N@FKGMAHPF@StartingLoot?$AA@ 100222a4     DarkSessionManager.obj
 0002:000012b4       ??_C@_0BD@GDENIIIF@PlayerTransparency?$AA@ 100222b4     DarkSessionManager.obj
 0002:000012c8       ??_C@_09GAPMBEEC@ShareLoot?$AA@ 100222c8     DarkSessionManager.obj
 0002:000012d4       ??_C@_0N@INCCDALH@RespawnDelay?$AA@ 100222d4     DarkSessionManager.obj
 0002:000012e4       ??_C@_0P@JAIELIFO@RespawnEnabled?$AA@ 100222e4     DarkSessionManager.obj
 0002:000012f4       ??_C@_0O@OIMEEBML@Game?5resumed?4?$AA@ 100222f4     Network.obj
 0002:00001304       ??_C@_0BE@POECIHMG@All?5players?5joined?4?$AA@ 10022304     Network.obj
 0002:00001318       ??_C@_0N@IBNACFAM@Game?5paused?4?$AA@ 10022318     Network.obj
 0002:00001328       ??_C@_0BH@BACNCIPJ@Waiting?5for?5players?4?4?4?$AA@ 10022328     Network.obj
 0002:00001340       ??_C@_0P@HMHCKJLG@Unnamed?5Player?$AA@ 10022340     PlayerDB.obj
 0002:00001350       ??_C@_1EE@IBNOBLGD@?$AAi?$AAn?$AAd?$AAe?$AAx?$AA?5?$AA?$DO?$AA?$DN?$AA?5?$AA0?$AA?5?$AA?$CG?$AA?$CG?$AA?5?$AAi?$AAn?$AAd?$AAe?$AAx?$AA?5?$AA?$DM?$AA?5?$AAk?$AAM?$AAa?$AAx?$AAP?$AAl?$AAa?$AAy?$AAe?$AAr@ 10022350     PlayerDB.obj
 0002:00001398       ??_C@_1EE@IAJIPAHA@?$AAc?$AA?3?$AA?2?$AAD?$AAe?$AAv?$AA?2?$AAT?$AAh?$AAi?$AAe?$AAf?$AAM?$AAP?$AA?2?$AAi?$AAn?$AAc?$AAl?$AAu?$AAd?$AAe?$AA?2?$AAP?$AAl?$AAa?$AAy?$AAe?$AAr?$AAD?$AAB?$AA?4@ 10022398     PlayerDB.obj
 0002:000013dc       ??_C@_0DD@LKGKGBGD@Too?5many?5chained?5events?5for?5?$CFs?4?5@ 100223dc     T2GenericReaction.obj
 0002:00001414       ??_7CNetMsg_GenericReaction@@6B@ 10022414     T2GenericReaction.obj
 0002:00001424       ??_C@_0BG@HDBCGOHA@Marshalled?5?$CFd?5events?4?$AA@ 10022424     T2GenericReaction.obj
 0002:0000143c       ??_C@_0DA@LGMMDDAF@Reaction?5receive?5?$CI?$CFs?$CJ?3?5too?5many?5@ 1002243c     T2GenericReaction.obj
 0002:00001470       ??_7CNetMsg_PlayerDeath@@6B@ 10022470     T2PlayerDeath.obj
 0002:00001484       ??_7CNetMsg_ScriptMsg@@6B@ 10022484     T2ScriptMsg.obj
 0002:00001494       ??_C@_07ONDCJMBK@NetFrob?$AA@ 10022494     T2ScriptMsg.obj
 0002:0000149c       ??_C@_09NIGMFFPO@IPAddress?$AA@ 1002249c     ConnectDialog.obj
 0002:000014a8       ??_C@_07DFKCFAEM@History?$AA@ 100224a8     ConnectDialog.obj
 0002:000014b0       ??_C@_0O@KEJIHCOP@?4?2ThiefMP?4ini?$AA@ 100224b0     ConnectDialog.obj
 0002:000014c4       ??_7CEEditBox@EngCtrls@@6B@ 100224c4     ConnectDialog.obj
 0002:000014d0       ??_C@_0BE@OIHDPBIA@Connecting?5to?5?$CFs?4?4?4?$AA@ 100224d0     ConnectDialog.obj
 0002:000014e4       ??_C@_0CF@GIPGKGB@Failed?5to?5display?5connect?5dialog@ 100224e4     ConnectDialog.obj
 0002:00001510       ??_7HistoryItem@@6B@       10022510     ConsoleGUI.obj
 0002:00001514       ??_C@_01CLKCMJKC@?5?$AA@   10022514     ConsoleGUI.obj
 0002:00001518       ??_C@_0BN@HFAMOHFC@Failed?5to?5load?5accelerators?4?$AA@ 10022518     ConsoleGUI.obj
 0002:00001538       ??_C@_1BG@MFBBLBMI@?$AAm?$AA_?$AAh?$AAC?$AAo?$AAn?$AAs?$AAo?$AAl?$AAe?$AA?$AA@ 10022538     ConsoleGUI.obj
 0002:00001550       ??_C@_1DC@OPAEDPEO@?$AA?4?$AA?4?$AA?2?$AAs?$AAo?$AAu?$AAr?$AAc?$AAe?$AA?2?$AAC?$AAo?$AAn?$AAs?$AAo?$AAl?$AAe?$AAG?$AAU?$AAI?$AA?4?$AAc?$AAp?$AAp?$AA?$AA@ 10022550     ConsoleGUI.obj
 0002:00001584       ??_C@_0BB@MOGOBHAF@list?$DMT?$DO?5too?5long?$AA@ 10022584     ConsoleGUI.obj
 0002:00001598       ??_C@_1GE@PHINJBFL@?$AAm?$AA_?$AAO?$AAu?$AAt?$AAp?$AAu?$AAt?$AAE?$AAd?$AAi?$AAt?$AA?4?$AAG?$AAe?$AAt?$AAH?$AAa?$AAn?$AAd?$AAl?$AAe?$AA?$CI?$AA?$CJ?$AA?5?$AA?$CG?$AA?$CG?$AA?5?$AAm?$AA_?$AAE?$AAd@ 10022598     ConsoleGUI.obj
 0002:000015fc       ??_C@_0N@DBHFFKIC@CreateDialog?$AA@ 100225fc     ConsoleGUI.obj
 0002:0000160c       ??_C@_1M@GEFBPFCB@?$AAh?$AAI?$AAn?$AAs?$AAt?$AA?$AA@ 1002260c     ConsoleGUI.obj
 0002:0000161c       ??_7CConsoleBase@@6B@      1002261c     ConsoleGUI.obj
 0002:00001634       ??_C@_0CD@HGHHNNGL@You?5are?5not?5connected?5to?5a?5serve@ 10022634     ConsoleGUI.obj
 0002:00001658       ??_C@_0BB@HHBEAPOL@Unknown?5command?4?$AA@ 10022658     ConsoleGUI.obj
 0002:00001670       ??_7CThiefConsole@@6B@     10022670     DarkWinGui.obj
 0002:0000168c       ??_7CEListBox@EngCtrls@@6B@ 1002268c     DarkWinGui.obj
 0002:00001698       ??_7CEComboBox@EngCtrls@@6B@ 10022698     DarkWinGui.obj
 0002:000016a0       ??_C@_0DE@FPHCGNBD@Would?5you?5like?5to?5disconnect?5fro@ 100226a0     DarkWinGui.obj
 0002:000016d4       ??_C@_0BC@CHJKDKGL@Already?5Connected?$AA@ 100226d4     DarkWinGui.obj
 0002:000016ec       ??_7InterfaceManager@@6B@  100226ec     DarkWinGui.obj
 0002:00001700       ??_C@_0BL@CCHFLBN@Disconnected?5from?5session?4?$AA@ 10022700     DarkWinGui.obj
 0002:0000171c       ??_C@_0CF@LAPPBGNE@Failed?5to?5create?5server?5browser?3@ 1002271c     DarkWinGui.obj
 0002:00001744       ??_C@_0M@NKKMOLJN@MenuEnabled?$AA@ 10022744     DarkWinGui.obj
 0002:00001750       ??_C@_0CM@JMKADAJE@Shouldn?8t?5have?5tried?5to?5create?5d@ 10022750     DarkWinGui.obj
 0002:0000177c       ??_C@_0CA@MBADGHIF@?$CFs?5build?5?$CFd?0?5compiled?5on?5?$CFs?5?$CFs?4?$AA@ 1002277c     DarkWinGui.obj
 0002:0000179c       ??_C@_07LHBDFJPO@Release?$AA@ 1002279c     DarkWinGui.obj
 0002:000017a4       ??_C@_0M@JHOPOMMC@Dec?520?52010?$AA@ 100227a4     DarkWinGui.obj
 0002:000017b0       ??_C@_08IBHKHBJP@22?319?336?$AA@ 100227b0     DarkWinGui.obj
 0002:000017bc       ??_C@_0BF@MBEIJBFH@Console?5initialized?4?$AA@ 100227bc     DarkWinGui.obj
 0002:000017d4       ??_C@_0BC@DKNCBNEB@Thief?5Multiplayer?$AA@ 100227d4     DarkWinGui.obj
 0002:000017ec       ??_7CEButton@EngCtrls@@6B@ 100227ec     HostDialog.obj
 0002:000017f4       ??_C@_02DPKJAMEF@?$CFd?$AA@ 100227f4     HostDialog.obj
 0002:000017f8       ??_C@_07PLHEGJFB@Mission?$AA@ 100227f8     HostDialog.obj
 0002:00001800       ??_C@_01GBGANLPD@0?$AA@    10022800     HostDialog.obj
 0002:00001804       ??_C@_01BMBHCPLG@5?$AA@    10022804     HostDialog.obj
 0002:00001808       ??_C@_06LGMEBDBC@Server?$AA@ 10022808     HostDialog.obj
 0002:00001810       ??_C@_05MKDOIIA@False?$AA@ 10022810     HostDialog.obj
 0002:00001818       ??_C@_04HPMIDMKH@True?$AA@ 10022818     HostDialog.obj
 0002:00001820       ??_C@_0L@KPFJECFH@cash_bonus?$AA@ 10022820     HostDialog.obj
 0002:0000182c       ??_C@_08CPGDBFMK@missflag?$AA@ 1002282c     HostDialog.obj
 0002:00001838       ??_C@_07OAJOIMIL@strings?$AA@ 10022838     HostDialog.obj
 0002:00001840       ??_C@_07FAKAEMOG@miss_?$CFd?$AA@ 10022840     HostDialog.obj
 0002:00001848       ??_C@_0O@IEFKIBLF@Saved?5Game?4?4?4?$AA@ 10022848     HostDialog.obj
 0002:00001858       ??_C@_07PAOJMLNB@?$CFd?5?9?5?$CFs?$AA@ 10022858     HostDialog.obj
 0002:00001860       ??_C@_06GCODKHGB@titles?$AA@ 10022860     HostDialog.obj
 0002:00001868       ??_C@_08OBKHDEGA@title_?$CFd?$AA@ 10022868     HostDialog.obj
 0002:00001874       ??_C@_0M@PCGKGEOC@Cooperative?$AA@ 10022874     HostDialog.obj
 0002:00001880       ??_C@_0BJ@GCJLCOJC@CHostDialog?3?3DisplayPage?$AA@ 10022880     HostDialog.obj
 0002:0000189c       ??_C@_0CC@MPLICHJD@CMissionSelectDialog?3?3DisplayPag@ 1002289c     MissSelect.obj
 0002:000018c0       ??_C@_05GFKHAFNF@Basso?$AA@ 100228c0     PlayerSettings.obj
 0002:000018c8       ??_C@_07CCACMEOK@Servant?$AA@ 100228c8     PlayerSettings.obj
 0002:000018d0       ??_C@_06BFFONFPF@Keeper?$AA@ 100228d0     PlayerSettings.obj
 0002:000018d8       ??_C@_05ELPFFFFC@Thief?$AA@ 100228d8     PlayerSettings.obj
 0002:000018e0       ??_C@_07EFOPMIBJ@Garrett?$AA@ 100228e0     PlayerSettings.obj
 0002:000018e8       ??_C@_0CD@FFDEMFDL@CPlayerSettingsDialog?3?3DisplayPa@ 100228e8     PlayerSettings.obj
 0002:0000190c       __real@00000000            1002290c     Client.obj
 0002:00001910       ??_C@_0CD@IMKEGELI@Time?5limit?5reached?4?5Game?5ending?4@ 10022910     Client.obj
 0002:00001938       ??_C@_0EO@LKINBHHC@You?5have?5been?5removed?5from?5the?5g@ 10022938     Client.obj
 0002:00001988       ??_C@_0CF@DHINLAPO@You?5have?5been?5removed?5from?5the?5g@ 10022988     Client.obj
 0002:000019b0       ??_C@_0CH@MDCDCODB@Host?5has?5left?5the?5game?4?5Game?5end@ 100229b0     Client.obj
 0002:000019dc       ??_7CClient@@6B@           100229dc     Client.obj
 0002:000019e0       __real@3f000000            100229e0     Client.obj
 0002:000019e4       ??_C@_0DD@EEPEEABI@Level?3?5?$CFd?5Exposure?3?5?$CFd?5Rating?5?$CFd@ 100229e4     Client.obj
 0002:00001a18       __real@3f7ae148            10022a18     Client.obj
 0002:00001a1c       __real@3c23d70a            10022a1c     Client.obj
 0002:00001a20       ??_C@_0BI@BBCLEHFJ@Queue?5?$CFd?6Queue?5peak?3?5?$CFd?$AA@ 10022a20     Client.obj
 0002:00001a38       ??_C@_0HC@LBNHFOPI@Ping?3?5?$CFd?6Packets?5dropped?3?5?$CFd?6Tim@ 10022a38     Client.obj
 0002:00001ab0       ??_C@_0HC@MEJEACCL@ftime?5?$CFd?6stime?5?$CFd?6forward?5?$CF0?44f?6@ 10022ab0     Client.obj
 0002:00001b28       __real@3ff0000000000000    10022b28     Client.obj
 0002:00001b30       ??_C@_0BC@PBOGJJLK@DisableNetPhysCap?$AA@ 10022b30     Client.obj
 0002:00001b44       ??_C@_0BH@BNAMAPIP@?$CFs?3?5client?5vars?5reset?4?$AA@ 10022b44     Client.obj
 0002:00001b5c       ??_C@_0BF@MGIFPAAP@CClient?3?3OnLoadWorld?$AA@ 10022b5c     Client.obj
 0002:00001b74       __real@4f800000            10022b74     Client.obj
 0002:00001b78       __real@3f800000            10022b78     Client.obj
 0002:00001b80       __real@3fa47ae140000000    10022b80     Client.obj
 0002:00001b88       __real@3f947ae140000000    10022b88     Client.obj
 0002:00001b90       ??_C@_0BB@IBCFIIJD@DistanceModifier?$AA@ 10022b90     Client.obj
 0002:00001ba4       ??_C@_09OAPPKFLI@VisCapMin?$AA@ 10022ba4     Client.obj
 0002:00001bb0       ??_C@_08NHFCAFLF@AIAttack?$AA@ 10022bb0     Client.obj
 0002:00001bbc       __real@3995cbec            10022bbc     Client.obj
 0002:00001bc0       __real@ba03126f            10022bc0     Client.obj
 0002:00001bc8       __real@3fde147ae0000000    10022bc8     Client.obj
 0002:00001bd0       __real@41a00000            10022bd0     Client.obj
 0002:00001bd4       ??_C@_1DG@CKNODMLK@?$AAg?$AA_?$AAp?$AAN?$AAe?$AAt?$AAM?$AAa?$AAn?$AA?9?$AA?$DO?$AAA?$AAm?$AAD?$AAe?$AAf?$AAa?$AAu?$AAl?$AAt?$AAH?$AAo?$AAs?$AAt?$AA?$CI?$AA?$CJ?$AA?$AA@ 10022bd4     Client.obj
 0002:00001c0c       ??_C@_1CK@ILIOBMCA@?$AA?4?$AA?4?$AA?2?$AAs?$AAo?$AAu?$AAr?$AAc?$AAe?$AA?2?$AAC?$AAl?$AAi?$AAe?$AAn?$AAt?$AA?4?$AAc?$AAp?$AAp?$AA?$AA@ 10022c0c     Client.obj
 0002:00001c38       ??_C@_1CM@FKNEAGPM@?$AAg?$AA_?$AAN?$AAe?$AAt?$AA?5?$AA?$DN?$AA?$DN?$AA?5?$AAS?$AAT?$AAA?$AAT?$AAE?$AA_?$AAC?$AAl?$AAi?$AAe?$AAn?$AAt?$AA?$AA@ 10022c38     ClientPacketHandler.obj
 0002:00001c68       ??_C@_1EE@GMCEOEJA@?$AA?4?$AA?4?$AA?2?$AAs?$AAo?$AAu?$AAr?$AAc?$AAe?$AA?2?$AAC?$AAl?$AAi?$AAe?$AAn?$AAt?$AAP?$AAa?$AAc?$AAk?$AAe?$AAt?$AAH?$AAa?$AAn?$AAd?$AAl?$AAe?$AAr?$AA?4?$AAc?$AAp@ 10022c68     ClientPacketHandler.obj
 0002:00001cb0       ??_C@_0FF@LGKBOLGG@Frob?5receive?3?5ms?5down?5?$CFd?0?5source@ 10022cb0     ClientPacketHandler.obj
 0002:00001d08       ??_C@_0M@NDGAEHFO@giveobj?3?5?$CFs?$AA@ 10022d08     ClientPacketHandler.obj
 0002:00001d14       ??_C@_0N@NEANKBKJ@auto_equip?51?$AA@ 10022d14     ClientPacketHandler.obj
 0002:00001d24       ??_C@_0N@MNBGJAOI@auto_equip?50?$AA@ 10022d24     ClientPacketHandler.obj
 0002:00001d34       ??_C@_0BB@GBFKFKJ@echo?5$auto_equip?$AA@ 10022d34     ClientPacketHandler.obj
 0002:00001d48       ??_C@_01HIHLOKLC@1?$AA@    10022d48     ClientPacketHandler.obj
 0002:00001d4c       ??_C@_0M@KNEAAINI@pickup_loot?$AA@ 10022d4c     ClientPacketHandler.obj
 0002:00001d58       ??_C@_0CN@KFKFECDN@Failed?5to?5attach?5weapon?5to?5?$CFd?3?5n@ 10022d58     ClientPacketHandler.obj
 0002:00001d88       ??_C@_1DI@NFGAJBLL@?$AA?$CB?$AAg?$AA_?$AAp?$AAN?$AAe?$AAt?$AAM?$AAa?$AAn?$AA?9?$AA?$DO?$AAA?$AAm?$AAD?$AAe?$AAf?$AAa?$AAu?$AAl?$AAt?$AAH?$AAo?$AAs?$AAt?$AA?$CI?$AA?$CJ?$AA?$AA@ 10022d88     ClientPacketHandler.obj
 0002:00001dc0       ??_C@_0DE@MCLJHIPE@Failed?5to?5get?5player?5name?5for?5DP@ 10022dc0     ClientPacketHandler.obj
 0002:00001df4       ??_C@_08CGKDMPLI@Chat?4log?$AA@ 10022df4     ClientPacketHandler.obj
 0002:00001e00       ??_C@_06DJHOIPC@?$CFs?3?5?$CFs?$AA@ 10022e00     ClientPacketHandler.obj
 0002:00001e08       ??_C@_0BC@CHJNCCME@Message?5too?5long?$CB?$AA@ 10022e08     ClientPacketHandler.obj
 0002:00001e1c       ??_C@_0L@DDHCOMKD@miss?$CFd?4mis?$AA@ 10022e1c     ClientPacketHandler.obj
 0002:00001e28       ??_C@_0N@KPEDNMNP@motiondb?4bin?$AA@ 10022e28     ClientPacketHandler.obj
 0002:00001e38       ??_C@_0DM@BJINBMEA@Disconnecting?5?$CFs?3?5gamesys?5file?5d@ 10022e38     ClientPacketHandler.obj
 0002:00001e74       ??_C@_0DM@BIPMEBKF@Disconnecting?5?$CFs?3?5mission?5file?5d@ 10022e74     ClientPacketHandler.obj
 0002:00001eb0       ??_C@_0EB@MDGOEHDI@Disconnecting?5?$CFs?3?5motiondb?4bin?5f@ 10022eb0     ClientPacketHandler.obj
 0002:00001ef4       ??_C@_0N@KALONGFF@?$CFs?5has?5died?4?$AA@ 10022ef4     ClientPacketHandler.obj
 0002:00001f04       ??_C@_0BB@LJEMNEPG@?$CFs?5was?5?$CFs?5by?5?$CFs?4?$AA@ 10022f04     ClientPacketHandler.obj
 0002:00001f18       ??_C@_05KAKLJNJP@slain?$AA@ 10022f18     ClientPacketHandler.obj
 0002:00001f20       ??_C@_06KGGGBDJD@killed?$AA@ 10022f20     ClientPacketHandler.obj
 0002:00001f28       ??_C@_0P@NLHNNEFJ@?$CFs?3?5exception?4?$AA@ 10022f28     ClientPacketHandler.obj
 0002:00001f38       ??_C@_0BM@CGOHNBEG@PacketHandler?3?3HandleSpeech?$AA@ 10022f38     ClientPacketHandler.obj
 0002:00001f58       ??_C@_0FG@LCECFFFG@Received?5speech?3?5obj?5?$CFd?0?5schema?5@ 10022f58     ClientPacketHandler.obj
 0002:00001fb0       ??_C@_0EM@FNJKLMOC@Exception?5occurred?5while?5handlin@ 10022fb0     ClientPacketHandler.obj
 0002:00001ffc       ??_C@_1M@LKEGCNJF@?$AAp?$AAI?$AAn?$AAf?$AAo?$AA?$AA@ 10022ffc     ClientPacketHandler.obj
 0002:00002008       ??_C@_0BG@FMENPKFF@Received?5reaction?5?$CFs?4?$AA@ 10023008     ClientPacketHandler.obj
 0002:00002020       ??_C@_0CO@OPNNFNF@Dropping?5reaction?5packet?3?5?$CFs?5not@ 10023020     ClientPacketHandler.obj
 0002:00002050       ??_C@_0DE@GOJMILGN@Dropping?5reaction?5packet?3?5object@ 10023050     ClientPacketHandler.obj
 0002:00002084       ??_C@_0BO@NLDKGGPF@Transferee?8s?5voice?5set?5to?5?$CFs?4?$AA@ 10023084     ClientPacketHandler.obj
 0002:000020a4       ??_C@_0CA@KAKBGJPJ@ERROR?3?5AI?5handoff?5failed?5for?5?$CFs?$AA@ 100230a4     ClientPacketHandler.obj
 0002:000020c4       ??_C@_0BH@NPPOEFDD@Making?5full?5AI?5for?5?$CFs?4?$AA@ 100230c4     ClientPacketHandler.obj
 0002:000020dc       ??_C@_0CD@MPJOIGMJ@Exception?5handling?5script?5messag@ 100230dc     ClientPacketHandler.obj
 0002:00002100       ??_C@_0BM@DBLICKED@Got?5unknown?5packet?5type?5?$CFd?4?$AA@ 10023100     ClientPacketHandler.obj
 0002:00002120       __real@404e000000000000    10023120     ClientSynch.obj
 0002:00002128       ??_C@_0M@JNJFJJDM@Synching?4?4?4?$AA@ 10023128     ClientSynch.obj
 0002:00002134       ??_C@_08PNEHKIBK@UseDDFix?$AA@ 10023134     Config.obj
 0002:00002140       ??_C@_08DMNNOKNK@Teleport?$AA@ 10023140     Config.obj
 0002:0000214c       __real@42480000            1002314c     Config.obj
 0002:00002150       ??_C@_0N@JPKPMMBK@Transparency?$AA@ 10023150     Config.obj
 0002:00002160       __real@3f266666            10023160     Config.obj
 0002:00002164       ??_C@_0P@HAAAMBMC@Thief?52?5Server?$AA@ 10023164     Config.obj
 0002:00002174       ??_C@_0BB@GEJAMCD@AutomapMouseMode?$AA@ 10023174     Config.obj
 0002:00002188       ??_C@_08GNOMADNI@Overlays?$AA@ 10023188     Config.obj
 0002:00002194       ??_C@_04IFEHPILC@Menu?$AA@ 10023194     Config.obj
 0002:0000219c       ??_C@_0BG@LEHAJHE@HeartbeatFrequencyMax?$AA@ 1002319c     Config.obj
 0002:000021b4       ??_C@_07BGDMAJAE@Network?$AA@ 100231b4     Config.obj
 0002:000021bc       ??_C@_0O@GFFECIBH@Global?5Server?$AA@ 100231bc     Config.obj
 0002:000021cc       ??_C@_0BD@CHLAGMMG@t2mp?4servegame?4com?$AA@ 100231cc     Config.obj
 0002:000021e0       ??_C@_09GADAEMMB@TextColor?$AA@ 100231e0     Config.obj
 0002:000021ec       ??_C@_07ECEMPDJM@General?$AA@ 100231ec     Config.obj
 0002:000021f4       ??_C@_05GCIPIGEI@Debug?$AA@ 100231f4     Config.obj
 0002:000021fc       ??_C@_0BF@PFFINNOD@AllowJoinsInProgress?$AA@ 100231fc     Config.obj
 0002:00002214       ??_C@_05HDIPJJLA@?1help?$AA@ 10023214     Console.obj
 0002:0000221c       ??_C@_05KFIJMCHK@?1test?$AA@ 1002321c     Console.obj
 0002:00002224       ??_C@_0CK@EJIGFNKD@Draw?5visibility?5stats?5for?5highli@ 10023224     Console.obj
 0002:00002250       ??_C@_04CJPMCFIM@?1vst?$AA@ 10023250     Console.obj
 0002:00002258       ??_C@_0L@CIFNLLLA@?1vis_stats?$AA@ 10023258     Console.obj
 0002:00002264       ??_C@_0CD@PJJLKBDD@Set?5transparency?5distance?5modifi@ 10023264     Console.obj
 0002:00002288       ??_C@_03HEIDPBKE@?1td?$AA@ 10023288     Console.obj
 0002:0000228c       ??_C@_0BA@JOMBOPDP@?1trans_distance?$AA@ 1002328c     Console.obj
 0002:0000229c       ??_C@_0BM@GPCEJMIA@Set?5max?5player?5transparency?$AA@ 1002329c     Console.obj
 0002:000022b8       ??_C@_03KFEBEKON@?1tm?$AA@ 100232b8     Console.obj
 0002:000022bc       ??_C@_0L@DHGJDGGM@?1trans_max?$AA@ 100232bc     Console.obj
 0002:000022c8       ??_C@_0DD@PKFBMBFD@?$DMcoords?$DO?5Move?5to?5the?5specified?5x@ 100232c8     Console.obj
 0002:000022fc       ??_C@_03FKCNCGPB@?1tp?$AA@ 100232fc     Console.obj
 0002:00002300       ??_C@_09FPJEMPM@?1teleport?$AA@ 10023300     Console.obj
 0002:0000230c       ??_C@_0O@BKOCIDBA@Show?5sim?5time?$AA@ 1002330c     Console.obj
 0002:0000231c       ??_C@_03DLAOPFHA@?1st?$AA@ 1002331c     Console.obj
 0002:00002320       ??_C@_09KBOJCFEE@?1sim_time?$AA@ 10023320     Console.obj
 0002:0000232c       ??_C@_0CC@DGHCEGCP@Reinitialize?5sound?5effects?5syste@ 1002332c     Console.obj
 0002:00002350       ??_C@_05FPBDPJOD@?1sfxr?$AA@ 10023350     Console.obj
 0002:00002358       ??_C@_0L@HCMOAOHA@?1sfx_reset?$AA@ 10023358     Console.obj
 0002:00002364       ??_C@_0DF@EOBLOMNI@?$DMobj?5name?$DO?5Create?5an?5object?5at?5t@ 10023364     Console.obj
 0002:0000239c       ??_C@_02DHLNANAF@?1s?$AA@  1002339c     Console.obj
 0002:000023a0       ??_C@_07CMPPFALO@?1summon?$AA@ 100233a0     Console.obj
 0002:000023a8       ??_C@_0BC@JBLCIJOM@Kill?5local?5player?$AA@ 100233a8     Console.obj
 0002:000023bc       ??_C@_05JIIOABIF@?1kill?$AA@ 100233bc     Console.obj
 0002:000023c4       ??_C@_08DICCNIEE@?1suicide?$AA@ 100233c4     Console.obj
 0002:000023d0       ??_C@_0BP@BCKJEEAH@Reload?5settings?5from?5?4ini?5file?$AA@ 100233d0     Console.obj
 0002:000023f0       ??_C@_02COKGDMEE@?1r?$AA@  100233f0     Console.obj
 0002:000023f4       ??_C@_07OOEGHNCK@?1reload?$AA@ 100233f4     Console.obj
 0002:000023fc       ??_C@_0BK@JEFACNBP@?$DMqvar?$DO?5Get?5quest?5variable?$AA@ 100233fc     Console.obj
 0002:00002418       ??_C@_03FJGFGAIM@?1qg?$AA@ 10023418     Console.obj
 0002:0000241c       ??_C@_0L@OOGGFEBJ@?1quest_get?$AA@ 1002341c     Console.obj
 0002:00002428       ??_C@_0BL@MLOOMLCA@Display?5objectives?5overlay?$AA@ 10023428     Console.obj
 0002:00002444       ??_C@_0N@MGJFLAHA@?1obj_overlay?$AA@ 10023444     Console.obj
 0002:00002454       ??_C@_0BM@DAIEPDCJ@Display?5highlighted?5obj?5num?$AA@ 10023454     Console.obj
 0002:00002470       ??_C@_04OLPCBNBE@?1ohi?$AA@ 10023470     Console.obj
 0002:00002478       ??_C@_0N@IBODFEJD@?1obj_highlit?$AA@ 10023478     Console.obj
 0002:00002488       ??_C@_0BN@NAECBKCN@?$DMobj?5name?$DO?5Display?5object?5ID?$AA@ 10023488     Console.obj
 0002:000024a8       ??_C@_03NBFOMDHI@?1oi?$AA@ 100234a8     Console.obj
 0002:000024ac       ??_C@_07IEDCOMCF@?1obj_id?$AA@ 100234ac     Console.obj
 0002:000024b4       ??_C@_0CB@GGKNBADE@?$DMobj?5num?$DO?5Display?5object?5details@ 100234b4     Console.obj
 0002:000024d8       ??_C@_03GEPALNDF@?1od?$AA@ 100234d8     Console.obj
 0002:000024dc       ??_C@_0N@OHOKJNPC@?1obj_details?$AA@ 100234dc     Console.obj
 0002:000024ec       ??_C@_0BL@HKGKHLEI@Display?5all?5player?5objects?$AA@ 100234ec     Console.obj
 0002:00002508       ??_C@_03EKFOGKGA@?1op?$AA@ 10023508     Console.obj
 0002:0000250c       ??_C@_0N@NFGGJJFJ@?1obj_players?$AA@ 1002350c     Console.obj
 0002:0000251c       ??_C@_0BD@FOOMPNFB@Draw?5network?5stats?$AA@ 1002351c     Console.obj
 0002:00002530       ??_C@_04LMFBFKPM@?1nst?$AA@ 10023530     Console.obj
 0002:00002538       ??_C@_0L@PANFIAKB@?1net_stats?$AA@ 10023538     Console.obj
 0002:00002544       ??_C@_0BG@NEHCIMDL@Display?5network?5state?$AA@ 10023544     Console.obj
 0002:0000255c       ??_C@_03GALBFDJE@?1ns?$AA@ 1002355c     Console.obj
 0002:00002560       ??_C@_0L@OMENDFHG@?1net_state?$AA@ 10023560     Console.obj
 0002:0000256c       ??_C@_0DF@KKKJLEDH@?$DMobj?5num?$DO?5Remove?5an?5item?5from?5th@ 1002356c     Console.obj
 0002:000025a4       ??_C@_03HMOFHEFA@?1ir?$AA@ 100235a4     Console.obj
 0002:000025a8       ??_C@_08GINCOIPL@?1inv_rem?$AA@ 100235a8     Console.obj
 0002:000025b4       ??_C@_0DG@NGHFPDKP@?$DMobj?1arch?5name?$DO?5Add?5an?5item?5to?5t@ 100235b4     Console.obj
 0002:000025ec       ??_C@_03BNAKDFMC@?1ia?$AA@ 100235ec     Console.obj
 0002:000025f0       ??_C@_08PKHOMBPE@?1inv_add?$AA@ 100235f0     Console.obj
 0002:000025fc       ??_C@_0BH@IKOIKEHP@List?5all?5remote?5ghosts?$AA@ 100235fc     Console.obj
 0002:00002614       ??_C@_0M@BGKCGEAE@?1ghost_list?$AA@ 10023614     Console.obj
 0002:00002620       ??_C@_0DH@ELODMOCH@?$DMobj?1arch?5name?$DO?5Find?5all?5objects@ 10023620     Console.obj
 0002:00002658       ??_C@_03BGFGHCPP@?1fa?$AA@ 10023658     Console.obj
 0002:0000265c       ??_C@_09LLEOCIAN@?1find_all?$AA@ 1002365c     Console.obj
 0002:00002668       ??_C@_0CH@BGMIBLOP@?$DMobj?5num?$DO?5Enumerate?5container?5co@ 10023668     Console.obj
 0002:00002690       ??_C@_03KFDDMOFJ@?1cl?$AA@ 10023690     Console.obj
 0002:00002694       ??_C@_0O@EKOHMPA@?1contain_list?$AA@ 10023694     Console.obj
 0002:000026a4       ??_C@_0BE@PNOOPAKA@Clear?5chat?5messages?$AA@ 100236a4     Console.obj
 0002:000026b8       ??_C@_06NBCADDBO@?1clear?$AA@ 100236b8     Console.obj
 0002:000026c0       ??_C@_0BO@ECHAIIDN@Toggle?5AI?5movement?5prediction?$AA@ 100236c0     Console.obj
 0002:000026e0       ??_C@_0P@ODGFHAD@?1ai_prediction?$AA@ 100236e0     Console.obj
 0002:000026f0       ??_C@_03CBEGHNOI@?$AN?6?$AA?$AA@ 100236f0     Console.obj
 0002:000026f4       ??_C@_0BD@DBOLFBGP@Player?5?$CFd?3?5?$CFs?5?$CI?$CFx?$CJ?$AA@ 100236f4     Console.obj
 0002:00002708       ??_C@_0N@IBCKNDIA@Sim?5time?3?5?$CFd?$AA@ 10023708     Console.obj
 0002:00002718       ??_C@_0BD@KADNBNMH@Reinitialized?5SFX?4?$AA@ 10023718     Console.obj
 0002:0000272c       ??_C@_0BD@OLDKCIFL@Settings?5reloaded?4?$AA@ 1002372c     Console.obj
 0002:00002740       ??_C@_0BH@NGJGLGPE@coords?3?5x?5?$CFf?5y?5?$CFf?5z?5?$CFf?$AA@ 10023740     Console.obj
 0002:00002758       ??_C@_0BL@NDAFHEPB@Teleported?5to?5coordinates?4?$AA@ 10023758     Console.obj
 0002:00002774       ??_C@_0BN@GMGABFDN@Teleported?5to?5last?5location?4?$AA@ 10023774     Console.obj
 0002:00002794       ??_C@_08FDEKCAPF@?5?$CFs?5?9?5?$CFs?$AA@ 10023794     Console.obj
 0002:000027a0       ??_C@_0BB@KGBEKPAB@Highlit?5obj?3?5?$CFd?4?$AA@ 100237a0     Console.obj
 0002:000027b4       ??_C@_0BD@FONHNAE@objectives_overlay?$AA@ 100237b4     Console.obj
 0002:000027c8       ??_C@_0BC@CIAPMGGG@Not?5network?5game?4?$AA@ 100237c8     Console.obj
 0002:000027dc       ??_C@_0CC@KCKLHOFB@Client?5in?5a?5game?5with?5?$CFd?5players@ 100237dc     Console.obj
 0002:00002800       ??_C@_0CA@CKONIOBL@Hosting?5a?5game?5with?5?$CFd?5players?4?$AA@ 10023800     Console.obj
 0002:00002820       ??_C@_02DKCKIIND@?$CFs?$AA@ 10023820     Console.obj
 0002:00002824       ??_C@_0BF@JFDHLIGA@Inventory?5contains?3?5?$AA@ 10023824     Console.obj
 0002:0000283c       ??_C@_0CA@BBANGNGF@Unable?5to?5find?5object?5named?5?$CFs?4?$AA@ 1002383c     Console.obj
 0002:0000285c       ??_C@_0CC@CHHIDFDA@Failed?5to?5add?5object?5to?5inventor@ 1002385c     Console.obj
 0002:00002880       ??_C@_0BJ@OHOGLNLN@Failed?5to?5remove?5object?4?$AA@ 10023880     Console.obj
 0002:0000289c       ??_C@_0M@PJGDBPPI@Removed?5?$CFs?4?$AA@ 1002389c     Console.obj
 0002:000028a8       ??_C@_0BJ@PCFONGAE@Failed?5to?5create?5object?4?$AA@ 100238a8     Console.obj
 0002:000028c4       ??_C@_0BO@KLDGIPBH@Created?5an?5object?5with?5ID?5?$CFd?4?$AA@ 100238c4     Console.obj
 0002:000028e4       ??_C@_0BH@BFEAMEC@Object?5does?5not?5exist?4?$AA@ 100238e4     Console.obj
 0002:000028fc       ??_C@_0BK@NLFNNBGO@?5?5Location?5controlled?3?5?$CFd?$AA@ 100238fc     Console.obj
 0002:00002918       ??_C@_0BH@DFEKFKML@?5?5Phys?5friction?3?5?$CF0?42f?$AA@ 10023918     Console.obj
 0002:00002930       ??_C@_0BP@JBKEKIMO@?5?5Phys?5model?5elasticity?3?5?$CF0?42f?$AA@ 10023930     Console.obj
 0002:00002950       ??_C@_0CD@BPFBHCB@?5?5Phys?5mass?3?5?$CF0?42f?5?$CIphysmod?5?$CF0?42@ 10023950     Console.obj
 0002:00002974       ??_C@_0BG@NFKKIKFG@?5?5Phys?5gravity?3?5?$CF0?42f?$AA@ 10023974     Console.obj
 0002:0000298c       ??_C@_0BJ@DPFMLFPB@?5?5Phys?5model?5flags?3?50x?$CFx?$AA@ 1002398c     Console.obj
 0002:000029a8       ??_C@_0BI@EKNFJGJB@?5?5Physics?5submodels?3?5?$CFd?$AA@ 100239a8     Console.obj
 0002:000029c0       ??_C@_0BC@KBCHGEPG@?5?5Creature?5?$DN?50x?$CFX?$AA@ 100239c0     Console.obj
 0002:000029d4       ??_C@_0BE@NLDGOLKD@?5?5Contained?5by?3?5?$CFs?4?$AA@ 100239d4     Console.obj
 0002:000029e8       ??_C@_0CK@IOCBACMO@?5?5Object?5has?5an?5unknown?5network?5@ 100239e8     Console.obj
 0002:00002a14       ??_C@_0BI@CJODFJDP@?5?5Object?5is?5local?5only?4?$AA@ 10023a14     Console.obj
 0002:00002a2c       ??_C@_0BK@DNMKPAFG@?5?5Object?5is?5hosted?5by?5?$CFd?4?$AA@ 10023a2c     Console.obj
 0002:00002a48       ??_C@_0BM@JDCKHACA@?5?5Object?5is?5hosted?5locally?4?$AA@ 10023a48     Console.obj
 0002:00002a64       ??_C@_0DE@JLLMNH@?5?5Velocity?3?5?$CF0?42f?5?$CF0?42f?5?$CF0?42f?5?9?5@ 10023a64     Console.obj
 0002:00002a98       ??_C@_0BO@HJJFCFKJ@?5?5Distance?5from?5player?3?5?$CF0?42f?$AA@ 10023a98     Console.obj
 0002:00002ab8       ??_C@_0BO@OPHFDAAE@?5?5Position?3?5?$CF0?43f?5?$CF0?43f?5?$CF0?43f?$AA@ 10023ab8     Console.obj
 0002:00002ad8       ??_C@_0CB@LJJBJFGH@?5?5Speech?3?5schema?5?$CFs?0?5concept?5?$CFs?4@ 10023ad8     Console.obj
 0002:00002afc       ??_C@_0CL@EGGPNKEP@?5?5Frob?5info?3?5world?5?$DN?5?$CFx?5inv?5?$DN?5?$CFx@ 10023afc     Console.obj
 0002:00002b28       ??_C@_0BB@EAEDGLCC@?5?5Hit?5points?3?5?$CFd?$AA@ 10023b28     Console.obj
 0002:00002b3c       ??_C@_0BB@MDJHDBGM@?5?5Model?5name?3?5?$CFs?$AA@ 10023b3c     Console.obj
 0002:00002b50       ??_C@_0BA@NDIDNPDH@?5?5Archetype?3?5?$CFs?$AA@ 10023b50     Console.obj
 0002:00002b60       ??_C@_0BH@KPJIACLA@Details?5for?5object?5?$CFs?3?$AA@ 10023b60     Console.obj
 0002:00002b78       ??_C@_0M@FANDMGBF@qvar?5?$CFs?3?5?$CFd?$AA@ 10023b78     Console.obj
 0002:00002b84       ??_C@_0BB@GECIMJFF@?$CK?$CK?$CK?5END?5LIST?5?$CK?$CK?$CK?$AA@ 10023b84     Console.obj
 0002:00002b98       ??_C@_0BC@PNPHDHBF@?$CFs?3?5hosted?5by?5?$CFd?4?$AA@ 10023b98     Console.obj
 0002:00002bac       ??_C@_0BE@EANBNJHD@?$CK?$CK?$CK?5GHOST?5LIST?3?5?$CK?$CK?$CK?$AA@ 10023bac     Console.obj
 0002:00002bc0       ??_C@_0M@PJLCEJJI@?$CFs?5is?5a?5?$CFs?4?$AA@ 10023bc0     Console.obj
 0002:00002bcc       ??_C@_0BA@MBJJEIDM@overlay_players?$AA@ 10023bcc     Console.obj
 0002:00002bdc       ??_C@_0N@KGELPNJL@overlay_book?$AA@ 10023bdc     Console.obj
 0002:00002bec       ??_C@_04BLJLMHHG@chat?$AA@ 10023bec     Console.obj
 0002:00002bf4       ??_C@_0M@BHEJEHC@showplayers?$AA@ 10023bf4     Console.obj
 0002:00002c00       ??_C@_05BGIJDFHP@intro?$AA@ 10023c00     DarkPanels.obj
 0002:00002c08       ??_C@_07JKABFLJI@credits?$AA@ 10023c08     DarkPanels.obj
 0002:00002c10       ??_C@_08LFOMBGDL@smalfont?$AA@ 10023c10     DarkUIUtils.obj
 0002:00002c1c       ??_C@_08BPKLDJKM@textfont?$AA@ 10023c1c     DarkUIUtils.obj
 0002:00002c28       ??_C@_04IEDBBIIG@Font?$AA@ 10023c28     DarkUIUtils.obj
 0002:00002c30       ??_C@_08LFGJMOMF@intrface?$AA@ 10023c30     DarkUIUtils.obj
 0002:00002c40       __real@3fe0000000000000    10023c40     DarkUIUtils.obj
 0002:00002c48       ??_C@_0L@FCMALLDM@DebugFlags?$AA@ 10023c48     Debug.obj
 0002:00002c58       __real@3fe8000000000000    10023c58     Difficulty.obj
 0002:00002c60       ??_C@_1EO@JDEPABOG@?$AAf?$AAa?$AAl?$AAs?$AAe?$AA?5?$AA?$CG?$AA?$CG?$AA?5?$AA?$CC?$AAu?$AAn?$AAe?$AAx?$AAp?$AAe?$AAc?$AAt?$AAe?$AAd?$AA?5?$AAc?$AAa?$AAl?$AAl?$AA?5?$AAt?$AAo?$AA?5?$AAA?$AAd?$AAd@ 10023c60     DP4Wrapper.obj
 0002:00002cb0       ??_C@_1DC@CCOCAOOL@?$AA?4?$AA?4?$AA?2?$AAs?$AAo?$AAu?$AAr?$AAc?$AAe?$AA?2?$AAD?$AAP?$AA4?$AAW?$AAr?$AAa?$AAp?$AAp?$AAe?$AAr?$AA?4?$AAc?$AAp?$AAp?$AA?$AA@ 10023cb0     DP4Wrapper.obj
 0002:00002ce8       ??_C@_1FO@NPKKFKMO@?$AAf?$AAa?$AAl?$AAs?$AAe?$AA?5?$AA?$CG?$AA?$CG?$AA?5?$AA?$CC?$AAu?$AAn?$AAe?$AAx?$AAp?$AAe?$AAc?$AAt?$AAe?$AAd?$AA?5?$AAc?$AAa?$AAl?$AAl?$AA?5?$AAt?$AAo?$AA?5?$AAQ?$AAu?$AAe@ 10023ce8     DP4Wrapper.obj
 0002:00002d48       ??_C@_0BK@MNELMFAD@?$CFs?3?5method?5unimplemented?4?$AA@ 10023d48     DP4Wrapper.obj
 0002:00002d64       ??_C@_0BM@GFBDDBN@CDPWrapper?3?3AddGroupToGroup?$AA@ 10023d64     DP4Wrapper.obj
 0002:00002d80       ??_C@_0BN@DLLAAGL@CDPWrapper?3?3AddPlayerToGroup?$AA@ 10023d80     DP4Wrapper.obj
 0002:00002da0       ??_C@_0BK@HLKAMPEM@CDPWrapper?3?3CancelMessage?$AA@ 10023da0     DP4Wrapper.obj
 0002:00002dbc       ??_C@_0BL@MHNMKAJJ@CDPWrapper?3?3CancelPriority?$AA@ 10023dbc     DP4Wrapper.obj
 0002:00002dd8       ??_C@_0BI@MMHELIOJ@CDPWrapper?3?3CreateGroup?$AA@ 10023dd8     DP4Wrapper.obj
 0002:00002df0       ??_C@_0BP@DCDMDGHA@CDPWrapper?3?3CreateGroupInGroup?$AA@ 10023df0     DP4Wrapper.obj
 0002:00002e10       ??_C@_0CC@EKOLBBNJ@Setting?5local?5client?5DPNID?5to?5?$CFx@ 10023e10     DP4Wrapper.obj
 0002:00002e34       ??_C@_0CA@OBFMOOMO@Setting?5local?5host?5DPNID?5to?5?$CFx?4?$AA@ 10023e34     DP4Wrapper.obj
 0002:00002e54       ??_C@_0CB@HBFBKPIF@CDPWrapper?3?3DeleteGroupFromGroup@ 10023e54     DP4Wrapper.obj
 0002:00002e78       ??_C@_0CC@LNKNAGNI@CDPWrapper?3?3DeletePlayerFromGrou@ 10023e78     DP4Wrapper.obj
 0002:00002e9c       ??_C@_0BJ@JLDMBKON@CDPWrapper?3?3DestroyGroup?$AA@ 10023e9c     DP4Wrapper.obj
 0002:00002eb8       ??_C@_0BM@NDHEJOIH@CDPWrapper?3?3EnumConnections?$AA@ 10023eb8     DP4Wrapper.obj
 0002:00002ed4       ??_C@_0BN@FHMHOHAD@CDPWrapper?3?3EnumGroupPlayers?$AA@ 10023ed4     DP4Wrapper.obj
 0002:00002ef4       ??_C@_0BH@KMJMGDMI@CDPWrapper?3?3EnumGroups?$AA@ 10023ef4     DP4Wrapper.obj
 0002:00002f0c       ??_C@_0BO@INJDKJ@CDPWrapper?3?3EnumGroupsInGroup?$AA@ 10023f0c     DP4Wrapper.obj
 0002:00002f2c       ??_C@_0CP@LCDOLALB@Calling?5destroy?5net?5player?5callb@ 10023f2c     DP4Wrapper.obj
 0002:00002f5c       ??_C@_0CJ@NCBIKAKJ@Calling?5enum?5players?5callback?5fo@ 10023f5c     DP4Wrapper.obj
 0002:00002f88       ??_C@_0CI@KPODMHNC@Calling?5init?5existing?5player?5for@ 10023f88     DP4Wrapper.obj
 0002:00002fb0       ??_C@_0DG@KMCMINBC@ERROR?3?5Failed?5to?5enumerate?5playe@ 10023fb0     DP4Wrapper.obj
 0002:00002fe8       ??_C@_0BE@LHBGLMAC@CDPWrapper?3?3GetCaps?$AA@ 10023fe8     DP4Wrapper.obj
 0002:00002ffc       ??_C@_0CH@MMPBLBKK@CDPWrapper?3?3GetGroupConnectionSe@ 10023ffc     DP4Wrapper.obj
 0002:00003024       ??_C@_0BJ@MOHDHEMI@CDPWrapper?3?3GetGroupData?$AA@ 10024024     DP4Wrapper.obj
 0002:00003040       ??_C@_0BK@EHHBKNGG@CDPWrapper?3?3GetGroupFlags?$AA@ 10024040     DP4Wrapper.obj
 0002:0000305c       ??_C@_0BJ@PDFIDBJC@CDPWrapper?3?3GetGroupName?$AA@ 1002405c     DP4Wrapper.obj
 0002:00003078       ??_C@_0BK@DFLCKPEE@CDPWrapper?3?3GetGroupOwner?$AA@ 10024078     DP4Wrapper.obj
 0002:00003094       ??_C@_0BL@MOOCKGOC@CDPWrapper?3?3GetGroupParent?$AA@ 10024094     DP4Wrapper.obj
 0002:000030b0       ??_C@_0BM@DNHHILMK@CDPWrapper?3?3GetMessageCount?$AA@ 100240b0     DP4Wrapper.obj
 0002:000030cc       ??_C@_0BM@EKIKJPGH@CDPWrapper?3?3GetMessageQueue?$AA@ 100240cc     DP4Wrapper.obj
 0002:000030e8       ??_C@_0BN@PCIIMGPL@CDPWrapper?3?3GetPlayerAccount?$AA@ 100240e8     DP4Wrapper.obj
 0002:00003108       ??_C@_0BK@JGEDPIFK@CDPWrapper?3?3GetPlayerCaps?$AA@ 10024108     DP4Wrapper.obj
 0002:00003124       ??_C@_0BL@NEONLPHD@CDPWrapper?3?3GetPlayerFlags?$AA@ 10024124     DP4Wrapper.obj
 0002:00003140       ??_C@_0BK@GGLFLJBP@CDPWrapper?3?3GetPlayerName?$AA@ 10024140     DP4Wrapper.obj
 0002:0000315c       ??_C@_0BL@PLCMANDI@CDPWrapper?3?3GetSessionDesc?$AA@ 1002415c     DP4Wrapper.obj
 0002:00003178       ??_C@_0BH@NJCGPKGI@CDPWrapper?3?3Initialize?$AA@ 10024178     DP4Wrapper.obj
 0002:00003190       ??_C@_0BG@JOCKIDDP@Host?5failed?3?5?$CFs?5?$CI?$CFx?$CJ?4?$AA@ 10024190     DP4Wrapper.obj
 0002:000031a8       ??_C@_0BH@JFKNONLF@CDPWrapper?3?3SecureOpen?$AA@ 100241a8     DP4Wrapper.obj
 0002:000031c0       ??_C@_0BB@OAIEHJB@CDPWrapper?3?3Send?$AA@ 100241c0     DP4Wrapper.obj
 0002:000031d4       ??_C@_0BM@HKHHOOKC@CDPWrapper?3?3SendChatMessage?$AA@ 100241d4     DP4Wrapper.obj
 0002:000031f0       ??_C@_0CH@PDMEHBLK@CDPWrapper?3?3SetGroupConnectionSe@ 100241f0     DP4Wrapper.obj
 0002:00003218       ??_C@_0BJ@LKMNLIIE@CDPWrapper?3?3SetGroupData?$AA@ 10024218     DP4Wrapper.obj
 0002:00003234       ??_C@_0BJ@IHOGPNNO@CDPWrapper?3?3SetGroupName?$AA@ 10024234     DP4Wrapper.obj
 0002:00003250       ??_C@_0BK@EKKMBMDD@CDPWrapper?3?3SetGroupOwner?$AA@ 10024250     DP4Wrapper.obj
 0002:0000326c       ??_C@_0BK@BJKLAKGI@CDPWrapper?3?3SetPlayerName?$AA@ 1002426c     DP4Wrapper.obj
 0002:00003288       ??_C@_0BL@DFDCPHBE@CDPWrapper?3?3SetSessionDesc?$AA@ 10024288     DP4Wrapper.obj
 0002:000032a4       ??_C@_0BJ@HNGHPFBN@CDPWrapper?3?3StartSession?$AA@ 100242a4     DP4Wrapper.obj
 0002:000032c0       ??_C@_0CF@NCDFGDBF@Finished?5receiving?5existing?5play@ 100242c0     DP4Wrapper.obj
 0002:000032ec       ??_7CDPWrapper@@6B@        100242ec     DP4Wrapper.obj
 0002:000033c0       ??_C@_0BL@DKLMEMOF@Error?5in?5CoCreateInstance?4?$AA@ 100243c0     DP4Wrapper.obj
 0002:000033dc       ??_C@_0CF@HAFLBNA@Attempted?5to?5get?5remote?5player?5d@ 100243dc     DP4Wrapper.obj
 0002:00003408       ??_C@_0EF@EAGDNIFL@DirectPlay?3?5setting?5player?5data?5@ 10024408     DP4Wrapper.obj
 0002:00003450       ??_C@_0DO@LAPJKEGG@Debug?3?5Spring?5info?5array?5bounds?5@ 10024450     ErrorHanding.obj
 0002:00003490       ??_C@_0CN@LFCEGNDC@Recovered?5from?5collision?5resolve@ 10024490     ErrorHanding.obj
 0002:000034c0       ??_C@_0DB@MEKEAEMB@Exception?5in?5loop?5sample?5callbac@ 100244c0     ErrorHanding.obj
 0002:000034f4       ??_C@_0CH@FEJKGDFH@Sound?5propagation?5error?3?5?$CFs?5on?5?$CF@ 100244f4     ErrorHanding.obj
 0002:0000351c       ??_C@_0DK@EDLEJPIE@Exception?5in?5SpeechEnd?3?5tried?5to@ 1002451c     ErrorHanding.obj
 0002:00003558       ??_C@_0CK@OGMAMCCH@DEBUG?3?5vec?5?$CFd?5is?5null?5on?5vector?5@ 10024558     ErrorHanding.obj
 0002:00003584       ??_C@_0CP@KLOJHGP@DEBUG?3?5vec?5?$CFd?5is?5null?5on?5vector?5@ 10024584     ErrorHanding.obj
 0002:000035b8       ??_C@_0BAG@CJKMHLAA@Could?5not?5find?5original?5version?5@ 100245b8     FileHash.obj
 0002:000036c0       ??_C@_0M@CKEEHMOG@convict?4osm?$AA@ 100246c0     FileHash.obj
 0002:000036cc       ??_C@_0CA@NIGHLBG@Thief?52?5Multiplayer?5Fatal?5Error?$AA@ 100246cc     FileHash.obj
 0002:000036ec       ??_C@_07DANDDBIP@gen?4osm?$AA@ 100246ec     FileHash.obj
 0002:000036f4       ??_C@_0CC@LFADCEGO@acache?3?5?$CFs?5changed?5from?5?$CFd?5to?5?$CFd@ 100246f4     Gamesys.obj
 0002:00003718       ??_C@_0BK@HHNJDPNI@acache?3?5failed?5to?5load?5?$CFs?$AA@ 10024718     Gamesys.obj
 0002:00003734       ??_C@_0BN@IKAKFCGH@acache?3?5Failed?5to?5create?5?$CFs?4?$AA@ 10024734     Gamesys.obj
 0002:00003754       ??_C@_09GBFECNMG@DonorType?$AA@ 10024754     Gamesys.obj
 0002:00003760       ??_C@_1KC@HKMJNGOC@?$AAA?$AAr?$AAc?$AAh?$AA?4?$AAA?$AAv?$AAa?$AAt?$AAa?$AAr?$AAW?$AAe?$AAa?$AAp?$AAo?$AAn?$AAs?$AA?5?$AA?$CG?$AA?$CG?$AA?5?$AAA?$AAr?$AAc?$AAh?$AA?4?$AAA?$AAv?$AAa?$AAt?$AAa@ 10024760     Gamesys.obj
 0002:00003804       ??_C@_1CM@FMKIBKJP@?$AA?4?$AA?4?$AA?2?$AAs?$AAo?$AAu?$AAr?$AAc?$AAe?$AA?2?$AAG?$AAa?$AAm?$AAe?$AAs?$AAy?$AAs?$AA?4?$AAc?$AAp?$AAp?$AA?$AA@ 10024804     Gamesys.obj
 0002:00003830       ??_C@_04NDCPHJKL@Swag?$AA@ 10024830     Gamesys.obj
 0002:00003838       ??_C@_08IPCJNFPN@FakeLoot?$AA@ 10024838     Gamesys.obj
 0002:00003848       ??_C@_1GI@LFLMGJNJ@?$AAg?$AA_?$AAp?$AAT?$AAr?$AAa?$AAi?$AAt?$AAM?$AAa?$AAn?$AA?9?$AA?$DO?$AAG?$AAe?$AAt?$AAA?$AAr?$AAc?$AAh?$AAe?$AAt?$AAy?$AAp?$AAe?$AA?$CI?$AAm?$AAp?$AAA?$AAv?$AAa?$AAt@ 10024848     Gamesys.obj
 0002:000038b0       ??_C@_1FG@DNDEBOEL@?$AAs?$AAu?$AAc?$AAc?$AAe?$AAs?$AAs?$AA?5?$AA?$CG?$AA?$CG?$AA?5?$AA?$CC?$AAf?$AAa?$AAi?$AAl?$AAe?$AAd?$AA?5?$AAt?$AAo?$AA?5?$AAg?$AAe?$AAt?$AA?5?$AAs?$AAc?$AAr?$AAi?$AAp?$AAt@ 100248b0     Gamesys.obj
 0002:00003908       ??_C@_05OHCDHBAC@Human?$AA@ 10024908     Gamesys.obj
 0002:00003910       __real@3fb47ae1            10024910     Gamesys.obj
 0002:00003914       ??_C@_06BALNJMNP@player?$AA@ 10024914     Gamesys.obj
 0002:0000391c       ??_C@_1BK@JEOOFLAL@?$AAA?$AAr?$AAc?$AAh?$AA?4?$AAG?$AAa?$AAr?$AAr?$AAe?$AAt?$AAt?$AA?$AA@ 1002491c     Gamesys.obj
 0002:00003938       ??_C@_05GCALAAOD@basso?$AA@ 10024938     Gamesys.obj
 0002:00003940       ??_C@_08JEILJBCG@malsev01?$AA@ 10024940     Gamesys.obj
 0002:0000394c       ??_C@_08PPLFEGHM@keeper01?$AA@ 1002494c     Gamesys.obj
 0002:00003958       ??_C@_08MFEGGEBG@ThiefM02?$AA@ 10024958     Gamesys.obj
 0002:00003964       ??_C@_04FKEOBDO@bow2?$AA@  10024964     Gamesys.obj
 0002:0000396c       ??_C@_08NDAGPFLN@blacjack?$AA@ 1002496c     Gamesys.obj
 0002:00003978       ??_C@_06DIKMBGAM@swords?$AA@ 10024978     Gamesys.obj
 0002:00003980       ??_C@_03BHGKGIB@SFX?$AA@   10024980     Gamesys.obj
 0002:00003984       ??_C@_0N@KLIGDAIF@Avatar?5Sword?$AA@ 10024984     Gamesys.obj
 0002:00003994       ??_C@_0BB@INDNNPEM@Avatar?5Blackjack?$AA@ 10024994     Gamesys.obj
 0002:000039a8       ??_C@_0L@KDOJEAGL@Avatar?5Bow?$AA@ 100249a8     Gamesys.obj
 0002:000039b4       ??_C@_0P@MFLGANDH@Avatar?5Weapons?$AA@ 100249b4     Gamesys.obj
 0002:000039c4       ??_C@_09MGOOFHNO@pickup_?$CFs?$AA@ 100249c4     Gamesys.obj
 0002:000039d0       ??_C@_0BH@OJBLGODO@an?5exploding?5frogbeast?$AA@ 100249d0     Gamesys.obj
 0002:000039e8       ??_C@_09BGCAAEIJ@FrogSplat?$AA@ 100249e8     Gamesys.obj
 0002:000039f4       ??_C@_0BD@GBOOLFNJ@a?5Hammerite?5worker?$AA@ 100249f4     Gamesys.obj
 0002:00003a08       ??_C@_0L@PIFNNALN@ham?5worker?$AA@ 10024a08     Gamesys.obj
 0002:00003a14       ??_C@_0BD@MNCPPKKL@a?5Hammerite?5novice?$AA@ 10024a14     Gamesys.obj
 0002:00003a28       ??_C@_0L@FEJMJPMP@ham?5novice?$AA@ 10024a28     Gamesys.obj
 0002:00003a34       ??_C@_0BD@KCBPDDPG@a?5Hammerite?5priest?$AA@ 10024a34     Gamesys.obj
 0002:00003a48       ??_C@_0L@DLKMFGJC@ham?5priest?$AA@ 10024a48     Gamesys.obj
 0002:00003a54       ??_C@_09MIHBMPO@hamguard2?$AA@ 10024a54     Gamesys.obj
 0002:00003a60       ??_C@_0BC@FKIHMGLJ@a?5Hammerite?5guard?$AA@ 10024a60     Gamesys.obj
 0002:00003a74       ??_C@_09OALDBILK@ham?5guard?$AA@ 10024a74     Gamesys.obj
 0002:00003a80       ??_C@_08KPDLBKCL@a?5turret?$AA@ 10024a80     Gamesys.obj
 0002:00003a8c       ??_C@_06KJINBPNG@Turret?$AA@ 10024a8c     Gamesys.obj
 0002:00003a94       ??_C@_07FMCPGAJD@a?5haunt?$AA@ 10024a94     Gamesys.obj
 0002:00003a9c       ??_C@_05FMJPICNG@Haunt?$AA@ 10024a9c     Gamesys.obj
 0002:00003aa4       ??_C@_08LFCDMNDD@a?5zombie?$AA@ 10024aa4     Gamesys.obj
 0002:00003ab0       ??_C@_0M@JDAAFMAO@ZombieTypes?$AA@ 10024ab0     Gamesys.obj
 0002:00003abc       ??_C@_08HOMGAIJM@a?5bowman?$AA@ 10024abc     Gamesys.obj
 0002:00003ac8       ??_C@_06LHMNDEPN@bowman?$AA@ 10024ac8     Gamesys.obj
 0002:00003ad0       ??_C@_0M@BMPBGKAB@a?5swordsman?$AA@ 10024ad0     Gamesys.obj
 0002:00003adc       ??_C@_09LBMFGLKI@swordsman?$AA@ 10024adc     Gamesys.obj
 0002:00003ae8       ??_C@_0M@JEKMLMKA@a?5Mechanist?$AA@ 10024ae8     Gamesys.obj
 0002:00003af4       ??_C@_09DJJILNAJ@Mechanist?$AA@ 10024af4     Gamesys.obj
 0002:00003b00       ??_C@_0P@MLGHLAHI@a?5sewer?5spider?$AA@ 10024b00     Gamesys.obj
 0002:00003b10       ??_C@_0M@GIDENOMN@SewerSpider?$AA@ 10024b10     Gamesys.obj
 0002:00003b1c       ??_C@_0O@FEKLFOMB@a?5huge?5spider?$AA@ 10024b1c     Gamesys.obj
 0002:00003b2c       ??_C@_0L@CCPGCDOL@HugeSpider?$AA@ 10024b2c     Gamesys.obj
 0002:00003b38       ??_C@_08NMFFOJJE@a?5Keeper?$AA@ 10024b38     Gamesys.obj
 0002:00003b44       ??_C@_0M@CKDNFMFF@KeeperAgent?$AA@ 10024b44     Gamesys.obj
 0002:00003b50       ??_C@_07INFOPKBO@a?5robot?$AA@ 10024b50     Gamesys.obj
 0002:00003b58       ??_C@_05INOOBIFL@Robot?$AA@ 10024b58     Gamesys.obj
 0002:00003b60       ??_C@_07MDLBBFNO@a?5beast?$AA@ 10024b60     Gamesys.obj
 0002:00003b68       ??_C@_05MDABPHJL@Beast?$AA@ 10024b68     Gamesys.obj
 0002:00003b70       ??_C@_09CGIHFCJJ@a?5phantom?$AA@ 10024b70     Gamesys.obj
 0002:00003b7c       ??_C@_0O@POMGOBMD@an?5apparition?$AA@ 10024b7c     Gamesys.obj
 0002:00003b8c       ??_C@_0L@DPJAMFHG@Apparition?$AA@ 10024b8c     Gamesys.obj
 0002:00003b98       ??_C@_0BD@FHFFPJHA@an?5undead?5creature?$AA@ 10024b98     Gamesys.obj
 0002:00003bac       ??_C@_06JEOFBLD@Undead?$AA@ 10024bac     Gamesys.obj
 0002:00003bb4       ??_C@_07ELEFLHBH@a?5thief?$AA@ 10024bb4     Gamesys.obj
 0002:00003bbc       ??_C@_05EMFJFAGE@thief?$AA@ 10024bbc     Gamesys.obj
 0002:00003bc4       ??_C@_07LIJMGLIJ@a?5guard?$AA@ 10024bc4     Gamesys.obj
 0002:00003bcc       ??_C@_05LPIAIMPK@guard?$AA@ 10024bcc     Gamesys.obj
 0002:00003bd4       ??_C@_08OEJLMEA@a?5spider?$AA@ 10024bd4     Gamesys.obj
 0002:00003be0       ??_C@_06IPPLJLN@Spider?$AA@ 10024be0     Gamesys.obj
 0002:00003be8       ??_C@_1HC@OEMMMNAD@?$AA?$CB?$AAg?$AA_?$AAp?$AAN?$AAe?$AAt?$AAM?$AAa?$AAn?$AA?9?$AA?$DO?$AAN?$AAe?$AAt?$AAw?$AAo?$AAr?$AAk?$AAi?$AAn?$AAg?$AA?$CI?$AA?$CJ?$AA?5?$AA?$CG?$AA?$CG?$AA?5?$AA?$CC?$AAs?$AAh?$AAo@ 10024be8     Gamesys.obj
 0002:00003c5c       ??_C@_0P@NGMEMAHJ@Extinguishable?$AA@ 10024c5c     Gamesys.obj
 0002:00003c6c       ??_C@_0L@FALBIPDP@mosscarpet?$AA@ 10024c6c     Gamesys.obj
 0002:00003c78       ??_C@_0N@LFMCGABB@CritterShots?$AA@ 10024c78     Gamesys.obj
 0002:00003c88       ??_C@_06LOJOHLIK@TrolPt?$AA@ 10024c88     Gamesys.obj
 0002:00003c90       ??_C@_06IIPLDKDG@TerrPt?$AA@ 10024c90     Gamesys.obj
 0002:00003c98       ??_C@_08CMMHADID@Flinders?$AA@ 10024c98     Gamesys.obj
 0002:00003ca4       ??_C@_08GDHCHEAH@Odometer?$AA@ 10024ca4     Gamesys.obj
 0002:00003cb0       ??_C@_08BFPGMILO@Creature?$AA@ 10024cb0     Gamesys.obj
 0002:00003cbc       ??_C@_07OFINGKDN@Phantom?$AA@ 10024cbc     Gamesys.obj
 0002:00003cc4       ??_C@_09JADBKOHN@climbable?$AA@ 10024cc4     Gamesys.obj
 0002:00003cd0       ??_C@_0L@CNDMHMPE@SecCamera2?$AA@ 10024cd0     Gamesys.obj
 0002:00003cdc       ??_C@_06MICIANLG@IsLoot?$AA@ 10024cdc     Gamesys.obj
 0002:00003ce4       ??_C@_09GEMBADPP@Blackjack?$AA@ 10024ce4     Gamesys.obj
 0002:00003cf0       ??_C@_05LKHEONBC@Sword?$AA@ 10024cf0     Gamesys.obj
 0002:00003cf8       ??_C@_0O@IDAHKBPE@RopeArrowRope?$AA@ 10024cf8     Gamesys.obj
 0002:00003d08       ??_C@_06LIMHDJNF@Marker?$AA@ 10024d08     Gamesys.obj
 0002:00003d10       ??_C@_08ECFDLAOD@LockPick?$AA@ 10024d10     Gamesys.obj
 0002:00003d1c       ??_C@_07HJIHKFEF@Cameras?$AA@ 10024d1c     Gamesys.obj
 0002:00003d24       ??_C@_0L@BOPJFBBH@tumblerset?$AA@ 10024d24     Gamesys.obj
 0002:00003d30       ??_C@_06PLMHNNFP@pinset?$AA@ 10024d30     Gamesys.obj
 0002:00003d38       ??_C@_09PLCMNNFO@AI_SPEECH?$AA@ 10024d38     Gamesys.obj
 0002:00003d44       ??_C@_0M@POPAMGKK@PLYR_DAMAGE?$AA@ 10024d44     Gamesys.obj
 0002:00003d50       ??_C@_0M@PDOFFHGH@PLYR_WEAPON?$AA@ 10024d50     Gamesys.obj
 0002:00003d60       ??_7CGamesysManager@@6B@   10024d60     Gamesys.obj
 0002:00003d64       ??_C@_07NBCGADJA@Unknown?$AA@ 10024d64     Ghost.obj
 0002:00003d6c       ??_C@_0BN@HIEOKJIG@Event?5Footstep?0?5Landing?5True?$AA@ 10024d6c     Ghost.obj
 0002:00003d8c       ??_C@_0BE@KOKFBNNJ@?$CFs?3?5going?5to?5sleep?4?$AA@ 10024d8c     Ghost.obj
 0002:00003da0       __real@40000000            10024da0     Ghost.obj
 0002:00003da4       ??_C@_0BO@PFBJLJLA@Failed?5to?5attach?5weapon?5to?5?$CFs?$AA@ 10024da4     Ghost.obj
 0002:00003dc4       __real@3dcccccd            10024dc4     Ghost.obj
 0002:00003dc8       __real@bec28f5c            10024dc8     Ghost.obj
 0002:00003dcc       __real@3e800000            10024dcc     Ghost.obj
 0002:00003dd0       __real@bdcccccd            10024dd0     Ghost.obj
 0002:00003dd4       __real@3ecccccd            10024dd4     Ghost.obj
 0002:00003dd8       __real@3fb99999a0000000    10024dd8     Ghost.obj
 0002:00003de8       ??_C@_1FI@LCGHKMFF@?$AAf?$AAa?$AAl?$AAs?$AAe?$AA?5?$AA?$CG?$AA?$CG?$AA?5?$AA?$CC?$AAQ?$AAu?$AAe?$AAr?$AAy?$AAI?$AAn?$AAt?$AAe?$AAr?$AAf?$AAa?$AAc?$AAe?$AA?$CI?$AA?$CJ?$AA?5?$AAn?$AAo?$AAt?$AA?5?$AAi@ 10024de8     LG.obj
 0002:00003e40       ??_C@_1CC@ECJAGAFM@?$AA?4?$AA?4?$AA?2?$AAs?$AAo?$AAu?$AAr?$AAc?$AAe?$AA?2?$AAL?$AAG?$AA?4?$AAc?$AAp?$AAp?$AA?$AA@ 10024e40     LG.obj
 0002:00003e64       ??_C@_09HLOAJLKE@garstrain?$AA@ 10024e64     LG.obj
 0002:00003e70       __real@408f400000000000    10024e70     LG.obj
 0002:00003e78       __real@4020000000000000    10024e78     LG.obj
 0002:00003e80       ??_C@_0P@BEIDDOJE@bow_abort_auto?$AA@ 10024e80     LG.obj
 0002:00003e90       ??_C@_06CHDIMBDP@cursor?$AA@ 10024e90     LG.obj
 0002:00003e98       ??_C@_07GDPBMLLI@Palette?$AA@ 10024e98     LG.obj
 0002:00003ea4       ??_7cAvatar@@6B@           10024ea4     LG.obj
 0002:00003ebc       ??_C@_0BA@LFLDIGGM@overlay_staging?$AA@ 10024ebc     LoopClients.obj
 0002:00003ecc       _IID_IAINetManager         10024ecc     Main.obj
 0002:00003edc       _IID_IGameStrings          10024edc     Main.obj
 0002:00003eec       _IID_IQuestData            10024eec     Main.obj
 0002:00003efc       _IID_IStructDescTools      10024efc     Main.obj
 0002:00003f0c       _IID_IResMan               10024f0c     Main.obj
 0002:00003f1c       _IID_IStringRes            10024f1c     Main.obj
 0002:00003f2c       ??_C@_0M@DDKGNJBO@ThiefMP?4log?$AA@ 10024f2c     Main.obj
 0002:00003f38       ??_C@_04MLPFMBPG@core?$AA@ 10024f38     Main.obj
 0002:00003f44       ??_7Message@@6B@           10024f44     MessageManager.obj
 0002:00003f48       __real@3fecccccc0000000    10024f48     MessageManager.obj
 0002:00003f50       __real@3fdb851ec0000000    10024f50     MessageManager.obj
 0002:00003f58       __real@3fc5c28f60000000    10024f58     MessageManager.obj
 0002:00003f60       __real@3f666666            10024f60     MessageManager.obj
 0002:00003f64       __real@3e2e147b            10024f64     MessageManager.obj
 0002:00003f68       ??_C@_06PKAOPIA@Chat?3?5?$AA@ 10024f68     MessageManager.obj
 0002:00003f70       __real@3edc28f6            10024f70     MessageManager.obj
 0002:00003f78       ??_7MessageMgr@@6B@        10024f78     MessageManager.obj
 0002:00003f80       __real@3fdcccccc0000000    10024f80     MessageManager.obj
 0002:00003f88       __real@3f9eb851e0000000    10024f88     MessageManager.obj
 0002:00003f90       ??_C@_01MMEEDKFM@X?$AA@    10024f90     MessageManager.obj
 0002:00003f94       ??_C@_07EBFOKGKD@msg?5mgr?$AA@ 10024f94     MessageManager.obj
 0002:00003f9c       ??_C@_05MKMNCMOK@tick2?$AA@ 10024f9c     MessageManager.obj
 0002:00003fa8       __real@4024000000000000    10024fa8     MessageManager.obj
 0002:00003fb0       ??_C@_07CJELHFFG@netplay?$AA@ 10024fb0     MultiUI.obj
 0002:00003fb8       ??_C@_04DFGCDGNN@join?$AA@ 10024fb8     MultiUI.obj
 0002:00003fc0       ??_C@_04OODOLJMA@host?$AA@ 10024fc0     MultiUI.obj
 0002:00003fc8       ??_C@_06JDKABGKH@cancel?$AA@ 10024fc8     MultiUI.obj
 0002:00003ff4       ??_C@_0BA@FNJCLFEA@multi_interface?$AA@ 10024ff4     MultiUI.obj
 0002:00004004       ??_C@_0BI@BFNIAFFA@Multiplayer?5object?5name?$AA@ 10025004     NetProperties.obj
 0002:0000401c       ??_C@_0M@HOINAANG@Multiplayer?$AA@ 1002501c     NetProperties.obj
 0002:00004058       ??_C@_04EBLHLJOO@slay?$AA@ 10025058     NetReactions.obj
 0002:00004060       ??_C@_08ONHPDEOD@frob_obj?$AA@ 10025060     NetReactions.obj
 0002:0000406c       ??_C@_0M@LNNELKIN@DrSKnockout?$AA@ 1002506c     NetReactions.obj
 0002:00004078       ??_C@_0BA@CBBDHAF@M?9WasKnockedOut?$AA@ 10025078     NetReactions.obj
 0002:00004088       ??_C@_0N@MGJNIKC@M?9KnockedOut?$AA@ 10025088     NetReactions.obj
 0002:00004098       ??_C@_08OHAADCLK@Knockout?$AA@ 10025098     NetReactions.obj
 0002:000040a4       __real@3faccccd            100250a4     Player.obj
 0002:000040a8       ??_C@_0M@LBAIDH@InGatehouse?$AA@ 100250a8     Player.obj
 0002:000040b4       ??_C@_0L@MIEMKIEE@LoadoutBox?$AA@ 100250b4     Player.obj
 0002:000040c0       ??_C@_0N@OBCCNBLH@LoadoutCache?$AA@ 100250c0     Player.obj
 0002:000040e4       ??_7SaveManager@@6B@       100250e4     SaveManager.obj
 0002:000040ec       ??_C@_0BK@CDADEBAH@Successfully?5loaded?5game?4?$AA@ 100250ec     SaveManager.obj
 0002:00004108       ??_C@_0BK@NNJPGPFH@Failed?5to?5load?5game?5?$CI?$CFd?$CJ?4?$AA@ 10025108     SaveManager.obj
 0002:00004124       ??_C@_08CAMFBGKM@netsaves?$AA@ 10025124     SaveManager.obj
 0002:00004130       ??_C@_0BE@DPNGFCMB@No?5saves?5remaining?4?$AA@ 10025130     SaveManager.obj
 0002:00004144       ??_C@_0BB@NKBJDGOE@?$CFd?5?$CFs?5remaining?4?$AA@ 10025144     SaveManager.obj
 0002:00004158       ??_C@_04EMMDIJJL@save?$AA@ 10025158     SaveManager.obj
 0002:00004160       ??_C@_05GDIDKDHA@saves?$AA@ 10025160     SaveManager.obj
 0002:00004168       ??_C@_0BF@CICIJLPE@Failed?5to?5save?5game?4?$AA@ 10025168     SaveManager.obj
 0002:00004180       ??_C@_0BJ@EOLIIECP@Successfully?5saved?5game?4?$AA@ 10025180     SaveManager.obj
 0002:0000419c       ??_C@_07FCJAGJJB@?$CFs?5?9?5?$CFs?$AA@ 1002519c     SaveManager.obj
 0002:000041a4       ??_C@_0BD@HHFFCJFD@netsaves?2quick?4bak?$AA@ 100251a4     SaveManager.obj
 0002:000041b8       ??_C@_0BA@GJOLEEHL@?$CFs?5?9?5?$CFs?5?$CIQuick?$CJ?$AA@ 100251b8     SaveManager.obj
 0002:000041c8       ??_C@_08EIOJEMNK@short_?$CFd?$AA@ 100251c8     SaveManager.obj
 0002:000041d4       ??_C@_0BH@HPFOABOH@No?5more?5saves?5allowed?4?$AA@ 100251d4     SaveManager.obj
 0002:000041ec       ??_C@_0BL@JJHINJDP@?$CFs?3?5OpenBlock?5failed?5?$CI?$CFx?$CJ?4?$AA@ 100251ec     SaveManager.obj
 0002:00004208       ??_C@_0CA@BILENFLN@SaveManager?3?3OnSaveRemoteGhosts?$AA@ 10025208     SaveManager.obj
 0002:00004228       ??_C@_0DO@JAAANHI@SaveRemoteGhosts?3?5invalid?5motion@ 10025228     SaveManager.obj
 0002:00004268       ??_C@_0CC@HMGNAMMB@Saving?5motion?5coordinator?5for?3?5?$CF@ 10025268     SaveManager.obj
 0002:0000428c       ??_C@_0BE@DBMJJGBJ@Saving?5ghost?5for?5?$CFs?$AA@ 1002528c     SaveManager.obj
 0002:000042a0       ??_C@_0DM@NBKGBABL@Unknown?5avatar?5weapon?5ID?5for?5equ@ 100252a0     Sound.obj
 0002:000042dc       ??_C@_0DN@CFIHADNN@Unknown?5avatar?5weapon?5ID?5for?5det@ 100252dc     Sound.obj
 0002:0000431c       ??_C@_0CL@OOHIGOKD@Sending?5player?5damage?5sound?5with@ 1002531c     Sound.obj
 0002:00004348       ??_C@_0CC@JDCHNKG@Sending?5object?9attached?5sound?5?$CFs@ 10025348     Sound.obj
 0002:0000436c       ??_C@_0BF@DFJDJOLD@Playing?5AI?5speech?5?$CFs?$AA@ 1002536c     Sound.obj
 0002:00004384       ??_C@_0CA@KCAJLLFF@Sending?5player?5weapon?5sound?5?$CFs?4?$AA@ 10025384     Sound.obj
 0002:000043a4       ??_C@_0CF@BKAILKNK@Net?5halting?5looping?5speech?5?$CFs?5on@ 100253a4     Sound.obj
 0002:000043d0       ??_C@_0GE@MLJIPOEO@Sending?5speech?5for?5?$CFs?3?5schema?5?$CFd@ 100253d0     SpeechNet.obj
 0002:00004434       ??_C@_0P@GHFPNOJB@bad?5allocation?$AA@ 10025434     stdafx.obj
 0002:00004444       ??_C@_0BD@CGILPFDL@DPNSUCCESS_PENDING?$AA@ 10025444     Tools.obj
 0002:00004458       ??_C@_06IMJBDBNO@0x?$CF08X?$AA@ 10025458     Tools.obj
 0002:00004460       ??_C@_0BD@NJJFBJEM@DPNERR_SESSIONFULL?$AA@ 10025460     Tools.obj
 0002:00004474       ??_C@_0BE@GJMILOIE@DPNERR_NOCONNECTION?$AA@ 10025474     Tools.obj
 0002:00004488       ??_C@_0P@JCEBAEKD@DPNERR_NOTHOST?$AA@ 10025488     Tools.obj
 0002:00004498       ??_C@_0BH@DMPEGKFD@DPNERR_INVALIDPASSWORD?$AA@ 10025498     Tools.obj
 0002:000044b0       ??_C@_0BI@GPKHJHEM@DPNERR_INVALIDINTERFACE?$AA@ 100254b0     Tools.obj
 0002:000044c8       ??_C@_0BH@KLFBEBCM@DPNERR_INVALIDINSTANCE?$AA@ 100254c8     Tools.obj
 0002:000044e0       ??_C@_0BK@KGGBCBLD@DPNERR_INVALIDHOSTADDRESS?$AA@ 100254e0     Tools.obj
 0002:000044fc       ??_C@_0BE@PIKENOBJ@DPNERR_INVALIDFLAGS?$AA@ 100254fc     Tools.obj
 0002:00004510       ??_C@_0BM@ENKIENFF@DPNERR_INVALIDDEVICEADDRESS?$AA@ 10025510     Tools.obj
 0002:0000452c       ??_C@_0BK@JDKALINN@DPNERR_INVALIDAPPLICATION?$AA@ 1002552c     Tools.obj
 0002:00004548       ??_C@_0BE@EBDPIPLC@DPNERR_DATATOOLARGE?$AA@ 10025548     Tools.obj
 0002:0000455c       ??_C@_0BO@ECKDDIED@DPNERR_HOSTREJECTEDCONNECTION?$AA@ 1002555c     Tools.obj
 0002:0000457c       ??_C@_0BG@DABMBHJA@DPNERR_BUFFERTOOSMALL?$AA@ 1002557c     Tools.obj
 0002:00004594       ??_C@_0BM@GIHIILB@DPNERR_ALREADYDISCONNECTING?$AA@ 10025594     Tools.obj
 0002:000045b0       ??_C@_0BK@LALJHGPB@DPNERR_ALREADYINITIALIZED?$AA@ 100255b0     Tools.obj
 0002:000045cc       ??_C@_0BI@GCGBFFAL@DPNERR_ALREADYCONNECTED?$AA@ 100255cc     Tools.obj
 0002:000045e4       ??_C@_0BC@KBFKNKOL@DPNERR_ADDRESSING?$AA@ 100255e4     Tools.obj
 0002:000045f8       ??_C@_0BG@GJMEAEJI@DPNERR_ALREADYCLOSING?$AA@ 100255f8     Tools.obj
 0002:00004610       ??_C@_0P@LMIGBHLJ@DPNERR_ABORTED?$AA@ 10025610     Tools.obj
 0002:00004620       ??_C@_09FLEPHGBI@E_POINTER?$AA@ 10025620     Tools.obj
 0002:0000462c       ??_C@_0BE@EHNLEADC@DPNERR_INVALIDPARAM?$AA@ 1002562c     Tools.obj
 0002:00004640       ??_C@_0BB@MCOJNHID@?$CFd?5events?5total?4?$AA@ 10025640     Tools.obj
 0002:00004654       ??_C@_0CN@DEKEGHBK@?$CI?$CFx?$CJ?5Event?5?$CFd?3?5Type?5?$CFd?5P1?5?$CFx?5Dat@ 10025654     Tools.obj
 0002:00004684       ??_C@_07LMFHHDHL@?$CFu?3?$CF02u?$AA@ 10025684     Tools.obj
 0002:0000468c       ??_C@_0N@PPEHMHHO@?$CFu?3?$CF02u?3?$CF02u?$AA@ 1002568c     Tools.obj
 0002:0000469c       ??_C@_1BA@FDCHGGLD@?$AAb?$AAr?$AAo?$AAw?$AAs?$AAe?$AAr?$AA?$AA@ 1002569c     GlobalServer.obj
 0002:000046ac       ??_C@_1DG@PLLHLAAI@?$AA?4?$AA?4?$AA?2?$AAs?$AAo?$AAu?$AAr?$AAc?$AAe?$AA?2?$AAG?$AAl?$AAo?$AAb?$AAa?$AAl?$AAS?$AAe?$AAr?$AAv?$AAe?$AAr?$AA?4?$AAc?$AAp?$AAp?$AA?$AA@ 100256ac     GlobalServer.obj
 0002:000046e4       ??_C@_0DB@FJEHJBLC@Unknown?5packet?5received?5from?5glo@ 100256e4     GlobalServer.obj
 0002:00004718       ??_C@_0CC@BACPLGBM@Lost?5connection?5to?5global?5server@ 10025718     GlobalServer.obj
 0002:0000473c       ??_C@_0CE@FGPHJPMJ@Failed?5to?5connect?5to?5global?5serv@ 1002573c     GlobalServer.obj
 0002:00004774       ??_7CEListView@EngCtrls@@6B@ 10025774     ServerBrowser.obj
 0002:0000477c       ??_C@_0BM@DNIGHDGF@?4?4?2source?2ServerBrowser?4cpp?$AA@ 1002577c     ServerBrowser.obj
 0002:00004798       ??_C@_1BG@EHELIHGF@?$AAg?$AA_?$AAp?$AAB?$AAr?$AAo?$AAw?$AAs?$AAe?$AAr?$AA?$AA@ 10025798     ServerBrowser.obj
 0002:000047b0       ??_C@_1DI@MOBKDFEM@?$AA?4?$AA?4?$AA?2?$AAs?$AAo?$AAu?$AAr?$AAc?$AAe?$AA?2?$AAS?$AAe?$AAr?$AAv?$AAe?$AAr?$AAB?$AAr?$AAo?$AAw?$AAs?$AAe?$AAr?$AA?4?$AAc?$AAp?$AAp?$AA?$AA@ 100257b0     ServerBrowser.obj
 0002:000047e8       ??_C@_0BL@ELAIIAKA@Received?5response?5from?5?$CFs?4?$AA@ 100257e8     ServerBrowser.obj
 0002:00004804       ??_C@_0DD@KIJLMJLP@Failed?5to?5retrieve?5host?5name?5com@ 10025804     ServerBrowser.obj
 0002:00004838       ??_C@_0BG@MIJLFOJJ@?$CFd?5servers?5available?4?$AA@ 10025838     ServerBrowser.obj
 0002:00004850       ??_C@_0CG@NJIHLHMP@?$CFs?3?5failed?5to?5find?5server?5?$CFs?5in?5@ 10025850     ServerBrowser.obj
 0002:00004878       ??_C@_0CD@OCNNKBOA@CServerBrowser?3?3HandleRemoveServ@ 10025878     ServerBrowser.obj
 0002:0000489c       ??_C@_0CI@ENLDPGIG@Failed?5to?5remove?5server?5from?5lis@ 1002589c     ServerBrowser.obj
 0002:000048c4       ??_C@_0BE@PPAKNACK@Removing?5server?5?$CFs?4?$AA@ 100258c4     ServerBrowser.obj
 0002:000048d8       ??_C@_0EJ@DGMIFPMD@The?5server?5rejected?5your?5connect@ 100258d8     ServerBrowser.obj
 0002:00004924       ??_C@_0DP@FJCACBA@Too?5many?5connections?5to?5global?5s@ 10025924     ServerBrowser.obj
 0002:00004964       ??_C@_0BM@JNKNLFKJ@Connected?5to?5global?5server?4?$AA@ 10025964     ServerBrowser.obj
 0002:00004980       ??_C@_0O@PNBPMCOE@Connecting?4?4?4?$AA@ 10025980     ServerBrowser.obj
 0002:00004990       ??_C@_0O@HGEAPED@Disconnected?4?$AA@ 10025990     ServerBrowser.obj
 0002:000049a0       ??_C@_0CO@HMLBBDEL@Failed?5to?5add?5server?5to?5list?5?9?5i@ 100259a0     ServerBrowser.obj
 0002:000049d0       ??_C@_1O@NLACBNOI@?$AAp?$AAE?$AAn?$AAt?$AAr?$AAy?$AA?$AA@ 100259d0     ServerBrowser.obj
 0002:000049e0       ??_C@_0BO@CBHOFMHB@Error?3?5Failed?5to?5ping?5server?4?$AA@ 100259e0     ServerBrowser.obj
 0002:00004a00       ??_C@_0CB@BEEIFKAP@Pinging?5server?5?$CFs?5on?5IP?5?$CFs?3?$CFd?4?4?4@ 10025a00     ServerBrowser.obj
 0002:00004a28       ??_7CServerList@@6B@       10025a28     ServerBrowser.obj
 0002:00004a30       ??_7CServerBrowser@@6B@    10025a30     ServerBrowser.obj
 0002:00004a44       ??_C@_0DP@JAKOPCPP@Server?5browser?3?5failed?5to?5initia@ 10025a44     ServerBrowser.obj
 0002:00004a84       ??_C@_0L@JOAHNOOH@sb?5connect?$AA@ 10025a84     ServerBrowser.obj
 0002:00004a94       ??_7CServerListEntry@@6B@  10025a94     ServerList.obj
 0002:00004a98       ??_C@_07EGLBMDMJ@Thief?52?$AA@ 10025a98     ServerList.obj
 0002:00004aa0       ??_C@_07OHAHAELA@Shock?52?$AA@ 10025aa0     ServerList.obj
 0002:00004aa8       ??_C@_05LCKIIOJE@?$CFd?1?$CFd?$AA@ 10025aa8     ServerList.obj
 0002:00004ab0       ??_C@_03BBKEAIF@?$DP?$DP?$DP?$AA@ 10025ab0     ServerList.obj
 0002:00004ab4       ??_C@_03BNDMODPF@?$DP?1?$DP?$AA@ 10025ab4     ServerList.obj
 0002:00004ab8       ??_C@_0BB@KANAONGG@Closed?5?9?5Playing?$AA@ 10025ab8     ServerList.obj
 0002:00004acc       ??_C@_04DNCDCIAE@Open?$AA@ 10025acc     ServerList.obj
 0002:00004ad4       ??_C@_0BA@BDPFEPAJ@Open?5?9?5Password?$AA@ 10025ad4     ServerList.obj
 0002:00004ae8       __real@3fbcac0840000000    10025ae8     ServerList.obj
 0002:00004af0       __real@3fc147ae20000000    10025af0     ServerList.obj
 0002:00004af8       __real@3fb1eb8520000000    10025af8     ServerList.obj
 0002:00004b00       __real@3fd0a3d700000000    10025b00     ServerList.obj
 0002:00004b08       __real@3fd0000000000000    10025b08     ServerList.obj
 0002:00004b10       ??_C@_07NGFJPNPN@Version?$AA@ 10025b10     ServerList.obj
 0002:00004b18       ??_C@_04CPBFGEOK@Ping?$AA@ 10025b18     ServerList.obj
 0002:00004b20       ??_C@_07OLBIDKLK@Players?$AA@ 10025b20     ServerList.obj
 0002:00004b28       ??_C@_06PGDKHFME@Status?$AA@ 10025b28     ServerList.obj
 0002:00004b30       ??_C@_0M@EHMFLPNI@Server?5Name?$AA@ 10025b30     ServerList.obj
 0002:00004b3c       ??_C@_0CH@ENHFECKJ@Adding?5server?3?5?$CFs?4?5?$CI?$CFs?3?$CFd?5?9?5buil@ 10025b3c     ServerList.obj
 0002:00004b64       ??_C@_0CH@EPJLFDFE@Attempted?5to?5remove?5an?5invalid?5s@ 10025b64     ServerList.obj
 0002:00004b8c       ??_C@_06OJPAPMAG@?$CFs?4osm?$AA@ 10025b8c     ScriptHooks.obj
 0002:00004b94       ??_C@_0CC@EHEMHIOJ@Sending?5message?5?$CFs?5from?5?$CFd?5to?5?$CFs@ 10025b94     ScriptHooks.obj
 0002:00004bb8       ??_C@_0L@DJJJHFJJ@NetTurnOff?$AA@ 10025bb8     ScriptHooks.obj
 0002:00004bc4       ??_C@_09PGMOBFIG@NetTurnOn?$AA@ 10025bc4     ScriptHooks.obj
 0002:00004bd0       ??_C@_0CG@MCAGEPOO@Event?5StateChange?0?5LockState?5Unl@ 10025bd0     ScriptHooks.obj
 0002:00004bf8       ??_C@_0CE@IBMLLCFE@Event?5StateChange?0?5LockState?5Loc@ 10025bf8     ScriptHooks.obj
 0002:00004c1c       ??_C@_0M@LGHBLFLP@NetUnlocked?$AA@ 10025c1c     ScriptHooks.obj
 0002:00004c28       ??_C@_09KFNJIDGO@NetLocked?$AA@ 10025c28     ScriptHooks.obj
 0002:00004c34       ??_C@_0L@BKEEMMEK@ToggleDoor?$AA@ 10025c34     ScriptHooks.obj
 0002:00004c40       ??_C@_0M@NBCEEPB@NonAutoDoor?$AA@ 10025c40     ScriptHooks.obj
 0002:00004c4c       ??_C@_07FKICODHC@StdDoor?$AA@ 10025c4c     ScriptHooks.obj
 0002:00004c54       ??_C@_0L@MKDBHDKJ@LockSounds?$AA@ 10025c54     ScriptHooks.obj
 0002:00004c60       ??_C@_03JAFGGFOK@Sim?$AA@  10025c60     ScriptHooks.obj
 0002:00004c64       ??_C@_0BE@KIDDOEPC@Taking?5over?5door?5?$CFs?$AA@ 10025c64     ScriptHooks.obj
 0002:00004c78       ??_C@_07CJIDHEBI@TurnOff?$AA@ 10025c78     ScriptHooks.obj
 0002:00004c80       ??_C@_06DGLFMOBM@TurnOn?$AA@ 10025c80     ScriptHooks.obj
 0002:00004c88       ??_C@_0DI@ECKOKFGJ@ERROR?3?5Could?5not?5remap?5projectil@ 10025c88     ScriptHooks.obj
 0002:00004cc0       ??_C@_0CJ@BLLPDKEA@ERROR?3?5failed?5to?5execute?5Collisi@ 10025cc0     ScriptHooks.obj
 0002:00004cec       ??_C@_04HOPIBOHF@Tick?$AA@ 10025cec     ScriptHooks.obj
 0002:00004cf4       ??_C@_07DDHNKDGP@timeout?$AA@ 10025cf4     ScriptHooks.obj
 0002:00004cfc       ??_C@_07LKMHLBIF@convict?$AA@ 10025cfc     ScriptHooks.obj
 0002:00004d04       ??_C@_03MNCIKALL@gen?$AA@  10025d04     ScriptHooks.obj
 0002:00004d08       ??_C@_0P@EGFEAHOO@NetNowUnlocked?$AA@ 10025d08     StringHashTable.obj
 0002:00004d18       ??_C@_0N@OLOHIHJF@NetNowLocked?$AA@ 10025d18     StringHashTable.obj
 0002:00004d28       ??_C@_0O@NBMLBMIC@PhysCollision?$AA@ 10025d28     StringHashTable.obj
 0002:00004d38       ??_C@_09PEJKMNHF@Contained?$AA@ 10025d38     StringHashTable.obj
 0002:00004d44       ??_C@_0M@LPOJFGDI@NowUnlocked?$AA@ 10025d44     StringHashTable.obj
 0002:00004d50       ??_C@_09LOHIAOBD@NowLocked?$AA@ 10025d50     StringHashTable.obj
 0002:00004d5c       ??_C@_0M@EJKDDABI@FrobToolEnd?$AA@ 10025d5c     StringHashTable.obj
 0002:00004d68       ??_C@_0N@KLDFPPFD@FrobWorldEnd?$AA@ 10025d68     StringHashTable.obj
 0002:00004d7c       ??_7DarkOverlayManager@@6B@ 10025d7c     DarkOverlay.obj
 0002:00004d80       ??_C@_1DG@MDPLJGAH@?$AAf?$AAa?$AAl?$AAs?$AAe?$AA?5?$AA?$CG?$AA?$CG?$AA?5?$AA?$CC?$AAo?$AAu?$AAt?$AA?5?$AAo?$AAf?$AA?5?$AAo?$AAv?$AAe?$AAr?$AAl?$AAa?$AAy?$AAs?$AA?$CC?$AA?$AA@ 10025d80     DarkOverlay.obj
 0002:00004db8       ??_C@_1DE@BLOAHPO@?$AA?4?$AA?4?$AA?2?$AAs?$AAo?$AAu?$AAr?$AAc?$AAe?$AA?2?$AAD?$AAa?$AAr?$AAk?$AAO?$AAv?$AAe?$AAr?$AAl?$AAa?$AAy?$AA?4?$AAc?$AAp?$AAp?$AA?$AA@ 10025db8     DarkOverlay.obj
 0002:00004df0       __real@4072c00000000000    10025df0     DarkOverlay.obj
 0002:00004df8       ??_C@_07DLAHFCM@PAGE_?$CFd?$AA@ 10025df8     DarkOverlay.obj
 0002:00004e00       ??_C@_0BD@OLBABOEK@vector?$DMT?$DO?5too?5long?$AA@ 10025e00     DarkOverlay.obj
 0002:00004e14       ??_C@_05NBEAGECF@Image?$AA@ 10025e14     DarkOverlay.obj
 0002:00004e1c       ??_C@_0O@PBPIODLM@Error?3?50x?$CF08x?$AA@ 10025e1c     DarkOverlay.obj
 0002:00004e2c       ??_C@_0M@BKFOIBLE@select1?4wav?$AA@ 10025e2c     DarkOverlay.obj
 0002:00004e38       ??_C@_04EJEJEEJK@map1?$AA@ 10025e38     DarkOverlay.obj
 0002:00004e40       ??_C@_0M@OECMOFIB@?$CFs?2page?$CF03d?$AA@ 10025e40     DarkOverlay.obj
 0002:00004e4c       ??_C@_0M@BMHKKIJC@?$CFs?2book?4pcx?$AA@ 10025e4c     DarkOverlay.obj
 0002:00004e58       ??_C@_05CKKNMIHB@bookr?$AA@ 10025e58     DarkOverlay.obj
 0002:00004e60       ??_C@_05GPCGLKDN@textr?$AA@ 10025e60     DarkOverlay.obj
 0002:00004e68       ??_C@_08PKKJDFGJ@Books?2?$CFs?$AA@ 10025e68     DarkOverlay.obj
 0002:00004e74       ??_C@_07IANCGJDC@blankbk?$AA@ 10025e74     DarkOverlay.obj
 0002:00004e7c       ??_C@_06ENNEIMBA@String?$AA@ 10025e7c     DarkOverlay.obj
 0002:00004e84       ??_C@_05DEBKPMAG@Books?$AA@ 10025e84     DarkOverlay.obj
 0002:00004e8c       ??_C@_0M@MGANBFLB@?$CFs?2textfont?$AA@ 10025e8c     DarkOverlay.obj
 0002:00004e98       ??_C@_05DDLGPJDA@books?$AA@ 10025e98     DarkOverlay.obj
 0002:00004ea0       ??_C@_0BB@LBJMLICK@?$CFs?2bookr?$CF03d?4pcx?$AA@ 10025ea0     DarkOverlay.obj
 0002:00004eb4       ??_C@_04LMKNDDJM@sim_?$AA@ 10025eb4     DarkOverlay.obj
 0002:00004ebc       ??_C@_06BLEHJBJH@panel_?$AA@ 10025ebc     DarkOverlay.obj
 0002:00004ec4       ??_C@_03DAGEMKNE@sim?$AA@  10025ec4     DarkOverlay.obj
 0002:00004ec8       ??_C@_06LKBCGDFD@Button?$AA@ 10025ec8     DarkOverlay.obj
 0002:00004ed0       ??_C@_08KOENJNKN@objctivr?$AA@ 10025ed0     DarkOverlay.obj
 0002:00004edc       ??_C@_05LCCFMHGE@grey_?$AA@ 10025edc     DarkOverlay.obj
 0002:00004ee4       ??_C@_0L@NFILJFJG@goal_text_?$AA@ 10025ee4     DarkOverlay.obj
 0002:00004ef0       ??_C@_08IOGHMHEC@objctiv_?$AA@ 10025ef0     DarkOverlay.obj
 0002:00004efc       ??_C@_07LEPENMBH@diff_?$CFd?$AA@ 10025efc     DarkOverlay.obj
 0002:00004f04       ??_C@_07GABIDAIO@newgame?$AA@ 10025f04     DarkOverlay.obj
 0002:00004f0c       ??_C@_0L@BNPDIEPE@difficulty?$AA@ 10025f0c     DarkOverlay.obj
 0002:00004f18       ??_C@_09NIOLDGM@goali?$CF03d?$AA@ 10025f18     DarkOverlay.obj
 0002:00004f24       ??_C@_0O@HMPMGECD@GOAL_STATE_?$CFd?$AA@ 10025f24     DarkOverlay.obj
 0002:00004f34       ??_C@_0M@JMMKPDBK@select2?4wav?$AA@ 10025f34     DarkOverlay.obj
 0002:00004f40       ??_C@_0M@NAIIJLCN@objctivthin?$AA@ 10025f40     DarkOverlay.obj
 0002:00004f4c       ??_C@_0BB@BANLODLA@Save?5Limit?3?5None?$AA@ 10025f4c     DarkOverlay.obj
 0002:00004f60       ??_C@_0P@EPOHCNHB@Save?5Limit?3?5?$CFd?$AA@ 10025f60     DarkOverlay.obj
 0002:00004f70       ??_C@_0BB@NJMMDJAF@Time?5Limit?3?5None?$AA@ 10025f70     DarkOverlay.obj
 0002:00004f84       ??_C@_0P@LBPCKBLC@Time?5Limit?3?5?$CFs?$AA@ 10025f84     DarkOverlay.obj
 0002:00004f94       ??_C@_0BE@BCBLFOI@Players?5Respawn?3?5?$CFs?$AA@ 10025f94     DarkOverlay.obj
 0002:00004fa8       ??_C@_0L@PHPBDLMH@Cheats?3?5?$CFs?$AA@ 10025fa8     DarkOverlay.obj
 0002:00004fb4       ??_C@_0BI@BNDNOJOC@Increase?5Difficulty?3?5?$CFs?$AA@ 10025fb4     DarkOverlay.obj
 0002:00004fcc       ??_C@_0BD@GKOFEAP@Damage?5Players?3?5?$CFs?$AA@ 10025fcc     DarkOverlay.obj
 0002:00004fe0       ??_C@_02JINPPBEP@No?$AA@   10025fe0     DarkOverlay.obj
 0002:00004fe4       ??_C@_03CCLAEDDF@Yes?$AA@  10025fe4     DarkOverlay.obj
 0002:00004fe8       ??_C@_0M@CELMKOCJ@Mission?3?5?$CFs?$AA@ 10025fe8     DarkOverlay.obj
 0002:00004ff4       ??_C@_0L@BINDCHOJ@Server?3?5?$CFs?$AA@ 10025ff4     DarkOverlay.obj
 0002:00005000       ??_C@_0N@FFCFFIJB@MAP_MAX_PAGE?$AA@ 10026000     DarkOverlay.obj
 0002:00005010       ??_C@_0N@ICMOOKNA@MAP_MIN_PAGE?$AA@ 10026010     DarkOverlay.obj
 0002:00005020       ??_C@_0O@JPJIKDOG@?$CFs?1p?$CF03dr?$CF03d?$AA@ 10026020     DarkOverlay.obj
 0002:00005030       ??_C@_0L@GPHMNKLD@?$CFs?1p?$CF03dra?$AA@ 10026030     DarkOverlay.obj
 0002:00005040       ??_7DarkOverlay@@6B@       10026040     DarkOverlay.obj
 0002:0000506c       ??_7PlayersOverlay@@6B@    1002606c     DarkOverlay.obj
 0002:00005098       ??_7MapOverlay@@6B@        10026098     DarkOverlay.obj
 0002:000050c4       ??_7BookOverlay@@6B@       100260c4     DarkOverlay.obj
 0002:000050ec       ??_C@_04JMIHGJHD@simr?$AA@ 100260ec     DarkOverlay.obj
 0002:000050f8       ??_7SimOverlay@@6B@        100260f8     DarkOverlay.obj
 0002:00005124       ??_7ObjectivesOverlay@@6B@ 10026124     DarkOverlay.obj
 0002:00005150       ??_7StagingOverlay@@6B@    10026150     DarkOverlay.obj
 0002:00005178       ??_C@_0M@PDNEGKLP@overlay_sim?$AA@ 10026178     DarkOverlay.obj
 0002:00005184       ??_C@_0BC@NGGLGCIM@Add?5Time?5to?5Clock?$AA@ 10026184     DarkOverlay.obj
 0002:00005198       ??_C@_0N@GKAKOKLK@Host?5Options?$AA@ 10026198     DarkOverlay.obj
 0002:000051a8       __real@3f333333            100261a8     DarkOverlay.obj
 0002:000051ac       ??_C@_08MOMBFAGG@goali003?$AA@ 100261ac     DarkOverlay.obj
 0002:000051b8       __real@3d23d70a            100261b8     DarkOverlay.obj
 0002:000051bc       ??_C@_09DOIJPOHM@Player?5?$CFd?$AA@ 100261bc     DarkOverlay.obj
 0002:000051c8       __real@3e19999a            100261c8     DarkOverlay.obj
 0002:000051cc       __real@3ee66666            100261cc     DarkOverlay.obj
 0002:000051d0       ??_C@_04GMBKPCGK@Quit?$AA@ 100261d0     DarkOverlay.obj
 0002:000051d8       __real@3ea3d70a            100261d8     DarkOverlay.obj
 0002:000051dc       ??_C@_0N@CHHEEEMC@Load?5Mission?$AA@ 100261dc     DarkOverlay.obj
 0002:000051ec       __real@3f4147ae            100261ec     DarkOverlay.obj
 0002:000051f0       __real@3f63d70a            100261f0     DarkOverlay.obj
 0002:000051f4       __real@3eb851ec            100261f4     DarkOverlay.obj
 0002:000051f8       __real@3ea8f5c3            100261f8     DarkOverlay.obj
 0002:000051fc       __real@3e99999a            100261fc     DarkOverlay.obj
 0002:00005200       __real@3e8a3d71            10026200     DarkOverlay.obj
 0002:00005204       __real@3e75c290            10026204     DarkOverlay.obj
 0002:00005208       __real@3e570a3e            10026208     DarkOverlay.obj
 0002:0000520c       __real@3e3851ec            1002620c     DarkOverlay.obj
 0002:00005210       ??_C@_0O@FMGHIGIB@Game?5Settings?$AA@ 10026210     DarkOverlay.obj
 0002:00005220       __real@3f0ccccd            10026220     DarkOverlay.obj
 0002:00005224       __real@3eb33333            10026224     DarkOverlay.obj
 0002:00005228       __real@3e051eb8            10026228     DarkOverlay.obj
 0002:0000522c       __real@3de147ae            1002622c     DarkOverlay.obj
 0002:00005234       ??_7DialogElement@@6B@     10026234     DialogElement.obj
 0002:00005254       ??_7Element_Text@@6B@      10026254     DialogElement.obj
 0002:00005274       ??_7Element_Image@@6B@     10026274     DialogElement.obj
 0002:00005290       ??_C@_17NHHLECMC@?$AAs?$AAr?$AAc?$AA?$AA@ 10026290     DialogElement.obj
 0002:00005298       ??_C@_1DI@LOFOLFJO@?$AA?4?$AA?4?$AA?2?$AAs?$AAo?$AAu?$AAr?$AAc?$AAe?$AA?2?$AAD?$AAi?$AAa?$AAl?$AAo?$AAg?$AAE?$AAl?$AAe?$AAm?$AAe?$AAn?$AAt?$AA?4?$AAc?$AAp?$AAp?$AA?$AA@ 10026298     DialogElement.obj
 0002:000052d4       ??_7Element_Button@@6B@    100262d4     DialogElement.obj
 0002:000052f0       _CLSID_DP8SP_TCPIP         100262f0     dxguid:dxguid.obj
 0002:00005300       _IID_IDirectPlay8Peer      10026300     dxguid:dxguid.obj
 0002:00005310       _CLSID_DirectPlay8Peer     10026310     dxguid:dxguid.obj
 0002:00005320       _IID_IDirectPlay8Address   10026320     dxguid:dxguid.obj
 0002:00005330       _CLSID_DirectPlay8Address  10026330     dxguid:dxguid.obj
 0002:00005340       ??_7ConfigManager@@6B@     10026340     Engine:ConfigManager.obj
 0002:00005344       ??_C@_02CPIDLAI@at?$AA@    10026344     Engine:Logger.obj
 0002:00005348       ??_C@_02BKFDOEMK@wt?$AA@   10026348     Engine:Logger.obj
 0002:0000534c       ??_C@_0L@OPGEKEBP@?$FL?$CFs?$FN?5?9?5?$CFs?6?$AA@ 1002634c     Engine:Logger.obj
 0002:00005358       ??_C@_0BF@EEEJMEGN@?$CFm?1?$CFd?1?$CFY?5?$CFI?3?$CFM?3?$CFS?5?$CFp?$AA@ 10026358     Engine:Logger.obj
 0002:00005370       ??_C@_0O@IBCKMBKE@Fatal?5Error?3?5?$AA@ 10026370     Engine:Logger.obj
 0002:00005380       ??_C@_07KAJBENLI@Error?3?5?$AA@ 10026380     Engine:Logger.obj
 0002:00005388       ??_C@_09CKCJCCOK@Warning?3?5?$AA@ 10026388     Engine:Logger.obj
 0002:00005394       ??_C@_06ENPJBIBC@Init?3?5?$AA@ 10026394     Engine:Logger.obj
 0002:0000539c       ??_C@_05DHEMPPIJ@Log?3?5?$AA@ 1002639c     Engine:Logger.obj
 0002:000053a4       ??_C@_03OFAPEBGM@?$CFs?6?$AA@ 100263a4     Engine:Logger.obj
 0002:000053a8       ??_C@_05LAPONLG@false?$AA@ 100263a8     Engine:Utilities.obj
 0002:000053b0       ??_C@_04LOAJBDKD@true?$AA@ 100263b0     Engine:Utilities.obj
 0002:000053b8       ??_C@_07NCACNKHJ@missing?$AA@ 100263b8     Engine:IniFile.obj
 0002:000053c0       ??_C@_03DLDNIBIK@?$CFlf?$AA@ 100263c0     Engine:IniFile.obj
 0002:000053c4       ??_C@_0BJ@KBOLCLBG@?$CFs?5failed?5with?5error?3?5?$CFs?$AA@ 100263c4     Engine:EngError.obj
 0002:000053e0       __real@3a83126f            100263e0     Engine:Timing.obj
 0002:000053e4       __real@3f400000            100263e4     Engine:Timing.obj
 0002:000053e8       ??_C@_0BK@HOJFPEEB@a?5Microsoft?5C?$CL?$CL?5Exception?$AA@ 100263e8     Engine:ExceptionHandler.obj
 0002:00005404       ??_C@_0BM@LDHCKNKI@a?5DLL?5Initialization?5Failed?$AA@ 10026404     Engine:ExceptionHandler.obj
 0002:00005420       ??_C@_0BB@LJENMGNL@a?5Stack?5Overflow?$AA@ 10026420     Engine:ExceptionHandler.obj
 0002:00005434       ??_C@_0BJ@HMGNLHOK@a?5Privileged?5Instruction?$AA@ 10026434     Engine:ExceptionHandler.obj
 0002:00005450       ??_C@_0BE@CDPGECPC@an?5Integer?5Overflow?$AA@ 10026450     Engine:ExceptionHandler.obj
 0002:00005464       ??_C@_0BK@FNOEEFCK@an?5Integer?5Divide?5by?5Zero?$AA@ 10026464     Engine:ExceptionHandler.obj
 0002:00005480       ??_C@_0BC@CICINNDB@a?5Float?5Underflow?$AA@ 10026480     Engine:ExceptionHandler.obj
 0002:00005494       ??_C@_0BE@DOBFFDCD@a?5Float?5Stack?5Check?$AA@ 10026494     Engine:ExceptionHandler.obj
 0002:000054a8       ??_C@_0BB@LAJAGHGH@a?5Float?5Overflow?$AA@ 100264a8     Engine:ExceptionHandler.obj
 0002:000054bc       ??_C@_0BK@NACDCIPD@a?5Float?5Invalid?5Operation?$AA@ 100264bc     Engine:ExceptionHandler.obj
 0002:000054d8       ??_C@_0BH@HGODNPMP@a?5Float?5Inexact?5Result?$AA@ 100264d8     Engine:ExceptionHandler.obj
 0002:000054f0       ??_C@_0BH@PIHGMMNI@a?5Float?5Divide?5by?5Zero?$AA@ 100264f0     Engine:ExceptionHandler.obj
 0002:00005508       ??_C@_0BJ@LCJBHHL@a?5Float?5Denormal?5Operand?$AA@ 10026508     Engine:ExceptionHandler.obj
 0002:00005524       ??_C@_0BI@DFIFOIBG@a?5Array?5Bounds?5Exceeded?$AA@ 10026524     Engine:ExceptionHandler.obj
 0002:0000553c       ??_C@_0BH@HOHCDFKK@an?5Invalid?5Disposition?$AA@ 1002653c     Engine:ExceptionHandler.obj
 0002:00005554       ??_C@_0BL@DFCKDLHL@a?5Noncontinuable?5Exception?$AA@ 10026554     Engine:ExceptionHandler.obj
 0002:00005570       ??_C@_0BH@CMGOADMI@an?5Illegal?5Instruction?$AA@ 10026570     Engine:ExceptionHandler.obj
 0002:00005588       ??_C@_0M@JNBECNGI@a?5No?5Memory?$AA@ 10026588     Engine:ExceptionHandler.obj
 0002:00005594       ??_C@_0BB@DKICMMFA@an?5In?5Page?5Error?$AA@ 10026594     Engine:ExceptionHandler.obj
 0002:000055a8       ??_C@_0BE@GLOKLDAN@an?5Access?5Violation?$AA@ 100265a8     Engine:ExceptionHandler.obj
 0002:000055bc       ??_C@_0N@JLDHOHAI@a?5Breakpoint?$AA@ 100265bc     Engine:ExceptionHandler.obj
 0002:000055cc       ??_C@_0BI@IPDDFHBH@a?5Datatype?5Misalignment?$AA@ 100265cc     Engine:ExceptionHandler.obj
 0002:000055e4       ??_C@_0BA@MNEFCPPO@a?5Control?9Break?$AA@ 100265e4     Engine:ExceptionHandler.obj
 0002:000055f4       ??_C@_0M@FNOJOPNP@a?5Control?9C?$AA@ 100265f4     Engine:ExceptionHandler.obj
 0002:00005600       ??_C@_0BH@GMMOLJLG@Unknown?5exception?5type?$AA@ 10026600     Engine:ExceptionHandler.obj
 0002:00005618       ??_C@_0CD@JCCALPDL@?$CFs?0?5loaded?5at?50x?$CF08x?5?9?5?$CFd?5bytes?4@ 10026618     Engine:ExceptionHandler.obj
 0002:00005650       ??_C@_0EH@IAGPJNKE@?$AN?6?7Module?5list?3?5names?0?5addresses@ 10026650     Engine:ExceptionHandler.obj
 0002:00005698       ??_C@_0BN@PBHEHCOH@?$CFd?5MBytes?5physical?5memory?4?$AN?6?$AA@ 10026698     Engine:ExceptionHandler.obj
 0002:000056b8       ??_C@_0BM@CGPALIEL@?$CFd?5processor?$CIs?$CJ?0?5type?5?$CFd?4?$AN?6?$AA@ 100266b8     Engine:ExceptionHandler.obj
 0002:000056d4       ??_C@_0BI@JNCPBKJH@Error?5occurred?5at?5?$CFs?4?$AN?6?$AA@ 100266d4     Engine:ExceptionHandler.obj
 0002:000056ec       ??_C@_0CL@OMKINDCC@Exception?5encountered?5during?5sta@ 100266ec     Engine:ExceptionHandler.obj
 0002:00005718       ??_C@_06POCCOEBN@?$CF08x?$CFs?$AA@ 10026718     Engine:ExceptionHandler.obj
 0002:00005720       ??_C@_06HIMOAOMH@?$CF08x?3?5?$AA@ 10026720     Engine:ExceptionHandler.obj
 0002:00005728       ??_C@_0BA@EHPJBAFB@?$AN?6Stack?5dump?3?$AN?6?$AA@ 10026728     Engine:ExceptionHandler.obj
 0002:00005738       ??_C@_0CE@NMKHNEEO@EDX?$DN?$CF08x?5ES?$DN?$CF04x?5EDI?$DN?$CF08x?5GS?$DN?$CF04@ 10026738     Engine:ExceptionHandler.obj
 0002:0000575c       ??_C@_0CE@JBCNJPPG@ECX?$DN?$CF08x?5DS?$DN?$CF04x?5ESI?$DN?$CF08x?5FS?$DN?$CF04@ 1002675c     Engine:ExceptionHandler.obj
 0002:00005780       ??_C@_0CF@OPAAPHI@EBX?$DN?$CF08x?5SS?$DN?$CF04x?5ESP?$DN?$CF08x?5EBP?$DN?$CF0@ 10026780     Engine:ExceptionHandler.obj
 0002:000057a8       ??_C@_0CH@CBHAEAIG@EAX?$DN?$CF08x?5CS?$DN?$CF04x?5EIP?$DN?$CF08x?5EFLGS?$DN@ 100267a8     Engine:ExceptionHandler.obj
 0002:000057d0       ??_C@_0N@NADCNKKP@Registers?3?$AN?6?$AA@ 100267d0     Engine:ExceptionHandler.obj
 0002:000057e0       ??_C@_02PCIJFNDE@?$AN?6?$AA@ 100267e0     Engine:ExceptionHandler.obj
 0002:000057e4       ??_C@_0CP@PADPOHII@?$CFs?5location?5?$CF08x?5caused?5an?5acces@ 100267e4     Engine:ExceptionHandler.obj
 0002:00005814       ??_C@_08CPFAPHAF@Write?5to?$AA@ 10026814     Engine:ExceptionHandler.obj
 0002:00005820       ??_C@_09JHOILLPP@Read?5from?$AA@ 10026820     Engine:ExceptionHandler.obj
 0002:0000582c       ??_C@_0CK@PECMEOFD@?$CFs?5caused?5?$CFs?5in?5module?5?$CFs?5at?5?$CF04@ 1002682c     Engine:ExceptionHandler.obj
 0002:00005858       ??_C@_0CA@MGJAALIN@Error?5creating?5exception?5report?$AA@ 10026858     Engine:ExceptionHandler.obj
 0002:00005878       ??_C@_0CD@PFDEGHAA@?4?2Crash?5Logs?2crash?9?$CFY?$CFm?$CFd?9?$CFM?$CFS?4l@ 10026878     Engine:ExceptionHandler.obj
 0002:0000589c       ??_C@_0L@EIJAMFPF@Crash?5Logs?$AA@ 1002689c     Engine:ExceptionHandler.obj
 0002:000058b8       ??_7type_info@@6B@         100268b8     MSVCRT:ti_inst.obj
 0002:000058bc       __pDefaultRawDllMain       100268bc     MSVCRT:crtdll.obj
 0002:000058bc       __pRawDllMain              100268bc     MSVCRT:crtdll.obj
 0002:000058f8       ??_R4bad_alloc@std@@6B@    100268f8     DarkPeer.obj
 0002:0000590c       ??_R3bad_alloc@std@@8      1002690c     DarkPeer.obj
 0002:0000591c       ??_R2bad_alloc@std@@8      1002691c     DarkPeer.obj
 0002:00005928       ??_R1A@?0A@EA@bad_alloc@std@@8 10026928     DarkPeer.obj
 0002:00005944       ??_R1A@?0A@EA@exception@std@@8 10026944     DarkPeer.obj
 0002:00005960       ??_R3exception@std@@8      10026960     DarkPeer.obj
 0002:00005970       ??_R2exception@std@@8      10026970     DarkPeer.obj
 0002:00005978       ??_R4IDarkNet@@6B@         10026978     DarkPeer.obj
 0002:0000598c       ??_R3IDarkNet@@8           1002698c     DarkPeer.obj
 0002:0000599c       ??_R2IDarkNet@@8           1002699c     DarkPeer.obj
 0002:000059a4       ??_R1A@?0A@EA@IDarkNet@@8  100269a4     DarkPeer.obj
 0002:000059c0       ??_R4logic_error@std@@6B@  100269c0     DarkPeer.obj
 0002:000059d4       ??_R3logic_error@std@@8    100269d4     DarkPeer.obj
 0002:000059e4       ??_R2logic_error@std@@8    100269e4     DarkPeer.obj
 0002:000059f0       ??_R1A@?0A@EA@logic_error@std@@8 100269f0     DarkPeer.obj
 0002:00005a0c       ??_R4length_error@std@@6B@ 10026a0c     DarkPeer.obj
 0002:00005a20       ??_R3length_error@std@@8   10026a20     DarkPeer.obj
 0002:00005a30       ??_R2length_error@std@@8   10026a30     DarkPeer.obj
 0002:00005a40       ??_R1A@?0A@EA@length_error@std@@8 10026a40     DarkPeer.obj
 0002:00005a5c       ??_R4out_of_range@std@@6B@ 10026a5c     DarkPeer.obj
 0002:00005a70       ??_R3out_of_range@std@@8   10026a70     DarkPeer.obj
 0002:00005a80       ??_R2out_of_range@std@@8   10026a80     DarkPeer.obj
 0002:00005a90       ??_R1A@?0A@EA@out_of_range@std@@8 10026a90     DarkPeer.obj
 0002:00005aac       ??_R4IEventListener@@6B@   10026aac     DarkPeer.obj
 0002:00005ac0       ??_R3IEventListener@@8     10026ac0     DarkPeer.obj
 0002:00005ad0       ??_R2IEventListener@@8     10026ad0     DarkPeer.obj
 0002:00005ad8       ??_R1A@?0A@EA@IEventListener@@8 10026ad8     DarkPeer.obj
 0002:00005af4       ??_R4CDarkPeer@@6BIDarkNet@@@ 10026af4     DarkPeer.obj
 0002:00005b08       ??_R3CDarkPeer@@8          10026b08     DarkPeer.obj
 0002:00005b18       ??_R2CDarkPeer@@8          10026b18     DarkPeer.obj
 0002:00005b28       ??_R1A@?0A@EA@CDarkPeer@@8 10026b28     DarkPeer.obj
 0002:00005b44       ??_R13?0A@EN@IEventListener@@8 10026b44     DarkPeer.obj
 0002:00005b60       ??_R4CDarkPeer@@6BIEventListener@@@ 10026b60     DarkPeer.obj
 0002:00005b74       ??_R4CDarkSessionManager@@6B@ 10026b74     DarkSessionManager.obj
 0002:00005b88       ??_R3CDarkSessionManager@@8 10026b88     DarkSessionManager.obj
 0002:00005b98       ??_R2CDarkSessionManager@@8 10026b98     DarkSessionManager.obj
 0002:00005ba0       ??_R1A@?0A@EA@CDarkSessionManager@@8 10026ba0     DarkSessionManager.obj
 0002:00005bbc       ??_R3CMarshalled@@8        10026bbc     T2GenericReaction.obj
 0002:00005bcc       ??_R2CMarshalled@@8        10026bcc     T2GenericReaction.obj
 0002:00005bd4       ??_R1A@?0A@EA@CMarshalled@@8 10026bd4     T2GenericReaction.obj
 0002:00005bf0       ??_R4CNetMsg_GenericReaction@@6B@ 10026bf0     T2GenericReaction.obj
 0002:00005c04       ??_R3CNetMsg_GenericReaction@@8 10026c04     T2GenericReaction.obj
 0002:00005c14       ??_R2CNetMsg_GenericReaction@@8 10026c14     T2GenericReaction.obj
 0002:00005c20       ??_R1A@?0A@EA@CNetMsg_GenericReaction@@8 10026c20     T2GenericReaction.obj
 0002:00005c3c       ??_R4CNetMsg_PlayerDeath@@6B@ 10026c3c     T2PlayerDeath.obj
 0002:00005c50       ??_R3CNetMsg_PlayerDeath@@8 10026c50     T2PlayerDeath.obj
 0002:00005c60       ??_R2CNetMsg_PlayerDeath@@8 10026c60     T2PlayerDeath.obj
 0002:00005c6c       ??_R1A@?0A@EA@CNetMsg_PlayerDeath@@8 10026c6c     T2PlayerDeath.obj
 0002:00005c88       ??_R4CNetMsg_ScriptMsg@@6B@ 10026c88     T2ScriptMsg.obj
 0002:00005c9c       ??_R3CNetMsg_ScriptMsg@@8  10026c9c     T2ScriptMsg.obj
 0002:00005cac       ??_R2CNetMsg_ScriptMsg@@8  10026cac     T2ScriptMsg.obj
 0002:00005cb8       ??_R1A@?0A@EA@CNetMsg_ScriptMsg@@8 10026cb8     T2ScriptMsg.obj
 0002:00005cd4       ??_R3CEControl@EngCtrls@@8 10026cd4     ConnectDialog.obj
 0002:00005ce4       ??_R2CEControl@EngCtrls@@8 10026ce4     ConnectDialog.obj
 0002:00005cec       ??_R1A@?0A@EA@CEControl@EngCtrls@@8 10026cec     ConnectDialog.obj
 0002:00005d08       ??_R4CEEditBox@EngCtrls@@6B@ 10026d08     ConnectDialog.obj
 0002:00005d1c       ??_R3CEEditBox@EngCtrls@@8 10026d1c     ConnectDialog.obj
 0002:00005d2c       ??_R2CEEditBox@EngCtrls@@8 10026d2c     ConnectDialog.obj
 0002:00005d38       ??_R1A@?0A@EA@CEEditBox@EngCtrls@@8 10026d38     ConnectDialog.obj
 0002:00005d54       ??_R4HistoryItem@@6B@      10026d54     ConsoleGUI.obj
 0002:00005d68       ??_R3HistoryItem@@8        10026d68     ConsoleGUI.obj
 0002:00005d78       ??_R2HistoryItem@@8        10026d78     ConsoleGUI.obj
 0002:00005d80       ??_R1A@?0A@EA@HistoryItem@@8 10026d80     ConsoleGUI.obj
 0002:00005d9c       ??_R4CConsoleBase@@6B@     10026d9c     ConsoleGUI.obj
 0002:00005db0       ??_R3CConsoleBase@@8       10026db0     ConsoleGUI.obj
 0002:00005dc0       ??_R2CConsoleBase@@8       10026dc0     ConsoleGUI.obj
 0002:00005dc8       ??_R1A@?0A@EA@CConsoleBase@@8 10026dc8     ConsoleGUI.obj
 0002:00005de4       ??_R4CThiefConsole@@6B@    10026de4     DarkWinGui.obj
 0002:00005df8       ??_R3CThiefConsole@@8      10026df8     DarkWinGui.obj
 0002:00005e08       ??_R2CThiefConsole@@8      10026e08     DarkWinGui.obj
 0002:00005e14       ??_R1A@?0A@EA@CThiefConsole@@8 10026e14     DarkWinGui.obj
 0002:00005e30       ??_R3IInterfaceManager@@8  10026e30     DarkWinGui.obj
 0002:00005e40       ??_R2IInterfaceManager@@8  10026e40     DarkWinGui.obj
 0002:00005e48       ??_R1A@?0A@EA@IInterfaceManager@@8 10026e48     DarkWinGui.obj
 0002:00005e64       ??_R4CEListBox@EngCtrls@@6B@ 10026e64     DarkWinGui.obj
 0002:00005e78       ??_R3CEListBox@EngCtrls@@8 10026e78     DarkWinGui.obj
 0002:00005e88       ??_R2CEListBox@EngCtrls@@8 10026e88     DarkWinGui.obj
 0002:00005e94       ??_R1A@?0A@EA@CEListBox@EngCtrls@@8 10026e94     DarkWinGui.obj
 0002:00005eb0       ??_R4CEComboBox@EngCtrls@@6B@ 10026eb0     DarkWinGui.obj
 0002:00005ec4       ??_R3CEComboBox@EngCtrls@@8 10026ec4     DarkWinGui.obj
 0002:00005ed4       ??_R2CEComboBox@EngCtrls@@8 10026ed4     DarkWinGui.obj
 0002:00005ee0       ??_R1A@?0A@EA@CEComboBox@EngCtrls@@8 10026ee0     DarkWinGui.obj
 0002:00005efc       ??_R4InterfaceManager@@6B@ 10026efc     DarkWinGui.obj
 0002:00005f10       ??_R3InterfaceManager@@8   10026f10     DarkWinGui.obj
 0002:00005f20       ??_R2InterfaceManager@@8   10026f20     DarkWinGui.obj
 0002:00005f2c       ??_R1A@?0A@EA@InterfaceManager@@8 10026f2c     DarkWinGui.obj
 0002:00005f48       ??_R4CEButton@EngCtrls@@6B@ 10026f48     HostDialog.obj
 0002:00005f5c       ??_R3CEButton@EngCtrls@@8  10026f5c     HostDialog.obj
 0002:00005f6c       ??_R2CEButton@EngCtrls@@8  10026f6c     HostDialog.obj
 0002:00005f78       ??_R1A@?0A@EA@CEButton@EngCtrls@@8 10026f78     HostDialog.obj
 0002:00005f94       ??_R4CClient@@6B@          10026f94     Client.obj
 0002:00005fa8       ??_R3CClient@@8            10026fa8     Client.obj
 0002:00005fb8       ??_R2CClient@@8            10026fb8     Client.obj
 0002:00005fc4       ??_R1A@?0A@EA@CClient@@8   10026fc4     Client.obj
 0002:00005fe0       ??_R4CDPWrapper@@6B@       10026fe0     DP4Wrapper.obj
 0002:00005ff4       ??_R3CDPWrapper@@8         10026ff4     DP4Wrapper.obj
 0002:00006004       ??_R2CDPWrapper@@8         10027004     DP4Wrapper.obj
 0002:0000601c       ??_R1A@?0A@EA@CDPWrapper@@8 1002701c     DP4Wrapper.obj
 0002:00006038       ??_R1A@?0A@EN@IDirectPlay4@@8 10027038     DP4Wrapper.obj
 0002:00006054       ??_R3IDirectPlay4@@8       10027054     DP4Wrapper.obj
 0002:00006064       ??_R2IDirectPlay4@@8       10027064     DP4Wrapper.obj
 0002:00006078       ??_R1A@?0A@EA@IDirectPlay4@@8 10027078     DP4Wrapper.obj
 0002:00006094       ??_R1A@?0A@EA@IDirectPlay3@@8 10027094     DP4Wrapper.obj
 0002:000060b0       ??_R3IDirectPlay3@@8       100270b0     DP4Wrapper.obj
 0002:000060c0       ??_R2IDirectPlay3@@8       100270c0     DP4Wrapper.obj
 0002:000060d0       ??_R1A@?0A@EA@IDirectPlay2@@8 100270d0     DP4Wrapper.obj
 0002:000060ec       ??_R3IDirectPlay2@@8       100270ec     DP4Wrapper.obj
 0002:000060fc       ??_R2IDirectPlay2@@8       100270fc     DP4Wrapper.obj
 0002:00006108       ??_R1A@?0A@EA@IUnknown@@8  10027108     DP4Wrapper.obj
 0002:00006124       ??_R3IUnknown@@8           10027124     DP4Wrapper.obj
 0002:00006134       ??_R2IUnknown@@8           10027134     DP4Wrapper.obj
 0002:0000613c       ??_R1A@?0A@EJ@IDirectPlay3@@8 1002713c     DP4Wrapper.obj
 0002:00006158       ??_R1A@?0A@EJ@IDirectPlay2@@8 10027158     DP4Wrapper.obj
 0002:00006174       ??_R1A@?0A@EJ@IUnknown@@8  10027174     DP4Wrapper.obj
 0002:00006190       ??_R4CGamesysManager@@6B@  10027190     Gamesys.obj
 0002:000061a4       ??_R3CGamesysManager@@8    100271a4     Gamesys.obj
 0002:000061b4       ??_R2CGamesysManager@@8    100271b4     Gamesys.obj
 0002:000061c0       ??_R1A@?0A@EA@CGamesysManager@@8 100271c0     Gamesys.obj
 0002:000061dc       ??_R3IUnknownImpl@@8       100271dc     LG.obj
 0002:000061ec       ??_R2IUnknownImpl@@8       100271ec     LG.obj
 0002:000061f8       ??_R1A@?0A@EA@IUnknownImpl@@8 100271f8     LG.obj
 0002:00006214       ??_R4cAvatar@@6B@          10027214     LG.obj
 0002:00006228       ??_R3cAvatar@@8            10027228     LG.obj
 0002:00006238       ??_R2cAvatar@@8            10027238     LG.obj
 0002:00006248       ??_R1A@?0A@EA@cAvatar@@8   10027248     LG.obj
 0002:00006264       ??_R4Message@@6B@          10027264     MessageManager.obj
 0002:00006278       ??_R3Message@@8            10027278     MessageManager.obj
 0002:00006288       ??_R2Message@@8            10027288     MessageManager.obj
 0002:00006290       ??_R1A@?0A@EA@Message@@8   10027290     MessageManager.obj
 0002:000062ac       ??_R4MessageMgr@@6B@       100272ac     MessageManager.obj
 0002:000062c0       ??_R3MessageMgr@@8         100272c0     MessageManager.obj
 0002:000062d0       ??_R2MessageMgr@@8         100272d0     MessageManager.obj
 0002:000062d8       ??_R1A@?0A@EA@MessageMgr@@8 100272d8     MessageManager.obj
 0002:000062f4       ??_R4SaveManager@@6B@      100272f4     SaveManager.obj
 0002:00006308       ??_R3SaveManager@@8        10027308     SaveManager.obj
 0002:00006318       ??_R2SaveManager@@8        10027318     SaveManager.obj
 0002:00006324       ??_R1A@?0A@EA@SaveManager@@8 10027324     SaveManager.obj
 0002:00006340       ??_R4CEListView@EngCtrls@@6B@ 10027340     ServerBrowser.obj
 0002:00006354       ??_R3CEListView@EngCtrls@@8 10027354     ServerBrowser.obj
 0002:00006364       ??_R2CEListView@EngCtrls@@8 10027364     ServerBrowser.obj
 0002:00006370       ??_R1A@?0A@EA@CEListView@EngCtrls@@8 10027370     ServerBrowser.obj
 0002:0000638c       ??_R3IGSBrowser@@8         1002738c     ServerBrowser.obj
 0002:0000639c       ??_R2IGSBrowser@@8         1002739c     ServerBrowser.obj
 0002:000063a4       ??_R1A@?0A@EA@IGSBrowser@@8 100273a4     ServerBrowser.obj
 0002:000063c0       ??_R4CServerList@@6B@      100273c0     ServerBrowser.obj
 0002:000063d4       ??_R3CServerList@@8        100273d4     ServerBrowser.obj
 0002:000063e4       ??_R2CServerList@@8        100273e4     ServerBrowser.obj
 0002:000063ec       ??_R1A@?0A@EA@CServerList@@8 100273ec     ServerBrowser.obj
 0002:00006408       ??_R4CServerBrowser@@6B@   10027408     ServerBrowser.obj
 0002:0000641c       ??_R3CServerBrowser@@8     1002741c     ServerBrowser.obj
 0002:0000642c       ??_R2CServerBrowser@@8     1002742c     ServerBrowser.obj
 0002:00006438       ??_R1A@?0A@EA@CServerBrowser@@8 10027438     ServerBrowser.obj
 0002:00006454       ??_R4CServerListEntry@@6B@ 10027454     ServerList.obj
 0002:00006468       ??_R3CServerListEntry@@8   10027468     ServerList.obj
 0002:00006478       ??_R2CServerListEntry@@8   10027478     ServerList.obj
 0002:00006480       ??_R1A@?0A@EA@CServerListEntry@@8 10027480     ServerList.obj
 0002:0000649c       ??_R4DarkOverlayManager@@6B@ 1002749c     DarkOverlay.obj
 0002:000064b0       ??_R3DarkOverlayManager@@8 100274b0     DarkOverlay.obj
 0002:000064c0       ??_R2DarkOverlayManager@@8 100274c0     DarkOverlay.obj
 0002:000064c8       ??_R1A@?0A@EA@DarkOverlayManager@@8 100274c8     DarkOverlay.obj
 0002:000064e4       ??_R3IDarkOverlay@@8       100274e4     DarkOverlay.obj
 0002:000064f4       ??_R2IDarkOverlay@@8       100274f4     DarkOverlay.obj
 0002:000064fc       ??_R1A@?0A@EA@IDarkOverlay@@8 100274fc     DarkOverlay.obj
 0002:00006518       ??_R4DarkOverlay@@6B@      10027518     DarkOverlay.obj
 0002:0000652c       ??_R3DarkOverlay@@8        1002752c     DarkOverlay.obj
 0002:0000653c       ??_R2DarkOverlay@@8        1002753c     DarkOverlay.obj
 0002:00006548       ??_R1A@?0A@EA@DarkOverlay@@8 10027548     DarkOverlay.obj
 0002:00006564       ??_R4PlayersOverlay@@6B@   10027564     DarkOverlay.obj
 0002:00006578       ??_R3PlayersOverlay@@8     10027578     DarkOverlay.obj
 0002:00006588       ??_R2PlayersOverlay@@8     10027588     DarkOverlay.obj
 0002:00006598       ??_R1A@?0A@EA@PlayersOverlay@@8 10027598     DarkOverlay.obj
 0002:000065b4       ??_R4MapOverlay@@6B@       100275b4     DarkOverlay.obj
 0002:000065c8       ??_R3MapOverlay@@8         100275c8     DarkOverlay.obj
 0002:000065d8       ??_R2MapOverlay@@8         100275d8     DarkOverlay.obj
 0002:000065e8       ??_R1A@?0A@EA@MapOverlay@@8 100275e8     DarkOverlay.obj
 0002:00006604       ??_R4BookOverlay@@6B@      10027604     DarkOverlay.obj
 0002:00006618       ??_R3BookOverlay@@8        10027618     DarkOverlay.obj
 0002:00006628       ??_R2BookOverlay@@8        10027628     DarkOverlay.obj
 0002:00006638       ??_R1A@?0A@EA@BookOverlay@@8 10027638     DarkOverlay.obj
 0002:00006654       ??_R4SimOverlay@@6B@       10027654     DarkOverlay.obj
 0002:00006668       ??_R3SimOverlay@@8         10027668     DarkOverlay.obj
 0002:00006678       ??_R2SimOverlay@@8         10027678     DarkOverlay.obj
 0002:00006688       ??_R1A@?0A@EA@SimOverlay@@8 10027688     DarkOverlay.obj
 0002:000066a4       ??_R4ObjectivesOverlay@@6B@ 100276a4     DarkOverlay.obj
 0002:000066b8       ??_R3ObjectivesOverlay@@8  100276b8     DarkOverlay.obj
 0002:000066c8       ??_R2ObjectivesOverlay@@8  100276c8     DarkOverlay.obj
 0002:000066d8       ??_R1A@?0A@EA@ObjectivesOverlay@@8 100276d8     DarkOverlay.obj
 0002:000066f4       ??_R4StagingOverlay@@6B@   100276f4     DarkOverlay.obj
 0002:00006708       ??_R3StagingOverlay@@8     10027708     DarkOverlay.obj
 0002:00006718       ??_R2StagingOverlay@@8     10027718     DarkOverlay.obj
 0002:0000672c       ??_R1A@?0A@EA@StagingOverlay@@8 1002772c     DarkOverlay.obj
 0002:00006748       ??_R4DialogElement@@6B@    10027748     DialogElement.obj
 0002:0000675c       ??_R3DialogElement@@8      1002775c     DialogElement.obj
 0002:0000676c       ??_R2DialogElement@@8      1002776c     DialogElement.obj
 0002:00006774       ??_R1A@?0A@EA@DialogElement@@8 10027774     DialogElement.obj
 0002:00006790       ??_R4Element_Text@@6B@     10027790     DialogElement.obj
 0002:000067a4       ??_R3Element_Text@@8       100277a4     DialogElement.obj
 0002:000067b4       ??_R2Element_Text@@8       100277b4     DialogElement.obj
 0002:000067c0       ??_R1A@?0A@EA@Element_Text@@8 100277c0     DialogElement.obj
 0002:000067dc       ??_R4Element_Image@@6B@    100277dc     DialogElement.obj
 0002:000067f0       ??_R3Element_Image@@8      100277f0     DialogElement.obj
 0002:00006800       ??_R2Element_Image@@8      10027800     DialogElement.obj
 0002:0000680c       ??_R1A@?0A@EA@Element_Image@@8 1002780c     DialogElement.obj
 0002:00006828       ??_R4Element_Button@@6B@   10027828     DialogElement.obj
 0002:0000683c       ??_R3Element_Button@@8     1002783c     DialogElement.obj
 0002:0000684c       ??_R2Element_Button@@8     1002784c     DialogElement.obj
 0002:0000685c       ??_R1A@?0A@EA@Element_Button@@8 1002785c     DialogElement.obj
 0002:00006878       ??_R4type_info@@6B@        10027878     MSVCRT:ti_inst.obj
 0002:0000688c       ??_R3type_info@@8          1002788c     MSVCRT:ti_inst.obj
 0002:0000689c       ??_R2type_info@@8          1002789c     MSVCRT:ti_inst.obj
 0002:000068a4       ??_R1A@?0A@EA@type_info@@8 100278a4     MSVCRT:ti_inst.obj
 0002:000068c0       ___rtc_iaa                 100278c0     MSVCRT:_initsect_.obj
 0002:000068c4       ___rtc_izz                 100278c4     MSVCRT:_initsect_.obj
 0002:000068c8       ___rtc_taa                 100278c8     MSVCRT:_initsect_.obj
 0002:000068cc       ___rtc_tzz                 100278cc     MSVCRT:_initsect_.obj
 0002:00006988       __TI2?AVbad_alloc@std@@    10027988     DarkPeer.obj
 0002:00006998       __CTA2?AVbad_alloc@std@@   10027998     DarkPeer.obj
 0002:000069a4       __CT??_R0?AVbad_alloc@std@@@8??0bad_alloc@std@@QAE@ABV01@@Z12 100279a4     DarkPeer.obj
 0002:000069c0       __CT??_R0?AVexception@std@@@8??0exception@std@@QAE@ABV01@@Z12 100279c0     DarkPeer.obj
 0002:000069dc       __TI3?AVlength_error@std@@ 100279dc     DarkPeer.obj
 0002:000069ec       __CTA3?AVlength_error@std@@ 100279ec     DarkPeer.obj
 0002:000069fc       __CT??_R0?AVlength_error@std@@@8??0length_error@std@@QAE@ABV01@@Z40 100279fc     DarkPeer.obj
 0002:00006a18       __CT??_R0?AVlogic_error@std@@@8??0logic_error@std@@QAE@ABV01@@Z40 10027a18     DarkPeer.obj
 0002:00006a60       __TI3?AVout_of_range@std@@ 10027a60     DarkPeer.obj
 0002:00006a70       __CTA3?AVout_of_range@std@@ 10027a70     DarkPeer.obj
 0002:00006a80       __CT??_R0?AVout_of_range@std@@@8??0out_of_range@std@@QAE@ABV01@@Z40 10027a80     DarkPeer.obj
 0002:00006ae0       __TI1?AVDPlayException@@   10027ae0     DarkPeer.obj
 0002:00006b50       __CTA1?AVDPlayException@@  10027b50     DarkPeer.obj
 0002:00006b58       __CT??_R0?AVDPlayException@@@88 10027b58     DarkPeer.obj
 0002:00007adc       __IMPORT_DESCRIPTOR_COMCTL32 10028adc     comctl32:COMCTL32.dll
 0002:00007af0       __IMPORT_DESCRIPTOR_KERNEL32 10028af0     kernel32:KERNEL32.dll
 0002:00007b04       __IMPORT_DESCRIPTOR_USER32 10028b04     user32:USER32.dll
 0002:00007b18       __IMPORT_DESCRIPTOR_ole32  10028b18     ole32:ole32.dll
 0002:00007b2c       __IMPORT_DESCRIPTOR_MSVCR90 10028b2c     MSVCRT:MSVCR90.dll
 0002:00007b40       __IMPORT_DESCRIPTOR_MSVCP90 10028b40     msvcprt:MSVCP90.dll
 0002:00007b54       __NULL_IMPORT_DESCRIPTOR   10028b54     Engine:VERSION.dll
 0003:000002e0       ?lastWeap@@3PAKA           1002a2e0     Commands.obj
 0003:000002e8       ?CommandList@@3PAUCommandPatchList@@A 1002a2e8     Commands.obj
 0003:00000350       ??_R0?AVDPlayException@@@8 1002a350     Net.obj
 0003:00000370       ??_R0?AVbad_alloc@std@@@8  1002a370     DarkPeer.obj
 0003:0000038c       ??_R0?AVexception@std@@@8  1002a38c     DarkPeer.obj
 0003:000003a8       ??_R0?AUIDarkNet@@@8       1002a3a8     DarkPeer.obj
 0003:000003c0       ??_R0?AVlogic_error@std@@@8 1002a3c0     DarkPeer.obj
 0003:000003e0       ??_R0?AVlength_error@std@@@8 1002a3e0     DarkPeer.obj
 0003:00000400       ??_R0?AVout_of_range@std@@@8 1002a400     DarkPeer.obj
 0003:00000420       ??_R0?AUIEventListener@@@8 1002a420     DarkPeer.obj
 0003:00000440       ??_R0?AVCDarkPeer@@@8      1002a440     DarkPeer.obj
 0003:00000458       ??_R0?AVCDarkSessionManager@@@8 1002a458     DarkSessionManager.obj
 0003:0000047c       ?kDefaultName@@3PBDB       1002a47c     PlayerDB.obj
 0003:00000480       ??_R0?AVCMarshalled@@@8    1002a480     T2GenericReaction.obj
 0003:0000049c       ??_R0?AVCNetMsg_GenericReaction@@@8 1002a49c     T2GenericReaction.obj
 0003:000004c4       ??_R0?AVCNetMsg_PlayerDeath@@@8 1002a4c4     T2PlayerDeath.obj
 0003:000004e8       ??_R0?AVCNetMsg_ScriptMsg@@@8 1002a4e8     T2ScriptMsg.obj
 0003:00000508       ??_R0?AVCEControl@EngCtrls@@@8 1002a508     ConnectDialog.obj
 0003:0000052c       ??_R0?AVCEEditBox@EngCtrls@@@8 1002a52c     ConnectDialog.obj
 0003:00000550       ??_R0?AVHistoryItem@@@8    1002a550     ConsoleGUI.obj
 0003:0000056c       ??_R0?AVCConsoleBase@@@8   1002a56c     ConsoleGUI.obj
 0003:00000588       ??_R0?AVCThiefConsole@@@8  1002a588     DarkWinGui.obj
 0003:000005a4       ??_R0?AUIInterfaceManager@@@8 1002a5a4     DarkWinGui.obj
 0003:000005c4       ??_R0?AVCEListBox@EngCtrls@@@8 1002a5c4     DarkWinGui.obj
 0003:000005e8       ??_R0?AVCEComboBox@EngCtrls@@@8 1002a5e8     DarkWinGui.obj
 0003:0000060c       ??_R0?AVInterfaceManager@@@8 1002a60c     DarkWinGui.obj
 0003:0000062c       ??_R0?AVCEButton@EngCtrls@@@8 1002a62c     HostDialog.obj
 0003:0000064c       ??_R0?AVCClient@@@8        1002a64c     Client.obj
 0003:00000664       ?Client@@3VCClient@@A      1002a664     Client.obj
 0003:000006a8       ?ConsoleCmds@@3PAUConsoleCommand@@A 1002a6a8     Console.obj
 0003:00000918       ?g_numCommands@@3HA        1002a918     Console.obj
 0003:00000944       ??_R0?AVCDPWrapper@@@8     1002a944     DP4Wrapper.obj
 0003:00000960       ??_R0?AUIDirectPlay4@@@8   1002a960     DP4Wrapper.obj
 0003:0000097c       ??_R0?AUIDirectPlay3@@@8   1002a97c     DP4Wrapper.obj
 0003:00000998       ??_R0?AUIDirectPlay2@@@8   1002a998     DP4Wrapper.obj
 0003:000009b4       ??_R0?AUIUnknown@@@8       1002a9b4     DP4Wrapper.obj
 0003:000009cc       ?scriptWarning@@3PBDB      1002a9cc     FileHash.obj
 0003:000009d0       ??_R0?AVCGamesysManager@@@8 1002a9d0     Gamesys.obj
 0003:000009f0       ?Gamesys@@3VCGamesysManager@@A 1002a9f0     Gamesys.obj
 0003:00000a84       ??_R0?AVIUnknownImpl@@@8   1002aa84     LG.obj
 0003:00000aa0       ??_R0?AVcAvatar@@@8        1002aaa0     LG.obj
 0003:00000ab8       ?g_ppDamageModel@@3PAPAUIDamageModel@@A 1002aab8     Main.obj
 0003:00000abc       ?g_pActReact@@3PAUIActReactSrv@@A 1002aabc     Main.obj
 0003:00000ac0       ?g_pNetSrv@@3PAUINetworkingSrv@@A 1002aac0     Main.obj
 0003:00000ac4       ?g_cDamageSrvScriptService@@3PAUIDamageSrv@@A 1002aac4     Main.obj
 0003:00000ac8       ?g_cDarkGameSrvScriptService@@3PAUIDarkGameSrv@@A 1002aac8     Main.obj
 0003:00000acc       ?g_cSoundScrSrvScriptService@@3PAUISoundScrSrv@@A 1002aacc     Main.obj
 0003:00000ad0       ?g_ModelNameDesc@@3PAUsPropertyDesc@@A 1002aad0     Main.obj
 0003:00000ad4       ?g_MeshAttachDesc@@3PAUsPropertyDesc@@A 1002aad4     Main.obj
 0003:00000ad8       ?g_PickStateDesc@@3PAUsPropertyDesc@@A 1002aad8     Main.obj
 0003:00000adc       ?g_CurWpnDmgDesc@@3PAUsPropertyDesc@@A 1002aadc     Main.obj
 0003:00000ae0       ?g_InvBeingTakenDesc@@3PAUsPropertyDesc@@A 1002aae0     Main.obj
 0003:00000ae4       ?g_SelfIllumDesc@@3PAUsPropertyDesc@@A 1002aae4     Main.obj
 0003:00000ae8       ?g_AmbientHackedDesc@@3PAUsPropertyDesc@@A 1002aae8     Main.obj
 0003:00000aec       ?g_StackCountDesc@@3PAUsPropertyDesc@@A 1002aaec     Main.obj
 0003:00000af0       ?g_DeathStageDesc@@3PAUsPropertyDesc@@A 1002aaf0     Main.obj
 0003:00000af4       ?g_SpeechHandles@@3PAV?$cDynArray@H@@A 1002aaf4     Main.obj
 0003:00000af8       ?_highlit_obj@@3PAKA       1002aaf8     Main.obj
 0003:00000afc       ?_g_PickCurrentObj@@3PAKA  1002aafc     Main.obj
 0003:00000b00       ?_frobWorldSelectObj@@3PAKA 1002ab00     Main.obj
 0003:00000b04       ?_g_arrowObj@@3PAKA        1002ab04     Main.obj
 0003:00000b08       ?_gPlayerCam@@3PAPAUPlayerCamera@@A 1002ab08     Main.obj
 0003:00000b0c       ?_gNoMoveKeys@@3PAHA       1002ab0c     Main.obj
 0003:00000b10       ?_gPlayerObj@@3PAKA        1002ab10     Main.obj
 0003:00000b14       ?pConsoleState@@3PAKA      1002ab14     Main.obj
 0003:00000b18       ?pMissFlags@@3PAKA         1002ab18     Main.obj
 0003:00000b1c       ?pSlowFrame@@3PAHA         1002ab1c     Main.obj
 0003:00000b20       ?pChNil@@3PADA             1002ab20     Main.obj
 0003:00000b24       ?DarkMessageFont@@3PAPAUIRes@@A 1002ab24     Main.obj
 0003:00000b28       ?mission_map@@3PAHA        1002ab28     Main.obj
 0003:00000b2c       ?GhostRemTag@@3PAU_TagFileTag@@A 1002ab2c     Main.obj
 0003:00000b30       ?cmdterm_text@@3PADA       1002ab30     Main.obj
 0003:00000b34       ?net_cap_physics@@3PAHA    1002ab34     Main.obj
 0003:00000b38       ?g_gamesysName@@3PADA      1002ab38     Main.obj
 0003:00000b3c       ?g_ModeBaseSpeeds@@3PAMA   1002ab3c     Main.obj
 0003:00000b40       ?g_AllPlayersFinishedSynch@@3PAHA 1002ab40     Main.obj
 0003:00000b44       ?g_NumPlayersNotInGameMode@@3PAHA 1002ab44     Main.obj
 0003:00000b48       ?g_bSpeechDatabaseLoaded@@3PAHA 1002ab48     Main.obj
 0003:00000b4c       ?g_Domain@@3PAVcSpeechDomain@@A 1002ab4c     Main.obj
 0003:00000b50       ?g_pLastSchemaPlay@@3PAUsSchemaPlay@@A 1002ab50     Main.obj
 0003:00000b54       ?playingSchemas@@3PAVSchemaPlayList@@A 1002ab54     Main.obj
 0003:00000b58       ?g_AIActTypeNames@@3PAPADA 1002ab58     Main.obj
 0003:00000b5c       ?g_ppszAISpeed@@3PAPADA    1002ab5c     Main.obj
 0003:00000b60       ?g_AISpeeds@@3PAPAMA       1002ab60     Main.obj
 0003:00000b64       ?dword_6F55D4@@3PAKA       1002ab64     Main.obj
 0003:00000b68       ?dword_6F55DC@@3PAKA       1002ab68     Main.obj
 0003:00000b6c       ?dword_671B8C@@3PAKA       1002ab6c     Main.obj
 0003:00000b70       ?g_SynchPanelDesc@@3PBUsDarkPanelDesc@@B 1002ab70     Main.obj
 0003:00000b74       ?g_DefaultPanelStyle@@3PAUguiStyle@@A 1002ab74     Main.obj
 0003:00000b78       ?g_pAIDefAwareDelay@@3PAUsAIAwareDelay@@A 1002ab78     Main.obj
 0003:00000b7c       ?enable_inv@@3PAHA         1002ab7c     Main.obj
 0003:00000b80       ?g_TotalBowFrames@@3PAHA   1002ab80     Main.obj
 0003:00000b84       ?g_BowEquippedTime@@3PAJA  1002ab84     Main.obj
 0003:00000b88       ?g_BowAttackStarted@@3PAHA 1002ab88     Main.obj
 0003:00000b8c       ?g_BowIsForceFinished@@3PAHA 1002ab8c     Main.obj
 0003:00000b90       ?g_BowWobble@@3PAMA        1002ab90     Main.obj
 0003:00000b94       ?g_BowPutAwayTime@@3PAHA   1002ab94     Main.obj
 0003:00000b98       ?arrowNocked@@3PAHA        1002ab98     Main.obj
 0003:00000b9c       ?pSD_eAIPriority@@3PBUsStructDesc@@B 1002ab9c     Main.obj
 0003:00000ba0       ?pSD_tMetaPropertyPriority@@3PBUsStructDesc@@B 1002aba0     Main.obj
 0003:00000ba4       ?pSD_ContainRelType@@3PBUsStructDesc@@B 1002aba4     Main.obj
 0003:00000ba8       ?pSD_sAmplifyParam@@3PBUsStructDesc@@B 1002aba8     Main.obj
 0003:00000bac       ?pSD_sWeakPointParam@@3PBUsStructDesc@@B 1002abac     Main.obj
 0003:00000bb0       ?pSD_sStimSourceData@@3PBUsStructDesc@@B 1002abb0     Main.obj
 0003:00000bb4       ?pSD_sStimSourceDesc@@3PBUsStructDesc@@B 1002abb4     Main.obj
 0003:00000bb8       ?pSD_eSlayResult@@3PBUsStructDesc@@B 1002abb8     Main.obj
 0003:00000bbc       ?pSD_PropagateSourceScale@@3PBUsStructDesc@@B 1002abbc     Main.obj
 0003:00000bc0       ?pSD_sFlinder@@3PBUsStructDesc@@B 1002abc0     Main.obj
 0003:00000bc4       ?pSD_sReceptron@@3PBUsStructDesc@@B 1002abc4     Main.obj
 0003:00000bc8       ?pSD_tSensorCount@@3PBUsStructDesc@@B 1002abc8     Main.obj
 0003:00000bcc       ?pSD_ReceptronID@@3PBUsStructDesc@@B 1002abcc     Main.obj
 0003:00000bd0       ?pSD_sStimulateParam@@3PBUsStructDesc@@B 1002abd0     Main.obj
 0003:00000bd4       ?pSD_eInventoryType@@3PBUsStructDesc@@B 1002abd4     Main.obj
 0003:00000bd8       ?pSD_BOOL@@3PBUsStructDesc@@B 1002abd8     Main.obj
 0003:00000bdc       ?pSD_int@@3PBUsStructDesc@@B 1002abdc     Main.obj
 0003:00000be0       ?pSD_float@@3PBUsStructDesc@@B 1002abe0     Main.obj
 0003:00000be4       ?pSD_Label@@3PBUsStructDesc@@B 1002abe4     Main.obj
 0003:00000be8       ?pSD_Vector@@3PBUsStructDesc@@B 1002abe8     Main.obj
 0003:00000bec       ?pSD_CollType@@3PBUsStructDesc@@B 1002abec     Main.obj
 0003:00000bf0       ?pSD_sLightProp@@3PBUsStructDesc@@B 1002abf0     Main.obj
 0003:00000bf4       ?pSD_ColorInfo@@3PBUsStructDesc@@B 1002abf4     Main.obj
 0003:00000bf8       ?pSD_sAnimLightProp@@3PBUsStructDesc@@B 1002abf8     Main.obj
 0003:00000bfc       ?pSD_sExtraLightProp@@3PBUsStructDesc@@B 1002abfc     Main.obj
 0003:00000c00       ?pSD_Position@@3PBUsStructDesc@@B 1002ac00     Main.obj
 0003:00000c04       ?pSD_sMotActorTagList@@3PBUsStructDesc@@B 1002ac04     Main.obj
 0003:00000c08       ?pSD_tMotorControllerType@@3PBUsStructDesc@@B 1002ac08     Main.obj
 0003:00000c0c       ?pSD_eMSwordActionType@@3PBUsStructDesc@@B 1002ac0c     Main.obj
 0003:00000c10       ?pSD_sMotPhysLimits@@3PBUsStructDesc@@B 1002ac10     Main.obj
 0003:00000c14       ?pSD_sMGaitSkillData@@3PBUsStructDesc@@B 1002ac14     Main.obj
 0003:00000c18       ?pSD_sMPlayerLimbOffsets@@3PBUsStructDesc@@B 1002ac18     Main.obj
 0003:00000c1c       ?pSD_sScriptProp@@3PBUsStructDesc@@B 1002ac1c     Main.obj
 0003:00000c20       ?pSD_sStimMsgParam@@3PBUsStructDesc@@B 1002ac20     Main.obj
 0003:00000c24       ?pSD_TrapFlags@@3PBUsStructDesc@@B 1002ac24     Main.obj
 0003:00000c28       ?pSD_sHeatDiskCluster@@3PBUsStructDesc@@B 1002ac28     Main.obj
 0003:00000c2c       ?pSD_sSpark@@3PBUsStructDesc@@B 1002ac2c     Main.obj
 0003:00000c30       ?pSD_sMeshAttach@@3PBUsStructDesc@@B 1002ac30     Main.obj
 0003:00000c34       ?pSD_sFrobInfo@@3PBUsStructDesc@@B 1002ac34     Main.obj
 0003:00000c38       ?pSD_FrobProxyInfo@@3PBUsStructDesc@@B 1002ac38     Main.obj
 0003:00000c3c       ?pSD_eFrobHandler@@3PBUsStructDesc@@B 1002ac3c     Main.obj
 0003:00000c40       ?pSD_sRotDoorProp@@3PBUsStructDesc@@B 1002ac40     Main.obj
 0003:00000c44       ?pSD_sTransDoorProp@@3PBUsStructDesc@@B 1002ac44     Main.obj
 0003:00000c48       ?pSD_sTweqSimpleConfig@@3PBUsStructDesc@@B 1002ac48     Main.obj
 0003:00000c4c       ?pSD_sTweqVectorConfig@@3PBUsStructDesc@@B 1002ac4c     Main.obj
 0003:00000c50       ?pSD_sTweqJointsConfig@@3PBUsStructDesc@@B 1002ac50     Main.obj
 0003:00000c54       ?pSD_sTweqLockConfig@@3PBUsStructDesc@@B 1002ac54     Main.obj
 0003:00000c58       ?pSD_sTweqModelsConfig@@3PBUsStructDesc@@B 1002ac58     Main.obj
 0003:00000c5c       ?pSD_sTweqEmitterConfig@@3PBUsStructDesc@@B 1002ac5c     Main.obj
 0003:00000c60       ?pSD_sTweqSimpleState@@3PBUsStructDesc@@B 1002ac60     Main.obj
 0003:00000c64       ?pSD_sTweqLockState@@3PBUsStructDesc@@B 1002ac64     Main.obj
 0003:00000c68       ?pSD_sTweqVectorState@@3PBUsStructDesc@@B 1002ac68     Main.obj
 0003:00000c6c       ?pSD_sTweqJointsState@@3PBUsStructDesc@@B 1002ac6c     Main.obj
 0003:00000c70       ?pSD_sTweqControl@@3PBUsStructDesc@@B 1002ac70     Main.obj
 0003:00000c74       ?pSD_sWeaponOffset@@3PBUsStructDesc@@B 1002ac74     Main.obj
 0003:00000c78       ?pSD_sKeyInfo@@3PBUsStructDesc@@B 1002ac78     Main.obj
 0003:00000c7c       ?pSD_sInvRenderType@@3PBUsStructDesc@@B 1002ac7c     Main.obj
 0003:00000c80       ?pSD_sSuspiciousInfo@@3PBUsStructDesc@@B 1002ac80     Main.obj
 0003:00000c84       ?pSD_sQVarParam@@3PBUsStructDesc@@B 1002ac84     Main.obj
 0003:00000c88       ?pSD_sBashParamsProp@@3PBUsStructDesc@@B 1002ac88     Main.obj
 0003:00000c8c       ?pSD_sBashVars@@3PBUsStructDesc@@B 1002ac8c     Main.obj
 0003:00000c90       ?pSD_sCollParam@@3PBUsStructDesc@@B 1002ac90     Main.obj
 0003:00000c94       ?pSD_sPermeate@@3PBUsStructDesc@@B 1002ac94     Main.obj
 0003:00000c98       ?pSD_sPropAddParam@@3PBUsStructDesc@@B 1002ac98     Main.obj
 0003:00000c9c       ?pSD_sPropRemParam@@3PBUsStructDesc@@B 1002ac9c     Main.obj
 0003:00000ca0       ?pSD_sObjCreateParam@@3PBUsStructDesc@@B 1002aca0     Main.obj
 0003:00000ca4       ?pSD_sObjMoveParam@@3PBUsStructDesc@@B 1002aca4     Main.obj
 0003:00000ca8       ?pSD_sDamageParam@@3PBUsStructDesc@@B 1002aca8     Main.obj
 0003:00000cac       ?pSD_sSpoofDamageParam@@3PBUsStructDesc@@B 1002acac     Main.obj
 0003:00000cb0       ?pSD_sSetModelParam@@3PBUsStructDesc@@B 1002acb0     Main.obj
 0003:00000cb4       ?pSD_sAware@@3PBUsStructDesc@@B 1002acb4     Main.obj
 0003:00000cb8       ?pSD_sCreatureAttachInfo@@3PBUsStructDesc@@B 1002acb8     Main.obj
 0003:00000cbc       ?pSD_sCreatureHandle@@3PBUsStructDesc@@B 1002acbc     Main.obj
 0003:00000cc0       ?pSD_sCreaturePose@@3PBUsStructDesc@@B 1002acc0     Main.obj
 0003:00000cc4       ?pSD_sAdvPickTransCfg@@3PBUsStructDesc@@B 1002acc4     Main.obj
 0003:00000cc8       ?pSD_sAdvPickSoundCfg@@3PBUsStructDesc@@B 1002acc8     Main.obj
 0003:00000ccc       ?pSD_sAdvPickStateCfg@@3PBUsStructDesc@@B 1002accc     Main.obj
 0003:00000cd0       ?pSD_PickSrc@@3PBUsStructDesc@@B 1002acd0     Main.obj
 0003:00000cd4       ?pSD_sPickCfg@@3PBUsStructDesc@@B 1002acd4     Main.obj
 0003:00000cd8       ?pSD_sPickState@@3PBUsStructDesc@@B 1002acd8     Main.obj
 0003:00000cdc       ?pSD_sBeltLink@@3PBUsStructDesc@@B 1002acdc     Main.obj
 0003:00000ce0       ?pSD_sAltLink@@3PBUsStructDesc@@B 1002ace0     Main.obj
 0003:00000ce4       ?pSD_sBreathConfig@@3PBUsStructDesc@@B 1002ace4     Main.obj
 0003:00000ce8       ?pSD_sCombatVars@@3PBUsStructDesc@@B 1002ace8     Main.obj
 0003:00000cec       ?pSD_cBaseGunDescs@@3PBUsStructDesc@@B 1002acec     Main.obj
 0003:00000cf0       ?pSD_sAIGunDesc@@3PBUsStructDesc@@B 1002acf0     Main.obj
 0003:00000cf4       ?pSD_sGunState@@3PBUsStructDesc@@B 1002acf4     Main.obj
 0003:00000cf8       ?pSD_sProjectileData@@3PBUsStructDesc@@B 1002acf8     Main.obj
 0003:00000cfc       ?pSD_sProjectile@@3PBUsStructDesc@@B 1002acfc     Main.obj
 0003:00000d00       ?pSD_sFlashData@@3PBUsStructDesc@@B 1002ad00     Main.obj
 0003:00000d04       ?pSD_sLootProp@@3PBUsStructDesc@@B 1002ad04     Main.obj
 0003:00000d08       ?pSD_sMissionData@@3PBUsStructDesc@@B 1002ad08     Main.obj
 0003:00000d0c       ?pSD_sMapSourceData@@3PBUsStructDesc@@B 1002ad0c     Main.obj
 0003:00000d10       ?pSD_sAutomapProperty@@3PBUsStructDesc@@B 1002ad10     Main.obj
 0003:00000d14       ?pSD_tQVarVal@@3PBUsStructDesc@@B 1002ad14     Main.obj
 0003:00000d18       ?pSD_sVoiceData@@3PBUsStructDesc@@B 1002ad18     Main.obj
 0003:00000d1c       ?pSD_tDarkStat@@3PBUsStructDesc@@B 1002ad1c     Main.obj
 0003:00000d20       ?pSD_sAIProp@@3PBUsStructDesc@@B 1002ad20     Main.obj
 0003:00000d24       ?pSD_sAIEfficiency@@3PBUsStructDesc@@B 1002ad24     Main.obj
 0003:00000d28       ?pSD_sAIAlertness@@3PBUsStructDesc@@B 1002ad28     Main.obj
 0003:00000d2c       ?pSD_sAIFrustrated@@3PBUsStructDesc@@B 1002ad2c     Main.obj
 0003:00000d30       ?pSD_sAIAlertCap@@3PBUsStructDesc@@B 1002ad30     Main.obj
 0003:00000d34       ?pSD_sAIVisibility@@3PBUsStructDesc@@B 1002ad34     Main.obj
 0003:00000d38       ?pSD_eAIMode@@3PBUsStructDesc@@B 1002ad38     Main.obj
 0003:00000d3c       ?pSD_eAITeam@@3PBUsStructDesc@@B 1002ad3c     Main.obj
 0003:00000d40       ?pSD_VisionJoint@@3PBUsStructDesc@@B 1002ad40     Main.obj
 0003:00000d44       ?pSD_sAIVisionDesc@@3PBUsStructDesc@@B 1002ad44     Main.obj
 0003:00000d48       ?pSD_sAIVisibilityMods@@3PBUsStructDesc@@B 1002ad48     Main.obj
 0003:00000d4c       ?pSD_sAIVisibilityControl@@3PBUsStructDesc@@B 1002ad4c     Main.obj
 0003:00000d50       ?pSD_sAIAwareCapacitor@@3PBUsStructDesc@@B 1002ad50     Main.obj
 0003:00000d54       ?pSD_sAIAlertSenseMults@@3PBUsStructDesc@@B 1002ad54     Main.obj
 0003:00000d58       ?pSD_sAIAwareDelay@@3PBUsStructDesc@@B 1002ad58     Main.obj
 0003:00000d5c       ?pSD_cAIDeviceParams@@3PBUsStructDesc@@B 1002ad5c     Main.obj
 0003:00000d60       ?pSD_cAITurretParams@@3PBUsStructDesc@@B 1002ad60     Main.obj
 0003:00000d64       ?pSD_cAICameraParams@@3PBUsStructDesc@@B 1002ad64     Main.obj
 0003:00000d68       ?pSD_ActorID@@3PBUsStructDesc@@B 1002ad68     Main.obj
 0003:00000d6c       ?pSD_eAIRating@@3PBUsStructDesc@@B 1002ad6c     Main.obj
 0003:00000d70       ?pSD_eAIInvestKind@@3PBUsStructDesc@@B 1002ad70     Main.obj
 0003:00000d74       ?pSD_eAINonHostility@@3PBUsStructDesc@@B 1002ad74     Main.obj
 0003:00000d78       ?pSD_cAINonCombatDmgResp@@3PBUsStructDesc@@B 1002ad78     Main.obj
 0003:00000d7c       ?pSD_sAIProjectileRel@@3PBUsStructDesc@@B 1002ad7c     Main.obj
 0003:00000d80       ?pSD_sAIRangedCombatProp@@3PBUsStructDesc@@B 1002ad80     Main.obj
 0003:00000d84       ?pSD_sAISoundType@@3PBUsStructDesc@@B 1002ad84     Main.obj
 0003:00000d88       ?pSD_sVantagePtProp@@3PBUsStructDesc@@B 1002ad88     Main.obj
 0003:00000d8c       ?pSD_sCoverPtProp@@3PBUsStructDesc@@B 1002ad8c     Main.obj
 0003:00000d90       ?pSD_sAngleLimitProp@@3PBUsStructDesc@@B 1002ad90     Main.obj
 0003:00000d94       ?pSD_sAIPathOptions@@3PBUsStructDesc@@B 1002ad94     Main.obj
 0003:00000d98       ?pSD_sAIGamesysPathOptions@@3PBUsStructDesc@@B 1002ad98     Main.obj
 0003:00000d9c       ?pSD_sAICreatureSizes@@3PBUsStructDesc@@B 1002ad9c     Main.obj
 0003:00000da0       ?pSD_sAICombatTiming@@3PBUsStructDesc@@B 1002ada0     Main.obj
 0003:00000da4       ?pSD_sAIRangedRanges@@3PBUsStructDesc@@B 1002ada4     Main.obj
 0003:00000da8       ?pSD_cAIRangedWound@@3PBUsStructDesc@@B 1002ada8     Main.obj
 0003:00000dac       ?pSD_sAIRangedApplicabilities@@3PBUsStructDesc@@B 1002adac     Main.obj
 0003:00000db0       ?pSD_sAIRangedFleeParams@@3PBUsStructDesc@@B 1002adb0     Main.obj
 0003:00000db4       ?pSD_sAIRangedShootParams@@3PBUsStructDesc@@B 1002adb4     Main.obj
 0003:00000db8       ?pSD_sAIFleeConditions@@3PBUsStructDesc@@B 1002adb8     Main.obj
 0003:00000dbc       ?pSD_sAINoFleeLink@@3PBUsStructDesc@@B 1002adbc     Main.obj
 0003:00000dc0       ?pSD_sAIFleeDest@@3PBUsStructDesc@@B 1002adc0     Main.obj
 0003:00000dc4       ?pSD_sAIWatchPoint@@3PBUsStructDesc@@B 1002adc4     Main.obj
 0003:00000dc8       ?pSD_sAIDefendPoint@@3PBUsStructDesc@@B 1002adc8     Main.obj
 0003:00000dcc       ?pSD_sAIIdleDirs@@3PBUsStructDesc@@B 1002adcc     Main.obj
 0003:00000dd0       ?pSD_sAIIdleOrigin@@3PBUsStructDesc@@B 1002add0     Main.obj
 0003:00000dd4       ?pSD_sAICameraLinkData@@3PBUsStructDesc@@B 1002add4     Main.obj
 0003:00000dd8       ?pSD_sAIAcuitySets@@3PBUsStructDesc@@B 1002add8     Main.obj
 0003:00000ddc       ?pSD_sAISoundTweaks@@3PBUsStructDesc@@B 1002addc     Main.obj
 0003:00000de0       ?pSD_sHearingStats@@3PBUsStructDesc@@B 1002ade0     Main.obj
 0003:00000de4       ?pSD_sAIBroadcastSettings@@3PBUsStructDesc@@B 1002ade4     Main.obj
 0003:00000de8       ?pSD_sAIFollowLink@@3PBUsStructDesc@@B 1002ade8     Main.obj
 0003:00000dec       ?pSD_sAISignalResponse@@3PBUsStructDesc@@B 1002adec     Main.obj
 0003:00000df0       ?pSD_sAIThreatResponse@@3PBUsStructDesc@@B 1002adf0     Main.obj
 0003:00000df4       ?pSD_sAIAlertResponse@@3PBUsStructDesc@@B 1002adf4     Main.obj
 0003:00000df8       ?pSD_sAIBodyResponse@@3PBUsStructDesc@@B 1002adf8     Main.obj
 0003:00000dfc       ?pSD_sAISuspiciousResponse@@3PBUsStructDesc@@B 1002adfc     Main.obj
 0003:00000e00       ?pSD_sAIObjectAvoid@@3PBUsStructDesc@@B 1002ae00     Main.obj
 0003:00000e04       ?pSD_sAIInformResponse@@3PBUsStructDesc@@B 1002ae04     Main.obj
 0003:00000e08       ?pSD_sAISenseCombatResponse@@3PBUsStructDesc@@B 1002ae08     Main.obj
 0003:00000e0c       ?pSD_sAIFrozen@@3PBUsStructDesc@@B 1002ae0c     Main.obj
 0003:00000e10       ?pSD_sFreezeReactionParam@@3PBUsStructDesc@@B 1002ae10     Main.obj
 0003:00000e14       ?pSD_sAIAwareness@@3PBUsStructDesc@@B 1002ae14     Main.obj
 0003:00000e18       ?pSD_sAISuspiciousLink@@3PBUsStructDesc@@B 1002ae18     Main.obj
 0003:00000e1c       ?pSD_sMissionSongParams@@3PBUsStructDesc@@B 1002ae1c     Main.obj
 0003:00000e20       ?pSD_AmbientSound@@3PBUsStructDesc@@B 1002ae20     Main.obj
 0003:00000e24       ?pSD_sAcousticsProperty@@3PBUsStructDesc@@B 1002ae24     Main.obj
 0003:00000e28       ?pSD_sAmbientProperty@@3PBUsStructDesc@@B 1002ae28     Main.obj
 0003:00000e2c       ?pSD_cPhysTypeProp@@3PBUsStructDesc@@B 1002ae2c     Main.obj
 0003:00000e30       ?pSD_cPhysAttrProp@@3PBUsStructDesc@@B 1002ae30     Main.obj
 0003:00000e34       ?pSD_cPhysStateProp@@3PBUsStructDesc@@B 1002ae34     Main.obj
 0003:00000e38       ?pSD_cPhysControlProp@@3PBUsStructDesc@@B 1002ae38     Main.obj
 0003:00000e3c       ?pSD_cPhysDimsProp@@3PBUsStructDesc@@B 1002ae3c     Main.obj
 0003:00000e40       ?pSD_cMovingTerrainProp@@3PBUsStructDesc@@B 1002ae40     Main.obj
 0003:00000e44       ?pSD_tCanAttachType@@3PBUsStructDesc@@B 1002ae44     Main.obj
 0003:00000e48       ?pSD_sPhysExplodeProp@@3PBUsStructDesc@@B 1002ae48     Main.obj
 0003:00000e4c       ?pSD_sPhysRopeProp@@3PBUsStructDesc@@B 1002ae4c     Main.obj
 0003:00000e50       ?pSD_sPhysPPlateProp@@3PBUsStructDesc@@B 1002ae50     Main.obj
 0003:00000e54       ?pSD_sTerrainPath@@3PBUsStructDesc@@B 1002ae54     Main.obj
 0003:00000e58       ?pSD_sPhysAttachData@@3PBUsStructDesc@@B 1002ae58     Main.obj
 0003:00000e5c       ?pSD_sSchemaLoopParams@@3PBUsStructDesc@@B 1002ae5c     Main.obj
 0003:00000e60       ?pSD_sSchemaPlayParams@@3PBUsStructDesc@@B 1002ae60     Main.obj
 0003:00000e64       ?pSD_sSpeech@@3PBUsStructDesc@@B 1002ae64     Main.obj
 0003:00000e68       ?pSD_sESndTagList@@3PBUsStructDesc@@B 1002ae68     Main.obj
 0003:00000e6c       ?pSD_sEnvSoundReactionParam@@3PBUsStructDesc@@B 1002ae6c     Main.obj
 0003:00000e70       ?pSD_tRendType@@3PBUsStructDesc@@B 1002ae70     Main.obj
 0003:00000e74       ?pSD_sJointPos@@3PBUsStructDesc@@B 1002ae74     Main.obj
 0003:00000e78       ?pSD_ParticleGroup@@3PBUsStructDesc@@B 1002ae78     Main.obj
 0003:00000e7c       ?pSD_ParticleLaunchInfo@@3PBUsStructDesc@@B 1002ae7c     Main.obj
 0003:00000e80       ?pSD_sParticleAttachLinkData@@3PBUsStructDesc@@B 1002ae80     Main.obj
 0003:00000e84       ?pSD_FrameAnimationState@@3PBUsStructDesc@@B 1002ae84     Main.obj
 0003:00000e88       ?pSD_FrameAnimationConfig@@3PBUsStructDesc@@B 1002ae88     Main.obj
 0003:00000e8c       ?pSD_FlashbombRender@@3PBUsStructDesc@@B 1002ae8c     Main.obj
 0003:00000e90       ?pSD_cBitmapWorldspaceProperty@@3PBUsStructDesc@@B 1002ae90     Main.obj
 0003:00000e94       ?pSD_tBitmapAnimationType@@3PBUsStructDesc@@B 1002ae94     Main.obj
 0003:00000e98       ?pSD_sAnimTexProp@@3PBUsStructDesc@@B 1002ae98     Main.obj
 0003:00000e9c       ?pSD_sSkyMode@@3PBUsStructDesc@@B 1002ae9c     Main.obj
 0003:00000ea0       ?pSD_sMissionRenderParams@@3PBUsStructDesc@@B 1002aea0     Main.obj
 0003:00000ea4       ?pSD_sRGBA@@3PBUsStructDesc@@B 1002aea4     Main.obj
 0003:00000ea8       ?pSD_sWaterBanks@@3PBUsStructDesc@@B 1002aea8     Main.obj
 0003:00000eac       ?pSD_sMissionSkyObj@@3PBUsStructDesc@@B 1002aeac     Main.obj
 0003:00000eb0       ?pSD_sMissionStarObj@@3PBUsStructDesc@@B 1002aeb0     Main.obj
 0003:00000eb4       ?pSD_sMissionCelestialObj@@3PBUsStructDesc@@B 1002aeb4     Main.obj
 0003:00000eb8       ?pSD_sMissionCloudObj@@3PBUsStructDesc@@B 1002aeb8     Main.obj
 0003:00000ebc       ?pSD_sMissionDistantObj@@3PBUsStructDesc@@B 1002aebc     Main.obj
 0003:00000ec0       ?pSD_eNetworkCategory@@3PBUsStructDesc@@B 1002aec0     Main.obj
 0003:00000ec4       ?pSD_cWeatherProperty@@3PBUsStructDesc@@B 1002aec4     Main.obj
 0003:00000ec8       ?pSD_cMeshTexProperty@@3PBUsStructDesc@@B 1002aec8     Main.obj
 0003:00000ecc       ?pSD_cFaceProperty@@3PBUsStructDesc@@B 1002aecc     Main.obj
 0003:00000ed0       ?pSD_cFaceStateProperty@@3PBUsStructDesc@@B 1002aed0     Main.obj
 0003:00000ed4       ?pSD_cCoronaProperty@@3PBUsStructDesc@@B 1002aed4     Main.obj
 0003:00000ed8       ?pFD_MissionFlags@@3PBUsFieldDesc@@B 1002aed8     Main.obj
 0003:00000edc       ?_gGhostRemotes@@3PAVcHashSet@@A 1002aedc     Main.obj
 0003:00000ee0       ?g_currFrob@@3PAUsFrobActivate@@A 1002aee0     Main.obj
 0003:00000ee4       ?_AppGetAggregated@@3P6GPAXABU_GUID@@@ZA 1002aee4     Main.obj
 0003:00000ee8       ?DarkNew@@3P6APAXI@ZA      1002aee8     Main.obj
 0003:00000eec       ?DarkFree@@3P6AXPAX@ZA     1002aeec     Main.obj
 0003:00000ef0       ?dark_delete@@3P6AXPAX@ZA  1002aef0     Main.obj
 0003:00000ef4       ?dark_strdup@@3P6APBDPBD@ZA 1002aef4     Main.obj
 0003:00000ef8       ?PumpEvents@@3P6G?AW4eWinPumpResult@@PAKHW4eWinPumpDuration@@@ZA 1002aef8     Main.obj
 0003:00000efc       ?_quit_game@@3P6AXXZA      1002aefc     Main.obj
 0003:00000f00       ?FetchUIString@@3P6A?AVcAnsiStr@@PBD00@ZA 1002af00     Main.obj
 0003:00000f04       ?FetchUIImage@@3P6APAUIDarkDataSource@@PBD0@ZA 1002af04     Main.obj
 0003:00000f08       ?FetchUIRects@@3P6AHPBDAAV?$cDynArray@URect@@@@0@ZA 1002af08     Main.obj
 0003:00000f0c       ?_extension_p@@3P6APBDPBD@ZA 1002af0c     Main.obj
 0003:00000f10       ?_GetMissionData@@3P6APAUsMissionData@@XZA 1002af10     Main.obj
 0003:00000f14       ?UpdateLootTotals@@3P6AXHPAUsLoot@@@ZA 1002af14     Main.obj
 0003:00000f18       ?_AIGetStun@@3P6AHH@ZA     1002af18     Main.obj
 0003:00000f1c       ?AwarenessFilter@@3P6GHPAUsReactionEvent@@PBUsReactionParam@@K@ZA 1002af1c     Main.obj
 0003:00000f20       ?AutomapGetCurrentRoom@@3P6APAUsAutomapProperty@@XZA 1002af20     Main.obj
 0003:00000f24       ?AutomapHighlightArea@@3P6AXPAUIRes@@PAURect@@H@ZA 1002af24     Main.obj
 0003:00000f28       ?_IsBowEquipped@@3P6AHXZA  1002af28     Main.obj
 0003:00000f2c       ?WobbleBow@@3P6AXJ@ZA      1002af2c     Main.obj
 0003:00000f30       ?UpdateBowTime@@3P6AXHH@ZA 1002af30     Main.obj
 0003:00000f34       ?_RenockBow@@3P6AHJ@ZA     1002af34     Main.obj
 0003:00000f38       ?_ClearPlayerArmFilter@@3P6AXXZA 1002af38     Main.obj
 0003:00000f3c       ?ZoomClear@@3P6AXXZA       1002af3c     Main.obj
 0003:00000f40       ?DoBowAttack@@3P6AHXZA     1002af40     Main.obj
 0003:00000f44       ?PutTheBowAway@@3P6AXH@ZA  1002af44     Main.obj
 0003:00000f48       ?sub_56EB50@@3P6AXXZA      1002af48     Main.obj
 0003:00000f4c       ?_CreatureAttachItem@@3P6AXHHPAUWeaponAttachment@@@ZA 1002af4c     Main.obj
 0003:00000f50       ?_CreatureDetachItem@@3P6AXHH@ZA 1002af50     Main.obj
 0003:00000f54       ?_CreatureAttachWeapon@@3P6AXHHPAUWeaponAttachment@@@ZA 1002af54     Main.obj
 0003:00000f58       ?_CreatureFromObj@@3P6APAVcCreature@@H@ZA 1002af58     Main.obj
 0003:00000f5c       ?_ObjGetCreatureType@@3P6AHHAAH@ZA 1002af5c     Main.obj
 0003:00000f60       ?_ObjSetCreatureType@@3P6AXHH@ZA 1002af60     Main.obj
 0003:00000f64       ?_CreatureHandle@@3P6APAUsCreatureHandle@@H@ZA 1002af64     Main.obj
 0003:00000f68       ?CreatureGetMotorInterface@@3P6APAVIMotor@@H@ZA 1002af68     Main.obj
 0003:00000f6c       ?_dark_init_game@@3P6AXXZA 1002af6c     Main.obj
 0003:00000f70       ?_dark_term_game@@3P6AXXZA 1002af70     Main.obj
 0003:00000f74       ?_DarkStatIntAdd@@3P6AXPBDH@ZA 1002af74     Main.obj
 0003:00000f78       ?_DarkStatIntGet@@3P6AHPADH@ZA 1002af78     Main.obj
 0003:00000f7c       ?_DarkAutomapSetLocationVisited@@3P6AXHH@ZA 1002af7c     Main.obj
 0003:00000f80       ?_DarkAutomapGetLocationVisited@@3P6AHHH@ZA 1002af80     Main.obj
 0003:00000f84       ?_gr_alloc_bitmap@@3P6APAUgrs_bitmap@@HHHH@ZA 1002af84     Main.obj
 0003:00000f88       ?_gr_make_canvas@@3P6AXPAUgrs_bitmap@@PAUgrd_canvas@@@ZA 1002af88     Main.obj
 0003:00000f8c       ?_gr_push_canvas@@3P6AXPAUgrd_canvas@@@ZA 1002af8c     Main.obj
 0003:00000f90       ?_gr_pop_canvas@@3P6AXXZA  1002af90     Main.obj
 0003:00000f94       ?_gr_make_screen_fcolor@@3P6AHH@ZA 1002af94     Main.obj
 0003:00000f98       ?_guiScreenColor@@3P6AHH@ZA 1002af98     Main.obj
 0003:00000f9c       ?_GUIsetup@@3P6AXPAUGUIsetupStruct@@PBURect@@HH@ZA 1002af9c     Main.obj
 0003:00000fa0       ?_GUIdone@@3P6AXPAUGUIsetupStruct@@@ZA 1002afa0     Main.obj
 0003:00000fa4       ?_uiGameLoadStyle@@3P6AXPBDPAUguiStyle@@0@ZA 1002afa4     Main.obj
 0003:00000fa8       ?_uiGameUnloadStyle@@3P6AXPAUguiStyle@@@ZA 1002afa8     Main.obj
 0003:00000fac       ?_DarkMessage@@3P6AXPBD@ZA 1002afac     Main.obj
 0003:00000fb0       ?_gr_font_string@@3P6AXPAXPBDHH@ZA 1002afb0     Main.obj
 0003:00000fb4       ?_gr_font_string_wrap@@3P6AXPAXPBDF@ZA 1002afb4     Main.obj
 0003:00000fb8       ?_gr_font_string_size@@3P6AXPAXPBDPAF2@ZA 1002afb8     Main.obj
 0003:00000fbc       ?_gr_font_string_unwrap@@3P6AXPBD@ZA 1002afbc     Main.obj
 0003:00000fc0       ?_gr_font_string_height@@3P6AFPAXPBD@ZA 1002afc0     Main.obj
 0003:00000fc4       ?_gr_font_string_width@@3P6AFPAXPBD@ZA 1002afc4     Main.obj
 0003:00000fc8       ?_guiStyleGetColor@@3P6AHPAUguiStyle@@H@ZA 1002afc8     Main.obj
 0003:00000fcc       ?_guiStyleCleanupFont@@3P6AXPAUguiStyle@@H@ZA 1002afcc     Main.obj
 0003:00000fd0       ?_guiStyleSetupFont@@3P6AXPAUguiStyle@@H@ZA 1002afd0     Main.obj
 0003:00000fd4       ?_uiInstallRegionHandler@@3P6AXHHP6AXPAU_ui_event@@PAU_Region@@PAX@Z2H@ZA 1002afd4     Main.obj
 0003:00000fd8       ?_GetCurrentStyle@@3P6APAUguiStyle@@XZA 1002afd8     Main.obj
 0003:00000fdc       ?_SetCurrentStyle@@3P6AXPAUguiStyle@@@ZA 1002afdc     Main.obj
 0003:00000fe0       ?_guiStyleGetFont@@3P6APAUIRes@@HH@ZA 1002afe0     Main.obj
 0003:00000fe4       ?_mouse_get_xy@@3P6AFPAF0@ZA 1002afe4     Main.obj
 0003:00000fe8       ?_mouse_put_xy@@3P6AFFF@ZA 1002afe8     Main.obj
 0003:00000fec       ?_palmgr_alloc_pal@@3P6AEPAX@ZA 1002afec     Main.obj
 0003:00000ff0       ?_CreateStringProperty@@3P6APAUIStringProperty@@PBUsPropertyDesc@@H@ZA 1002aff0     Main.obj
 0003:00000ff4       ?DarkSimulationLoop@@3P6GHKKPAUtLoopMessageData__@@@ZA 1002aff4     Main.obj
 0003:00000ff8       ?ObjectSystemLoopClient@@3P6GHKKPAUtLoopMessageData__@@@ZA 1002aff8     Main.obj
 0003:00000ffc       ?GameModeLoopClient@@3P6GHKKPAUtLoopMessageData__@@@ZA 1002affc     Main.obj
 0003:00001000       ?DarkRenderingLoopClient@@3P6GHKKPAUtLoopMessageData__@@@ZA 1002b000     Main.obj
 0003:00001004       ?SimLoopClient@@3P6GHKKPAUtLoopMessageData__@@@ZA 1002b004     Main.obj
 0003:00001008       ?_InstallIBHandler@@3P6AXJHH@ZA 1002b008     Main.obj
 0003:0000100c       ?_RemoveIBHandler@@3P6AXXZA 1002b00c     Main.obj
 0003:00001010       ?_PushMovieOrBookMode@@3P6AXPBD@ZA 1002b010     Main.obj
 0003:00001014       ?_SwitchToNewGameMode@@3P6AXH@ZA 1002b014     Main.obj
 0003:00001018       ?_SwitchToMainMenuMode@@3P6AXH@ZA 1002b018     Main.obj
 0003:0000101c       ?_SwitchToOptionsMode@@3P6AXH@ZA 1002b01c     Main.obj
 0003:00001020       ?_SwitchToLoadGameMode@@3P6AXH@ZA 1002b020     Main.obj
 0003:00001024       ?_SwitchToSaveGameMode@@3P6AXH@ZA 1002b024     Main.obj
 0003:00001028       ?_SwitchToObjectivesMode@@3P6AXH@ZA 1002b028     Main.obj
 0003:0000102c       ?_SwitchToDarkAutomapMode@@3P6AXH@ZA 1002b02c     Main.obj
 0003:00001030       ?_SwitchToSimMenuMode@@3P6AXH@ZA 1002b030     Main.obj
 0003:00001034       ?_PlayerCreate@@3P6AXXZA   1002b034     Main.obj
 0003:00001038       ?_PlayerDestroy@@3P6AXXZA  1002b038     Main.obj
 0003:0000103c       ?_GetPlayerMode@@3P6A?AW4ePlayerMode@@XZA 1002b03c     Main.obj
 0003:00001040       ?_SetPlayerMode@@3P6AXH@ZA 1002b040     Main.obj
 0003:00001044       ?_IsAPlayer@@3P6AHH@ZA     1002b044     Main.obj
 0003:00001048       ?_PlayerMotionGetActive@@3P6AHXZA 1002b048     Main.obj
 0003:0000104c       ?_PlayerMotionActivate@@3P6AXW4ePlayerMotion@@@ZA 1002b04c     Main.obj
 0003:00001050       ?_GetTransSpeedScale@@3P6AMXZA 1002b050     Main.obj
 0003:00001054       ?_AddSpeedScale@@3P6AXPBDMM@ZA 1002b054     Main.obj
 0003:00001058       ?_PlayerFinishAction@@3P6AXXZA 1002b058     Main.obj
 0003:0000105c       ?_SetLeaningState@@3P6AXH@ZA 1002b05c     Main.obj
 0003:00001060       ?_ObjGetMaxHitPoints@@3P6AHHPAH@ZA 1002b060     Main.obj
 0003:00001064       ?_ObjSetHitPoints@@3P6AHHH@ZA 1002b064     Main.obj
 0003:00001068       ?_ObjGetHitPoints@@3P6AHHPAH@ZA 1002b068     Main.obj
 0003:0000106c       ?_ObjEditName@@3P6APADH@ZA 1002b06c     Main.obj
 0003:00001070       ?_ObjPosGet@@3P6APAUPosition@@H@ZA 1002b070     Main.obj
 0003:00001074       ?_ObjPosCopyUpdate@@3P6AXHPAUPosition@@@ZA 1002b074     Main.obj
 0003:00001078       ?_ObjPosGetLocVector@@3P6APAUmxs_vector@@H@ZA 1002b078     Main.obj
 0003:0000107c       ?_ObjPosSetLocation@@3P6AXHPAUPosition@@@ZA 1002b07c     Main.obj
 0003:00001080       ?_ObjRenderType@@3P6AHH@ZA 1002b080     Main.obj
 0003:00001084       ?_ObjSetRenderType@@3P6AXHH@ZA 1002b084     Main.obj
 0003:00001088       ?_ObjSetHasRefs@@3P6AXHH@ZA 1002b088     Main.obj
 0003:0000108c       ?_ObjGetModelName@@3P6AHHPAD@ZA 1002b08c     Main.obj
 0003:00001090       ?_ObjSetModelName@@3P6AXHPAD@ZA 1002b090     Main.obj
 0003:00001094       ?_ObjGetESndClass@@3P6AXHPAPAX@ZA 1002b094     Main.obj
 0003:00001098       ?_ObjSetScale@@3P6AXHPAUmxs_vector@@@ZA 1002b098     Main.obj
 0003:0000109c       ?_ObjGetWeaponType@@3P6AXHPAH@ZA 1002b09c     Main.obj
 0003:000010a0       ?_ObjIsAI@@3P6AHH@ZA       1002b0a0     Main.obj
 0003:000010a4       ?_GetTextureObj@@3P6AHH@ZA 1002b0a4     Main.obj
 0003:000010a8       ?_ObjFrobResult@@3P6APAUsFrobInfo@@H@ZA 1002b0a8     Main.obj
 0003:000010ac       ?_ObjFrobResultForLoc@@3P6AEHH@ZA 1002b0ac     Main.obj
 0003:000010b0       ?_ObjSetSelfLocked@@3P6AXHH@ZA 1002b0b0     Main.obj
 0003:000010b4       ?_ObjTranslate@@3P6AXHPAUmxs_vector@@@ZA 1002b0b4     Main.obj
 0003:000010b8       ?_ObjRotate@@3P6AXHPAUmxs_angvec@@@ZA 1002b0b8     Main.obj
 0003:000010bc       ?_rendobj_object_is_visible@@3P6AHH@ZA 1002b0bc     Main.obj
 0003:000010c0       ?_mx_zero_vec@@3P6AXAAUmxs_vector@@@ZA 1002b0c0     Main.obj
 0003:000010c4       ?_mx_copy_trans@@3P6AXPAUmxs_trans@@0@ZA 1002b0c4     Main.obj
 0003:000010c8       ?_mx_mag_vec@@3P6AMAAUmxs_vector@@@ZA 1002b0c8     Main.obj
 0003:000010cc       ?_mx_mag2_vec@@3P6AMPAUmxs_vector@@@ZA 1002b0cc     Main.obj
 0003:000010d0       ?_mx_dist_vec@@3P6AMPAUmxs_vector@@0@ZA 1002b0d0     Main.obj
 0003:000010d4       ?_DarkQuickSaveGame@@3P6AXXZA 1002b0d4     Main.obj
 0003:000010d8       ?_DarkQuickLoadGame@@3P6AXXZA 1002b0d8     Main.obj
 0003:000010dc       ?_DarkSaveGameFile@@3P6AJPAD0@ZA 1002b0dc     Main.obj
 0003:000010e0       ?_DarkQuickLoadGameFile@@3P6AJPAD@ZA 1002b0e0     Main.obj
 0003:000010e4       ?_SimStatePause@@3P6AXXZA  1002b0e4     Main.obj
 0003:000010e8       ?_SimStateUnpause@@3P6AXXZA 1002b0e8     Main.obj
 0003:000010ec       ?_SimStateCheckFlags@@3P6AHK@ZA 1002b0ec     Main.obj
 0003:000010f0       ?_SimStateSetFlags@@3P6AXKH@ZA 1002b0f0     Main.obj
 0003:000010f4       ?_GetSimTime@@3P6AHXZA     1002b0f4     Main.obj
 0003:000010f8       ?_GetSimFrameTime@@3P6AHXZA 1002b0f8     Main.obj
 0003:000010fc       ?_DarkLootPrepMission@@3P6AXXZA 1002b0fc     Main.obj
 0003:00001100       ?_DarkPrepLevelForDifficulty@@3P6AXXZA 1002b100     Main.obj
 0003:00001104       ?_dark_end_gamemode@@3P6AXXZA 1002b104     Main.obj
 0003:00001108       ?_dark_start_gamemode@@3P6AXK@ZA 1002b108     Main.obj
 0003:0000110c       ?_win_mission@@3P6AXXZA    1002b10c     Main.obj
 0003:00001110       ?_GenerateSound@@3P6AHPADPAUsfx_parm@@@ZA 1002b110     Main.obj
 0003:00001114       ?_GenerateSoundObj@@3P6AHHHPBDMPAUsfx_parm@@HH@ZA 1002b114     Main.obj
 0003:00001118       ?GenerateSoundVec@@3P6AHPAUmxs_vector@@HHPADMPAUsfx_parm@@HH@ZA 1002b118     Main.obj
 0003:0000111c       ?_SoundNetGenerateSoundVec@@3P6AXHPAUmxs_vector@@HPADMPAUsfx_parm@@@ZA 1002b11c     Main.obj
 0003:00001120       ?_SoundNetGenerateSoundObj@@3P6AXHHHPADMPAUsfx_parm@@@ZA 1002b120     Main.obj
 0003:00001124       ?_SoundNetHalt@@3P6AXH@ZA  1002b124     Main.obj
 0003:00001128       ?_SchemaPlayHalt@@3P6AXPAUsSchemaPlay@@@ZA 1002b128     Main.obj
 0003:0000112c       ?_SchemaPlayObj@@3P6AHPBDHH@ZA 1002b12c     Main.obj
 0003:00001130       ?_SchemaLoopParamsGet@@3P6APAUsSchemaLoopParams@@H@ZA 1002b130     Main.obj
 0003:00001134       ?_SchemaAttFacGet@@3P6AMH@ZA 1002b134     Main.obj
 0003:00001138       ?_SchemaIDPlay@@3P6APAUsSchemaPlay@@HPAUsSchemaCallParams@@PAX@ZA 1002b138     Main.obj
 0003:0000113c       ?SchemaParamsSetup@@3P6AXHAAUsfx_parm@@K@ZA 1002b13c     Main.obj
 0003:00001140       ?_SchemaSampleGet@@3P6APBDHH@ZA 1002b140     Main.obj
 0003:00001144       ?_SchemaGetIDFromHandle@@3P6AKH@ZA 1002b144     Main.obj
 0003:00001148       ?_SFXReset@@3P6AXXZA       1002b148     Main.obj
 0003:0000114c       ?_SFX_Play_Raw@@3P6AHHHPAD@ZA 1002b14c     Main.obj
 0003:00001150       ?_SFX_Frame@@3P6AXHH@ZA    1002b150     Main.obj
 0003:00001154       ?_ESndPlayLoc@@3P6AHPAVcTagSet@@HHPBUmxs_vector@@PAUsSchemaCallParams@@PAX@ZA 1002b154     Main.obj
 0003:00001158       ?_ESndPlay@@3P6AHPAVcTagSet@@HHPAUsSchemaCallParams@@PAX@ZA 1002b158     Main.obj
 0003:0000115c       ?_LoopSampleCallback@@3P6AXKK@ZA 1002b15c     Main.obj
 0003:00001160       ?SchemaChooseSample@@3P6AHHH@ZA 1002b160     Main.obj
 0003:00001164       ?SchemaPlayAdd@@3P6APAUsSchemaPlay@@HPBUsSchemaCallParams@@@ZA 1002b164     Main.obj
 0003:00001168       ?SchemaSamplePlayAndSetupNext@@3P6AHHHPAUsSchemaPlay@@PAUsSchemaLoopParams@@PAX@ZA 1002b168     Main.obj
 0003:0000116c       ?_SoundHaltObj@@3P6AXH@ZA  1002b16c     Main.obj
 0003:00001170       ?tm_get_millisec_unrecorded@@3P6GKXZA 1002b170     Main.obj
 0003:00001174       ?SpeechGetVoice@@3P6AHH@ZA 1002b174     Main.obj
 0003:00001178       ?_ObjGetSpeechVoiceIndex@@3P6AHHPAH@ZA 1002b178     Main.obj
 0003:0000117c       ?SpeechInstallStartCallback@@3P6AXHP6AXHPBULabel@@H@Z@ZA 1002b17c     Main.obj
 0003:00001180       ?SpeechEndCallback@@3P6AXHHPAX@ZA 1002b180     Main.obj
 0003:00001184       ?_SpeechHalt@@3P6AXH@ZA    1002b184     Main.obj
 0003:00001188       ?_SpeechPropCreateAndGet@@3P6APAUsSpeech@@H@ZA 1002b188     Main.obj
 0003:0000118c       ?_GetNextMission@@3P6AHXZA 1002b18c     Main.obj
 0003:00001190       ?_SetNextMission@@3P6AXH@ZA 1002b190     Main.obj
 0003:00001194       ?_MissionLoopReset@@3P6AXH@ZA 1002b194     Main.obj
 0003:00001198       ?_UnwindToMissionLoop@@3P6AXXZA 1002b198     Main.obj
 0003:0000119c       ?_SwitchToLoadingMode@@3P6AXH@ZA 1002b19c     Main.obj
 0003:000011a0       ?_SwitchToNetSynchMode@@3P6AXH@ZA 1002b1a0     Main.obj
 0003:000011a4       ?SwitchToGameMode@@3P6AXH@ZA 1002b1a4     Main.obj
 0003:000011a8       ?BufTagFileOpen@@3P6APAUITagFile@@PBDW4TagFileOpenMode@@@ZA 1002b1a8     Main.obj
 0003:000011ac       ?DarkLoadGameInternal@@3P6AJPAUITagFile@@@ZA 1002b1ac     Main.obj
 0003:000011b0       ?_InvUIRefreshObj@@3P6AXH@ZA 1002b1b0     Main.obj
 0003:000011b4       ?_dbMergeLoadTagFile@@3P6AKPAUITagFile@@K@ZA 1002b1b4     Main.obj
 0003:000011b8       ?_dbCurrentFilenum@@3P6AKXZA 1002b1b8     Main.obj
 0003:000011bc       ?_CommandExecute@@3P6AXPBD@ZA 1002b1bc     Main.obj
 0003:000011c0       ?_CommandRegister@@3P6AXPAUCommand@@HH@ZA 1002b1c0     Main.obj
 0003:000011c4       ?_CommandFind@@3P6APAUCommand@@PBDH@ZA 1002b1c4     Main.obj
 0003:000011c8       ?_AddMotionFlagListener@@3P6AXHKPAX@ZA 1002b1c8     Main.obj
 0003:000011cc       ?_GetArrowArchetype@@3P6AHXZA 1002b1cc     Main.obj
 0003:000011d0       ?_launchProjectile@@3P6AXHHMKKKK@ZA 1002b1d0     Main.obj
 0003:000011d4       ?_PhysSetFlag@@3P6AXHKK@ZA 1002b1d4     Main.obj
 0003:000011d8       ?_PhysSetVelocity@@3P6AXHPAUmxs_vector@@@ZA 1002b1d8     Main.obj
 0003:000011dc       ?_PhysSetRotationalVelocity@@3P6AXHPAUmxs_vector@@@ZA 1002b1dc     Main.obj
 0003:000011e0       ?_PhysSetGravity@@3P6AXHM@ZA 1002b1e0     Main.obj
 0003:000011e4       ?_PhysSetBaseFriction@@3P6AXHM@ZA 1002b1e4     Main.obj
 0003:000011e8       ?_PhysGetVelocity@@3P6AXHPAUmxs_vector@@@ZA 1002b1e8     Main.obj
 0003:000011ec       ?_PhysGetGravity@@3P6AMH@ZA 1002b1ec     Main.obj
 0003:000011f0       ?_PhysGetDensity@@3P6AMH@ZA 1002b1f0     Main.obj
 0003:000011f4       ?_PhysGetMass@@3P6AMH@ZA   1002b1f4     Main.obj
 0003:000011f8       ?_PhysGetFriction@@3P6AHHPAM@ZA 1002b1f8     Main.obj
 0003:000011fc       ?_PhysStopControlLocation@@3P6AXH@ZA 1002b1fc     Main.obj
 0003:00001200       ?PhysRopeListener@@3P6GXPAUsPropertyListenMsg@@PAUPropListenerData__@@@ZA 1002b200     Main.obj
 0003:00001204       ?_PhysObjHasPhysics@@3P6AHH@ZA 1002b204     Main.obj
 0003:00001208       ?_PhysGetClimbingObj@@3P6AHH@ZA 1002b208     Main.obj
 0003:0000120c       ?_PhysObjIsMantling@@3P6AHH@ZA 1002b20c     Main.obj
 0003:00001210       ?_PhysObjInWater@@3P6AHH@ZA 1002b210     Main.obj
 0003:00001214       ?_PhysNetDiscardBorrow@@3P6AXH@ZA 1002b214     Main.obj
 0003:00001218       ?_PhysNetBroadcastObjPosByObj@@3P6AXH@ZA 1002b218     Main.obj
 0003:0000121c       ?_PhysNetForceContainedMsgs@@3P6AXH@ZA 1002b21c     Main.obj
 0003:00001220       ?_PhysDeregisterModel@@3P6AXH@ZA 1002b220     Main.obj
 0003:00001224       ?ThrowObjectInternal@@3P6AHHHM@ZA 1002b224     Main.obj
 0003:00001228       ?_DoPickOperation@@3P6AHHHHK@ZA 1002b228     Main.obj
 0003:0000122c       ?PickLockDoStop@@3P6AXH@ZA 1002b22c     Main.obj
 0003:00001230       ?_NetworkCategory@@3P6A?AW4eNetworkCategory@@H@ZA 1002b230     Main.obj
 0003:00001234       ?_SetNetworkCategory@@3P6AXHH@ZA 1002b234     Main.obj
 0003:00001238       ?_EquipAIWeapon@@3P6AHHKK@ZA 1002b238     Main.obj
 0003:0000123c       ?_EquipWeapon@@3P6AXHHH@ZA 1002b23c     Main.obj
 0003:00001240       ?_EquipBow@@3P6AXXZA       1002b240     Main.obj
 0003:00001244       ?_UnEquipWeapon@@3P6AXHH@ZA 1002b244     Main.obj
 0003:00001248       ?_SetWeapon@@3P6AXHHH@ZA   1002b248     Main.obj
 0003:0000124c       ?_UnSetWeapon@@3P6AXH@ZA   1002b24c     Main.obj
 0003:00001250       ?_GetWeaponObjID@@3P6AHH@ZA 1002b250     Main.obj
 0003:00001254       ?_StartWeaponAttack@@3P6AXHH@ZA 1002b254     Main.obj
 0003:00001258       ?_FinishWeaponAction@@3P6AXHH@ZA 1002b258     Main.obj
 0003:0000125c       ?_StartBowAttack@@3P6AXXZA 1002b25c     Main.obj
 0003:00001260       ?_FinishBowAttack@@3P6AXXZA 1002b260     Main.obj
 0003:00001264       ?_has_projectile_type@@3P6AHH@ZA 1002b264     Main.obj
 0003:00001268       ?_SetCurrentArrow@@3P6AXH@ZA 1002b268     Main.obj
 0003:0000126c       ?_IsWeapon@@3P6AHH@ZA      1002b26c     Main.obj
 0003:00001270       ?_UpdateWeaponAttack@@3P6AXXZA 1002b270     Main.obj
 0003:00001274       ?_WeaponEvent@@3P6AXW4WeaponEvent@@HHH@ZA 1002b274     Main.obj
 0003:00001278       ?_ScrnForceUpdate@@3P6AXXZA 1002b278     Main.obj
 0003:0000127c       ?_ScrnForceUpdateRect@@3P6AXPAURect@@@ZA 1002b27c     Main.obj
 0003:00001280       ?_ScrnClear@@3P6AXXZA      1002b280     Main.obj
 0003:00001284       ?_ScrnLockDrawCanvas@@3P6AXXZA 1002b284     Main.obj
 0003:00001288       ?_ScrnModeGet@@3P6AXPAUsScreenMode@@@ZA 1002b288     Main.obj
 0003:0000128c       ?_ScrnModeSet@@3P6AXHPAUsScreenMode@@H@ZA 1002b28c     Main.obj
 0003:00001290       ?_ScrnNewBlackPalette@@3P6AXXZA 1002b290     Main.obj
 0003:00001294       ?_ScrnBlacken@@3P6AXXZA    1002b294     Main.obj
 0003:00001298       ?_ScrnUnlockDrawCanvas@@3P6AXXZA 1002b298     Main.obj
 0003:0000129c       ?_region_set_invisible@@3P6AXPAXH@ZA 1002b29c     Main.obj
 0003:000012a0       ?_region_expose@@3P6AXPAU_Region@@PAURect@@@ZA 1002b2a0     Main.obj
 0003:000012a4       ?_TextGadgUpdate@@3P6AXPAX@ZA 1002b2a4     Main.obj
 0003:000012a8       ?_TextGadgFocus@@3P6AXPAX@ZA 1002b2a8     Main.obj
 0003:000012ac       ?_TextGadgUnfocus@@3P6AXPAX@ZA 1002b2ac     Main.obj
 0003:000012b0       ?_LGadCurrentRoot@@3P6APAU_LGadRoot@@XZA 1002b2b0     Main.obj
 0003:000012b4       ?_LGadSetupSubRoot@@3P6AXPAUTextboxState@@PAU_LGadRoot@@HHHH@ZA 1002b2b4     Main.obj
 0003:000012b8       ?_LGadCreateTextboxDesc@@3P6AXPAX0PAULGadTextboxCreateParams@@@ZA 1002b2b8     Main.obj
 0003:000012bc       ?_LGadDestroyRoot@@3P6AXPAU_LGadRoot@@@ZA 1002b2bc     Main.obj
 0003:000012c0       ?_LGadDestroyTextBox@@3P6AXPAX@ZA 1002b2c0     Main.obj
 0003:000012c4       ?_compose_cursor@@3P6AXH@ZA 1002b2c4     Main.obj
 0003:000012c8       ?_CameraIsRemote@@3P6AHK@ZA 1002b2c8     Main.obj
 0003:000012cc       ?_CameraGetMode@@3P6AHK@ZA 1002b2cc     Main.obj
 0003:000012d0       ?_CameraRemote@@3P6AXPAUPlayerCamera@@H@ZA 1002b2d0     Main.obj
 0003:000012d4       ?_CameraView@@3P6AXPAUPlayerCamera@@H@ZA 1002b2d4     Main.obj
 0003:000012d8       ?_CameraAttach@@3P6AXPAUPlayerCamera@@H@ZA 1002b2d8     Main.obj
 0003:000012dc       ?AttachPlayerCamera@@3P6AXXZA 1002b2dc     Main.obj
 0003:000012e0       ?CamApplyAlpha@@3P6AXMH@ZA 1002b2e0     Main.obj
 0003:000012e4       ?_config_get_value@@3P6A_NPBDHPAXPAH@ZA 1002b2e4     Main.obj
 0003:000012e8       ?_config_get_raw@@3P6AHPAD0I@ZA 1002b2e8     Main.obj
 0003:000012ec       ?_config_get_single_value@@3P6AHPADHPAH@ZA 1002b2ec     Main.obj
 0003:000012f0       ?_config_set_int@@3P6AXPBDH@ZA 1002b2f0     Main.obj
 0003:000012f4       ?_config_load@@3P6AXPBD@ZA 1002b2f4     Main.obj
 0003:000012f8       ?_gd_bitmap@@3P6AXPAXHH@ZA 1002b2f8     Main.obj
 0003:000012fc       ?_gd_clear@@3P6AXH@ZA      1002b2fc     Main.obj
 0003:00001300       ?_gd_rect@@3P6AXHHHH@ZA    1002b300     Main.obj
 0003:00001304       ?_gd_box@@3P6AXHHHH@ZA     1002b304     Main.obj
 0003:00001308       ?_gd_vline@@3P6AXHHH@ZA    1002b308     Main.obj
 0003:0000130c       ?_CellBinComputeFunc@@3P6AHHKK@ZA 1002b30c     Main.obj
 0003:00001310       ?_headmoveCheck@@3P6AXXZA  1002b310     Main.obj
 0003:00001314       ?_headmoveSetRelPosX@@3P6AXH@ZA 1002b314     Main.obj
 0003:00001318       ?_headmoveSetRelPosY@@3P6AXH@ZA 1002b318     Main.obj
 0003:0000131c       ?_headmoveTouch@@3P6AXXZA  1002b31c     Main.obj
 0003:00001320       ?_RandRange@@3P6AHHH@ZA    1002b320     Main.obj
 0003:00001324       ?_GhostNotify@@3P6AXHH@ZA  1002b324     Main.obj
 0003:00001328       ?_GhostChangeRemoteConfig@@3P6AXHHH@ZA 1002b328     Main.obj
 0003:0000132c       ?_GhostRemRemote@@3P6AXH@ZA 1002b32c     Main.obj
 0003:00001330       ?_GhostAddRemote@@3P6AXHMH@ZA 1002b330     Main.obj
 0003:00001334       ?_GhostAddLocal@@3P6AXHMH@ZA 1002b334     Main.obj
 0003:00001338       ?_GhostGetRemote@@3P6APAUsGhostRemote@@H@ZA 1002b338     Main.obj
 0003:0000133c       ?_GhostGetLocal@@3P6APAUsGhostLocal@@H@ZA 1002b33c     Main.obj
 0003:00001340       ?_GhostSendMoCap@@3P6AXHFFH@ZA 1002b340     Main.obj
 0003:00001344       ?_GhostSendHeartbeat@@3P6AXPAUsGhostLocal@@PAUsGhostPos@@@ZA 1002b344     Main.obj
 0003:00001348       ?_GetGhostType@@3P6AHH@ZA  1002b348     Main.obj
 0003:0000134c       ?_GhostRecvPacket@@3P6AXHHHPAUsGhostHeartbeat@@PAUsGhostMoCap@@@ZA 1002b34c     Main.obj
 0003:00001350       ?_IsLocalGhost@@3P6AHH@ZA  1002b350     Main.obj
 0003:00001354       ?_IsRemoteGhost@@3P6AHH@ZA 1002b354     Main.obj
 0003:00001358       ?_ChooseCapture@@3P6APADPAUsGhostRemote@@H@ZA 1002b358     Main.obj
 0003:0000135c       ?_IsNewPacketNeeded@@3P6AHPAUsGhostLocal@@PAUsGhostPos@@@ZA 1002b35c     Main.obj
 0003:00001360       ?_GhostJumpOff@@3P6AXH@ZA  1002b360     Main.obj
 0003:00001364       ?LoadRemoteGhosts@@3P6AJPAVTagFileRead@@K@ZA 1002b364     Main.obj
 0003:00001368       ?__GhostBuildMotionCoord@@3P6AXPAUsGhostRemote@@@ZA 1002b368     Main.obj
 0003:0000136c       ?__GhostConfigureRemoteModels@@3P6AXPAUsGhostRemote@@@ZA 1002b36c     Main.obj
 0003:00001370       ?_ReAimGhostPhysics@@3P6AXPAUsGhostRemote@@M@ZA 1002b370     Main.obj
 0003:00001374       ?_AimGhostHead@@3P6AXPAUsGhostRemote@@@ZA 1002b374     Main.obj
 0003:00001378       ?_UpdateGhostPrediction@@3P6AXPAUsGhostRemote@@M@ZA 1002b378     Main.obj
 0003:0000137c       ?_GhostAllowedToBuildModels@@3P6AHPAUsGhostRemote@@@ZA 1002b37c     Main.obj
 0003:00001380       ?_GhostPerFrameModeUpdate@@3P6AXPAUsGhostRemote@@@ZA 1002b380     Main.obj
 0003:00001384       ?_MocapEval@@3P6AXPAUsGhostRemote@@M@ZA 1002b384     Main.obj
 0003:00001388       ?_MocapRunMe@@3P6AXPAUsGhostRemote@@PAD@ZA 1002b388     Main.obj
 0003:0000138c       ?__GhostGravRemote@@3P6AKHAAUmxs_vector@@K@ZA 1002b38c     Main.obj
 0003:00001390       ?__GhostApproxPhys@@3P6AXHAAUmxs_vector@@PAUsGhostPos@@MK@ZA 1002b390     Main.obj
 0003:00001394       ?__is_zero_vec@@3P6AHAAUmxs_vector@@@ZA 1002b394     Main.obj
 0003:00001398       ?__GhostBleedVelocity@@3P6AXHPAUsGhostPos@@KKM@ZA 1002b398     Main.obj
 0003:0000139c       ?_AnalyzeVelocity@@3P6AXPAUsGhostRemote@@PAW4eGhostMotionSpeed@@PAH@ZA 1002b39c     Main.obj
 0003:000013a0       ?_GhostAllowedToSleep@@3P6AHPAUsGhostRemote@@@ZA 1002b3a0     Main.obj
 0003:000013a4       ?__GhostPhysSleep@@3P6AXPAUsGhostRemote@@@ZA 1002b3a4     Main.obj
 0003:000013a8       ?__GhostSetupInitialPhysRemote@@3P6AXPAUsGhostRemote@@@ZA 1002b3a8     Main.obj
 0003:000013ac       ?_BuildTagBasedPlan@@3P6APAUIMotionPlan@@PAUsGhostRemote@@PAD@ZA 1002b3ac     Main.obj
 0003:000013b0       ?_BuildSchemaOffsetPlan@@3P6APAUIMotionPlan@@PAUsGhostRemote@@HH@ZA 1002b3b0     Main.obj
 0003:000013b4       ?_FrobExecute@@3P6AXPAUsFrobActivate@@@ZA 1002b3b4     Main.obj
 0003:000013b8       ?_FrobInstantExecute@@3P6AXPAUsFrobActivate@@@ZA 1002b3b8     Main.obj
 0003:000013bc       ?_FrobHandler@@3P6A?AW4eFrobHandler@@H@ZA 1002b3bc     Main.obj
 0003:000013c0       ?_net_damage_filter@@3P6GJHHPAUsDamage@@PAX@ZA 1002b3c0     Main.obj
 0003:000013c4       ?_GetRealCulprit@@3P6AHH@ZA 1002b3c4     Main.obj
 0003:000013c8       ?HandleFrobRequest@@3P6AXKKKKKKK@ZA 1002b3c8     Main.obj
 0003:000013cc       ?HandleRegSphere@@3P6AXHHKMPAUmxs_vector@@K@ZA 1002b3cc     Main.obj
 0003:000013d0       ?HandleDamage@@3P6AXHHH@ZA 1002b3d0     Main.obj
 0003:000013d4       ?HandleCreateQuestData@@3P6AXPADHHK@ZA 1002b3d4     Main.obj
 0003:000013d8       ?HandleSetQuestData@@3P6AXPADHK@ZA 1002b3d8     Main.obj
 0003:000013dc       ?HandleHaltSound@@3P6AXHH@ZA 1002b3dc     Main.obj
 0003:000013e0       ?HandleFrobPickup@@3P6AXKK@ZA 1002b3e0     Main.obj
 0003:000013e4       ?HandlePlayerInfo@@3P6AXHPAD0HPAUINetManager@@@ZA 1002b3e4     Main.obj
 0003:000013e8       ?HandleGhostFullHB@@3P6AXHHHPAUsGhostHeartbeat@@H@ZA 1002b3e8     Main.obj
 0003:000013ec       ?HandleSimpleSoundVec@@3P6AXHPAUmxs_vector@@HHPAUsfx_parm@@H@ZA 1002b3ec     Main.obj
 0003:000013f0       ?HandleSoundVec@@3P6AXHPAUmxs_vector@@HHPAUsfx_parm@@H@ZA 1002b3f0     Main.obj
 0003:000013f4       ?HandleUseWeapon@@3P6AXH@ZA 1002b3f4     Main.obj
 0003:000013f8       ?HandleDropItem@@3P6AXXZA  1002b3f8     Main.obj
 0003:000013fc       ?_r3_start_object_angles@@3P6AXPAUmxs_vector@@PAFH@ZA 1002b3fc     Main.obj
 0003:00001400       ?_kb_next@@3P6A?AU_kbs_event@@XZA 1002b400     Main.obj
 0003:00001404       ?_kb_cook_real@@3P6AFAAU_kbs_event@@AAFAAEH@ZA 1002b404     Main.obj
 0003:00001408       ?CollideEvent@@3P6AHHHHMPAVcPhysClsn@@@ZA 1002b408     Main.obj
 0003:0000140c       ?CollideEventRaw@@3P6AHHHHMPAVcPhysClsn@@@ZA 1002b40c     Main.obj
 0003:00001410       ?_count_all_loot@@3P6AHH@ZA 1002b410     Main.obj
 0003:00001414       ?SlayReactionHandler@@3P6GKPAUsReactionEvent@@PBUsReactionParam@@PAX@ZA 1002b414     Main.obj
 0003:00001418       ?KnockoutReactionHandler@@3P6GKPAUsReactionEvent@@PBUsReactionParam@@PAX@ZA 1002b418     Main.obj
 0003:0000141c       ?AddMetaPropReactionHandler@@3P6GKPAUsReactionEvent@@PBUsReactionParam@@PAX@ZA 1002b41c     Main.obj
 0003:00001420       ?FrobObjectReactionHandler@@3P6GKPAUsReactionEvent@@PBUsReactionParam@@PAX@ZA 1002b420     Main.obj
 0003:00001424       ?OldPlayerCreateHook@@3P6AXHH@ZA 1002b424     Main.obj
 0003:00001428       ?PlayerFactoryHook@@3P6AHXZA 1002b428     Main.obj
 0003:0000142c       ?FrobItem@@3P6AXH@ZA       1002b42c     Main.obj
 0003:00001430       ?DarkReleaseBlood@@3P6AXPAUsDamageMsg@@@ZA 1002b430     Main.obj
 0003:00001434       ?darkSendFrobPickup@@3P6AXHH@ZA 1002b434     Main.obj
 0003:00001438       ?SetTotalLootQuestData@@3P6AXH@ZA 1002b438     Main.obj
 0003:0000143c       ?DarkCombatDamageListener@@3P6GKPBUsDamageMsg@@PAX@ZA 1002b43c     Main.obj
 0003:00001440       ?darkInvTakeObjFromWorld@@3P6AHHH@ZA 1002b440     Main.obj
 0003:00001444       ?SendProjectilePacket@@3P6AXHHKMPAUmxs_vector@@PAUmxs_angvec@@0@ZA 1002b444     Main.obj
 0003:00001448       ?HandleFireProjectile@@3P6AXHHKMPAUmxs_vector@@PAUmxs_angvec@@0@ZA 1002b448     Main.obj
 0003:0000144c       ?PlaySoundObj@@3P6AHPBDHH@ZA 1002b44c     Main.obj
 0003:00001450       ?CreateProjectile@@3P6AHHHKMPAUmxs_vector@@PAUmxs_angvec@@0@ZA 1002b450     Main.obj
 0003:00001454       ?CollisionResolver@@3P6AXPBUtSpringInfo@@K@ZA 1002b454     Main.obj
 0003:00001458       ?PlaySchemaPlayer@@3P6AHPBD@ZA 1002b458     Main.obj
 0003:0000145c       ?RemoveRelationByID@@3P6AXHF@ZA 1002b45c     Main.obj
 0003:00001460       ?FindGroundTextureLoc@@3P6AHPAUmxs_vector@@00@ZA 1002b460     Main.obj
 0003:00001464       ?sub_560650@@3P6AHHH@ZA    1002b464     Main.obj
 0003:00001468       ?sub_56E0C0@@3P6AHPAK@ZA   1002b468     Main.obj
 0003:0000146c       ?unnamed_4AFF10@@3P6AHPAXHH@ZA 1002b46c     Main.obj
 0003:00001470       ?GameModeEnterUnpause@@3P6AXXZA 1002b470     Main.obj
 0003:00001474       ?GetGoalState@@3P6AHPAUIQuestData@@H@ZA 1002b474     Main.obj
 0003:00001478       ?GoalFiction@@3P6A?AVcAnsiStr@@H@ZA 1002b478     Main.obj
 0003:0000147c       ?GoalDescription@@3P6A?AVcAnsiStr@@H@ZA 1002b47c     Main.obj
 0003:00001480       ?GoalStatus@@3P6APAUIDataSource@@H@ZA 1002b480     Main.obj
 0003:00001484       ?cStoredProperty_Set@@3P6GHPAUIProperty@@HPAX@ZA 1002b484     Main.obj
 0003:00001488       ?cStoredProperty_GetInt@@3P6GHPAUIProperty@@HPAH@ZA 1002b488     Main.obj
 0003:0000148c       ?cStoredProperty_GetVoid@@3P6GHPAUIProperty@@HPAPAX@ZA 1002b48c     Main.obj
 0003:00001490       ?cStoredProperty_SendPropertyMsg@@3P6GHPAUsNetMsg_Generic@@HKK@ZA 1002b490     Main.obj
 0003:00001494       ?cStoredProperty_ReceivePropertyMsg@@3P6GXPBUsNetMsg_Generic@@KKH@ZA 1002b494     Main.obj
 0003:00001498       ?cStoredProperty_OnListenMsg@@3P6IXKHKHK@ZA 1002b498     Main.obj
 0003:0000149c       ?FromString@cTagSetFns@@3P6IHPAVcTagSet@@HPBD@ZA 1002b49c     Main.obj
 0003:000014a0       ?HandleRemap@cObjectNetworkingFns@@3P6IXPAUIObjectNetworking@@HEIPAUsSingleRemap@@@ZA 1002b4a0     Main.obj
 0003:000014a4       ?HandleEndCreate@cObjectNetworkingFns@@3P6IXPAUIObjectNetworking@@HH@ZA 1002b4a4     Main.obj
 0003:000014a8       ?HandleBeginCreate@cObjectNetworkingFns@@3P6IHPAUIObjectNetworking@@HHHH@ZA 1002b4a8     Main.obj
 0003:000014ac       ?ClearProxyEntry@cObjectNetworkingFns@@3P6IXPAUIObjectNetworking@@HH@ZA 1002b4ac     Main.obj
 0003:000014b0       ?ScanNext@cHashSetBaseFns@@3P6IPAUtHashSetNode__@@PAVcHashSet@@HPAUtHashSetHandle@@@ZA 1002b4b0     Main.obj
 0003:000014b4       ?FindIndex@cHashSetBaseFns@@3P6I?AUtHashSetHandle@@PAVcHashSet@@HPAUtHashSetKey__@@@ZA 1002b4b4     Main.obj
 0003:000014b8       ?_ctor@cDarkPanelFns@@3P6IXPAVcDarkPanel@@HPBUsDarkPanelDesc@@PBD@ZA 1002b4b8     Main.obj
 0003:000014bc       ?_dtor@cDarkPanelFns@@3P6IXPAVcDarkPanel@@H@ZA 1002b4bc     Main.obj
 0003:000014c0       ?InitUI@cDarkPanelFns@@3P6IXPAVcDarkPanel@@H@ZA 1002b4c0     Main.obj
 0003:000014c4       ?TermUI@cDarkPanelFns@@3P6IXPAVcDarkPanel@@H@ZA 1002b4c4     Main.obj
 0003:000014c8       ?Select@cInventory@@3P6GJPAUIInventory@@H@ZA 1002b4c8     Main.obj
 0003:000014cc       ?ClearSelection@cInventory@@3P6GJPAUIInventory@@W4eWhichInvObj@@@ZA 1002b4cc     Main.obj
 0003:000014d0       ?IsObjSavePartition@cObjectSystem@@3P6GHPAUIObjectSystem@@HK@ZA 1002b4d0     Main.obj
 0003:000014d4       ?Unlock@cObjectSystem@@3P6GJPAUIObjectSystem@@@ZA 1002b4d4     Main.obj
 0003:000014d8       ?ClearTables@cObjectNetworking@@3P6GXPAUIObjectNetworking@@@ZA 1002b4d8     Main.obj
 0003:000014dc       ?ObjRegisterProxy@cObjectNetworking@@3P6GXPAUIObjectNetworking@@HFH@ZA 1002b4dc     Main.obj
 0003:000014e0       ?ObjGetProxy@cObjectNetworking@@3P6GHPAUIObjectNetworking@@HF@ZA 1002b4e0     Main.obj
 0003:000014e4       ?ObjIsProxy@cObjectNetworking@@3P6GHPAUIObjectNetworking@@H@ZA 1002b4e4     Main.obj
 0003:000014e8       ?ObjDeleteProxy@cObjectNetworking@@3P6GXPAUIObjectNetworking@@H@ZA 1002b4e8     Main.obj
 0003:000014ec       ?NotifyObjRemapped@cObjectNetworking@@3P6GXPAUIObjectNetworking@@HH@ZA 1002b4ec     Main.obj
 0003:000014f0       ?StartBeginCreate@cObjectNetworking@@3P6GXPAUIObjectNetworking@@HH@ZA 1002b4f0     Main.obj
 0003:000014f4       ?FinishBeginCreate@cObjectNetworking@@3P6GXPAUIObjectNetworking@@H@ZA 1002b4f4     Main.obj
 0003:000014f8       ?FinishEndCreate@cObjectNetworking@@3P6GXPAUIObjectNetworking@@H@ZA 1002b4f8     Main.obj
 0003:000014fc       ?ObjGiveTo@cObjectNetworking@@3P6GXPAUIObjectNetworking@@HHH@ZA 1002b4fc     Main.obj
 0003:00001500       ?ObjTakeOver@cObjectNetworking@@3P6GXPAUIObjectNetworking@@H@ZA 1002b500     Main.obj
 0003:00001504       ?ObjGiveWithoutObjID@cObjectNetworking@@3P6GXPAUIObjectNetworking@@HH@ZA 1002b504     Main.obj
 0003:00001508       ?ObjHostInfo@cObjectNetworking@@3P6GXPAUIObjectNetworking@@HPAHPAF@ZA 1002b508     Main.obj
 0003:0000150c       ?StartDestroy@cObjectNetworking@@3P6GXPAUIObjectNetworking@@H@ZA 1002b50c     Main.obj
 0003:00001510       ?StartEndCreate@cObjectNetworking@@3P6GXPAUIObjectNetworking@@H@ZA 1002b510     Main.obj
 0003:00001514       ?Add@cContainSys@@3P6GJPAUIContainSys@@HHHI@ZA 1002b514     Main.obj
 0003:00001518       ?CreatePlan@cGroundLocoManeuverFactory@@3P6GPAVcMotionPlan@@PBVcMotionSchema@@AAUsMcMotorState@@AAUsMcMoveState@@AAUsMcMoveParams@@PAVIMotor@@PAVcMotionCoordinator@@@ZA 1002b518     Main.obj
 0003:0000151c       ?EndMission@cDarkGameSrv@@3P6GJK@ZA 1002b51c     Main.obj
 0003:00001520       ?FadeToBlack@cDarkGameSrv@@3P6GJKM@ZA 1002b520     Main.obj
 0003:00001524       ?ReadBook@cDarkUISrv@@3P6GJKPBD0@ZA 1002b524     Main.obj
 0003:00001528       ?Init@cNetManager@@3P6GJPAUINetManager@@@ZA 1002b528     Main.obj
 0003:0000152c       ?GetPlayerAddress@cNetManager@@3P6GPBDPAUINetManager@@H@ZA 1002b52c     Main.obj
 0003:00001530       ?EnumPlayersCallback@cNetManager@@3P6GHKKPBUDPNAME@@KPAX@ZA 1002b530     Main.obj
 0003:00001534       ?InitExistingPlayer@cNetManager@@3P6GHKKPBUDPNAME@@KPAX@ZA 1002b534     Main.obj
 0003:00001538       ?_DestroyNetPlayerCallback@cNetManager@@3P6GHKKPBUDPNAME@@KPAX@ZA 1002b538     Main.obj
 0003:0000153c       ?Leave@cNetManager@@3P6GXPAUINetManager@@@ZA 1002b53c     Main.obj
 0003:00001540       ?gm_PlayerDPID@cNetManager@@3PAKA 1002b540     Main.obj
 0003:00001544       ?gm_bSynchronizing@cNetManager@@3PAHA 1002b544     Main.obj
 0003:00001548       ?gm_Net@cNetManager@@3PAKA 1002b548     Main.obj
 0003:0000154c       ?gm_TheNetManager@cNetManager@@3PAKA 1002b54c     Main.obj
 0003:00001550       ?gm_DefaultHostPlayer@cNetManager@@3PAKA 1002b550     Main.obj
 0003:00001554       ?Host@cNet@@3P6GHPAUINet@@PAD1@ZA 1002b554     Main.obj
 0003:00001558       ?SimpleCreatePlayer@cNet@@3P6GJPAUINet@@PAD@ZA 1002b558     Main.obj
 0003:0000155c       ?Join@cNet@@3P6GHPAUINet@@PBD11@ZA 1002b55c     Main.obj
 0003:00001560       ?EnterCallback@cPropSndInstHighFns@@3P6IHPAVcPropSndInstHigh@@HPBVcRoom@@PBVcRoomPortal@@ABUmxs_vector@@M@ZA 1002b560     Main.obj
 0003:00001564       ?SpeechEndCallback@cAIConverse@@3P6AXHHH@ZA 1002b564     Main.obj
 0003:00001568       ?EnactProxyJointScanAction@cAIBehaviorSet@@3P6GXPAUIAIBehaviorSet@@PAUIAI@@PAX@ZA 1002b568     Main.obj
 0003:0000156c       ?OnButtonList@cDebrief@@3P6IXPAVcDarkPanel@@HGH@ZA 1002b56c     Main.obj
 0003:00001570       ?StartPicking@cPickLockSrv@@3P6GHKHHH@ZA 1002b570     Main.obj
 0003:00001574       ?FinishPicking@cPickLockSrv@@3P6GHKH@ZA 1002b574     Main.obj
 0003:00001578       ?OnMouse@cDefaultInputDevicesSink@@3P6GJKPAU_lgMouseEvent@@@ZA 1002b578     Main.obj
 0003:0000157c       ?GetVelocity@cPhysModelFns@@3P6IABUmxs_vector@@PAVcPhysModel@@HH@ZA 1002b57c     Main.obj
 0003:00001580       ?IsLocationControlled@cPhysModelFns@@3P6IHPAVcPhysModel@@H@ZA 1002b580     Main.obj
 0003:00001584       ?OnLoopMsg@cLoadingFns@@3P6IXPAVcLoading@@HHPAUtLoopMessageData__@@@ZA 1002b584     Main.obj
 0003:00001588       ?DoFileLoad@cLoadingFns@@3P6IXPAVcLoading@@HPAUITagFile@@@ZA 1002b588     Main.obj
 0003:0000158c       ?AllocBuffer@cAnsiStrFns@@3P6IXPAVcAnsiStr@@HH@ZA 1002b58c     Main.obj
 0003:00001590       ?Append@cAnsiStrFns@@3P6IXPAVcAnsiStr@@HHPBD@ZA 1002b590     Main.obj
 0003:00001594       ?InstallOnDeathCallback@cPlayerModeFns@@3P6IXPAVcPlayerMode@@HPAX@ZA 1002b594     Main.obj
 0003:00001598       ?SendSpew@cNetMsgFns@@3P6IXPAVcNetMsg@@HPAD@ZA 1002b598     Main.obj
 0003:0000159c       ?ReceiveSpew@cNetMsgFns@@3P6IXPAVcNetMsg@@HH@ZA 1002b59c     Main.obj
 0003:000015a0       ?HandleMsg@cNetMsgFns@@3P6IXPAVcNetMsg@@HPBUsNetMsg_Generic@@KH@ZA 1002b5a0     Main.obj
 0003:000015a4       ?MarshalArguments@cNetMsgFns@@3P6IHPAVcNetMsg@@HPADPAHPAI@ZA 1002b5a4     Main.obj
 0003:000015a8       ?cNetManager_LoopFunc@@3P6GHPAXW4eLoopMsgType@@PAUtLoopMessageData__@@@ZA 1002b5a8     Main.obj
 0003:000015ac       ?cNetManager_SynchReady@@3P6IXPAUINetManager@@H@ZA 1002b5ac     Main.obj
 0003:000015b0       ?StartAttack@cBowSrv@@3P6GJPAUIBowSrv@@@ZA 1002b5b0     Main.obj
 0003:000015b4       ?FinishAttack@cBowSrv@@3P6GJPAUIBowSrv@@@ZA 1002b5b4     Main.obj
 0003:000015b8       ?TransferAI@cAIManager@@3P6GHPAUIAIManager@@HH@ZA 1002b5b8     Main.obj
 0003:000015bc       ?CreateAI@cAIManager@@3P6GHPAUIAIManager@@HPBD@ZA 1002b5bc     Main.obj
 0003:000015c0       ?StartConversation@cAIManager@@3P6GHPAUIAIManager@@H@ZA 1002b5c0     Main.obj
 0003:000015c4       ?MakeFullAI@cAIManager@@3P6GJPAUIAIManager@@HPBUsAINetTransfer@@@ZA 1002b5c4     Main.obj
 0003:000015c8       ?IsValidTarget@cAICombat@@3P6GHH@ZA 1002b5c8     Main.obj
 0003:000015cc       ?TeleportObject@cGameTools@@3P6GJKHPBUmxs_vector@@PBUmxs_angvec@@H@ZA 1002b5cc     Main.obj
 0003:000015d0       ?DoFileOp@cSaveFilePanelFns@@3P6IXPAKHH@ZA 1002b5d0     Main.obj
 0003:000015d4       ?GetAwarenessLink@cAISensesFns@@3P6IJPAUIAISenses@@HHPAPAUsAIAwareness@@@ZA 1002b5d4     Main.obj
 0003:000015d8       ?SetAwareness@cAISensesFns@@3P6IXPAUIAISenses@@HHJPBUsAIAwareness@@@ZA 1002b5d8     Main.obj
 0003:000015dc       ?React@cReactions@@3P6GJPAUIReactions@@KPAUsReactionEvent@@PBUsReactionParam@@@ZA 1002b5dc     Main.obj
 0003:000015e0       ?AddModule@cScriptMan@@3P6GJKPBD@ZA 1002b5e0     Main.obj
 0003:000015e4       ?SendMessageA@cScriptMan@@3P6GJKPAUsScrMsg@@PAUsMultiParm@@@ZA 1002b5e4     Main.obj
 0003:000015e8       ?TryToUseKey@cKeySys@@3P6GHKHHW4eKeyUse@@@ZA 1002b5e8     Main.obj
 0003:000015ec       ?SendMessageA@cBaseDamageModelFns@@3P6IKPAVcBaseDamageModel@@HPBUsDamageMsg@@@ZA 1002b5ec     Main.obj
 0003:000015f0       ?DamageObject@cSimpleDamageModelFns@@3P6GKKHHPAUsDamage@@PAUsChainedEvent@@H@ZA 1002b5f0     Main.obj
 0003:000015f4       ?IDFromName@cNameMapFns@@3P6IHPAVcNameMap@@HPBULabel@@@ZA 1002b5f4     Main.obj
 0003:000015f8       ?NameFromID@cNameMapFns@@3P6IPAULabel@@PAVcNameMap@@HH@ZA 1002b5f8     Main.obj
 0003:000015fc       ?Constructor@sSimMsgFns@@3P6IPAUsSimMsg@@PAU2@HHH@ZA 1002b5fc     Main.obj
 0003:00001600       ?Destructor@sSimMsgFns@@3P6IXPAUsSimMsg@@H@ZA 1002b600     Main.obj
 0003:00001604       ?Constructor@sScrMsgFns@@3P6IPAUsScrMsg@@PAU2@H@ZA 1002b604     Main.obj
 0003:00001608       ?Destructor@sScrMsgFns@@3P6IXPAUsScrMsg@@H@ZA 1002b608     Main.obj
 0003:0000160c       ?g_pPropMan@@3V?$GlobalPointer@UIPropertyManager@@@@A 1002b60c     Main.obj
 0003:00001610       ?g_pReactions@@3V?$GlobalPointer@UIReactions@@@@A 1002b610     Main.obj
 0003:00001614       ?g_pNetMan@@3V?$GlobalPointer@UINetManager@@@@A 1002b614     Main.obj
 0003:00001618       ?g_pNet@@3V?$GlobalPointer@UINet@@@@A 1002b618     Main.obj
 0003:0000161c       ?g_pObjSys@@3V?$GlobalPointer@UIObjectSystem@@@@A 1002b61c     Main.obj
 0003:00001620       ?g_pObjNet@@3V?$GlobalPointer@UIObjectNetworking@@@@A 1002b620     Main.obj
 0003:00001624       ?g_pInputBinder@@3V?$GlobalPointer@UIInputBinder@@@@A 1002b624     Main.obj
 0003:00001628       ?g_pAIMan@@3V?$GlobalPointer@UIAIManager@@@@A 1002b628     Main.obj
 0003:0000162c       ?g_pContainSys@@3V?$GlobalPointer@UIContainSys@@@@A 1002b62c     Main.obj
 0003:00001630       ?g_pTraitMan@@3V?$GlobalPointer@UITraitManager@@@@A 1002b630     Main.obj
 0003:00001634       ?g_pInventory@@3V?$GlobalPointer@UIInventory@@@@A 1002b634     Main.obj
 0003:00001638       ?g_pLinkMan@@3V?$GlobalPointer@UILinkManager@@@@A 1002b638     Main.obj
 0003:0000163c       ?g_pPlayerMode@@3V?$GlobalPointer@VcPlayerMode@@@@A 1002b63c     Main.obj
 0003:00001640       ?g_pWinAppOps@@3V?$GlobalPointer@VcWinAppOperations@cWindowsApplication@@@@A 1002b640     Main.obj
 0003:00001644       ?g_PhysModels@@3V?$GlobalPointer@VcPhysModels@@@@A 1002b644     Main.obj
 0003:00001648       ?g_pMalloc@@3V?$GlobalPointer@UIMalloc@@@@A 1002b648     Main.obj
 0003:0000164c       ?g_pScriptMan@@3V?$GlobalPointer@UIScriptMan@@@@A 1002b64c     Main.obj
 0003:00001650       ?g_pMotionSet@@3V?$GlobalPointer@UIMotionSet@@@@A 1002b650     Main.obj
 0003:00001654       ?g_pLootProp@@3V?$GlobalPointer@UIGenericProperty@@@@A 1002b654     Main.obj
 0003:00001658       ?g_pBloodCauseProp@@3V?$GlobalPointer@UIBoolProperty@@@@A 1002b658     Main.obj
 0003:0000165c       ?g_pBloodTypeProp@@3V?$GlobalPointer@UIStringProperty@@@@A 1002b65c     Main.obj
 0003:00001660       ?g_pPickCfgProperty@@3V?$GlobalPointer@UIGenericProperty@@@@A 1002b660     Main.obj
 0003:00001664       ?g_pPickStateProperty@@3V?$GlobalPointer@UIGenericProperty@@@@A 1002b664     Main.obj
 0003:00001668       ?g_pAIVisibilityProperty@@3V?$GlobalPointer@UIGenericProperty@@@@A 1002b668     Main.obj
 0003:0000166c       ?pFrobInfoProp@@3V?$GlobalPointer@UIGenericProperty@@@@A 1002b66c     Main.obj
 0003:00001670       ?g_pESndClassProp@@3V?$GlobalPointer@UIGenericProperty@@@@A 1002b670     Main.obj
 0003:00001674       ?tweq_models_prop@@3V?$GlobalPointer@UIGenericProperty@@@@A 1002b674     Main.obj
 0003:00001678       ?g_pAIProperty@@3V?$GlobalPointer@UIGenericProperty@@@@A 1002b678     Main.obj
 0003:0000167c       ?g_pAIFrustratedProperty@@3V?$GlobalPointer@UIGenericProperty@@@@A 1002b67c     Main.obj
 0003:00001680       ?gFrobHandlerProp@@3V?$GlobalPointer@UIIntProperty@@@@A 1002b680     Main.obj
 0003:00001684       ?gStackCountProp@@3V?$GlobalPointer@UIIntProperty@@@@A 1002b684     Main.obj
 0003:00001688       ?gWeaponExposureProp@@3V?$GlobalPointer@UIIntProperty@@@@A 1002b688     Main.obj
 0003:0000168c       ?g_pPrjSoundProp@@3V?$GlobalPointer@UIStringProperty@@@@A 1002b68c     Main.obj
 0003:00001690       ?actorTagListProp@@3V?$GlobalPointer@UIStringProperty@@@@A 1002b690     Main.obj
 0003:00001694       ?modelnameprop@@3V?$GlobalPointer@UIStringProperty@@@@A 1002b694     Main.obj
 0003:00001698       ?g_pLocalCopyProp@@3V?$GlobalPointer@UIBoolProperty@@@@A 1002b698     Main.obj
 0003:0000169c       ?g_pAINoGhostProperty@@3V?$GlobalPointer@UIBoolProperty@@@@A 1002b69c     Main.obj
 0003:000016a0       ?g_pAINoHandoffProperty@@3V?$GlobalPointer@UIBoolProperty@@@@A 1002b6a0     Main.obj
 0003:000016a4       ?pLockedProp@@3V?$GlobalPointer@UIBoolProperty@@@@A 1002b6a4     Main.obj
 0003:000016a8       ?pBeingTakenProp@@3V?$GlobalPointer@UIBoolProperty@@@@A 1002b6a8     Main.obj
 0003:000016ac       ?g_pAISeesProjectileProperty@@3V?$GlobalPointer@UIBoolProperty@@@@A 1002b6ac     Main.obj
 0003:000016b0       ?g_pAIIsProxyProperty@@3V?$GlobalPointer@UIBoolProperty@@@@A 1002b6b0     Main.obj
 0003:000016b4       ?gAlphaRenderProp@@3V?$GlobalPointer@UIFloatProperty@@@@A 1002b6b4     Main.obj
 0003:000016b8       ?gAvatarHeightOffsetProp@@3V?$GlobalPointer@UIFloatProperty@@@@A 1002b6b8     Main.obj
 0003:000016bc       ?g_pPickDistProp@@3V?$GlobalPointer@UIFloatProperty@@@@A 1002b6bc     Main.obj
 0003:000016c0       ?g_pPickBiasProp@@3V?$GlobalPointer@UIFloatProperty@@@@A 1002b6c0     Main.obj
 0003:000016c4       ?pCreatureProp@@3V?$GlobalPointer@UIIntProperty@@@@A 1002b6c4     Main.obj
 0003:000016c8       ?gPropHeartbeat@@3V?$GlobalPointer@UIIntProperty@@@@A 1002b6c8     Main.obj
 0003:000016cc       ?g_pPropSpeechVoiceIndex@@3V?$GlobalPointer@UIIntProperty@@@@A 1002b6cc     Main.obj
 0003:000016d0       ?g_pPropSchemaLastSample@@3V?$GlobalPointer@UIIntProperty@@@@A 1002b6d0     Main.obj
 0003:000016d4       ?g_pPhysAttrProp@@3V?$GlobalPointer@UIGenericProperty@@@@A 1002b6d4     Main.obj
 0003:000016d8       ?g_pPhysTypeProp@@3V?$GlobalPointer@UIGenericProperty@@@@A 1002b6d8     Main.obj
 0003:000016dc       ?g_pScriptProp@@3V?$GlobalPointer@UIGenericProperty@@@@A 1002b6dc     Main.obj
 0003:000016e0       ?g_pSpeechProp@@3V?$GlobalPointer@UIGenericProperty@@@@A 1002b6e0     Main.obj
 0003:000016e4       ?g_pPropSpeechVoice@@3V?$GlobalPointer@UILabelProperty@@@@A 1002b6e4     Main.obj
 0003:000016e8       ?gCombineTypeProp@@3V?$GlobalPointer@UILabelProperty@@@@A 1002b6e8     Main.obj
 0003:000016ec       ?g_pPhysInitVelProp@@3V?$GlobalPointer@UIVectorProperty@@@@A 1002b6ec     Main.obj
 0003:000016f0       ?g_pNoDropProperty@@3V?$GlobalPointer@UIBoolProperty@@@@A 1002b6f0     Main.obj
 0003:000016f4       ?g_pAIDefensiveStatProp@@3V?$GlobalPointer@UIAIRatingProperty@@@@A 1002b6f4     Main.obj
 0003:000016f8       ?g_pAIDodginessStatProp@@3V?$GlobalPointer@UIAIRatingProperty@@@@A 1002b6f8     Main.obj
 0003:000016fc       ?ppNowPickingRelation@@3V?$GlobalPointer@UIRelation@@@@A 1002b6fc     Main.obj
 0003:00001700       ?ppVoiceLink@@3V?$GlobalPointer@UIRelation@@@@A 1002b700     Main.obj
 0003:00001704       ?g_pPlayerFactoryRelation@@3V?$GlobalPointer@UIRelation@@@@A 1002b704     Main.obj
 0003:00001708       ?ppFrobProxyRel@@3V?$GlobalPointer@UIRelation@@@@A 1002b708     Main.obj
 0003:0000170c       ?g_pAIProjectileRelation@@3V?$GlobalPointer@UIRelation@@@@A 1002b70c     Main.obj
 0003:00001710       ?_gContextPath@@3V?$GlobalPointer@UISearchPath@@@@A 1002b710     Main.obj
 0003:00001714       ?_grd_canvas@@3V?$GlobalPointer@Ugrd_canvas@@@@A 1002b714     Main.obj
 0003:00001718       ?gm_NetPlayerProp@cNetManager@@3V?$GlobalPointer@UINetPlayerProperty@@@@A 1002b718     Main.obj
 0003:0000171c       ??_R0?AVMessage@@@8        1002b71c     MessageManager.obj
 0003:00001734       ??_R0?AVMessageMgr@@@8     1002b734     MessageManager.obj
 0003:00001750       ?g_MultiUIButtons@@3PAPBDA 1002b750     MultiUI.obj
 0003:0000175c       ?NetworkedReactions@@3PAUNetworkableReactionInfo@@A 1002b75c     NetReactions.obj
 0003:000017a0       ?g_MultiplayerPatches@@3PAUPtrPatchList@@A 1002b7a0     Patcher.obj
 0003:000019c0       ?g_StartupPatches@@3PAUPtrPatchList@@A 1002b9c0     Patcher.obj
 0003:00001ff0       ?g_StartupRawPatches@@3PAURawPatchList@@A 1002bff0     Patcher.obj
 0003:00002330       ?g_MultiplayerRawPatches@@3PAURawPatchList@@A 1002c330     Patcher.obj
 0003:00002398       ??_R0?AVSaveManager@@@8    1002c398     SaveManager.obj
 0003:000023b8       ??_R0?AVCEListView@EngCtrls@@@8 1002c3b8     ServerBrowser.obj
 0003:000023dc       ??_R0?AUIGSBrowser@@@8     1002c3dc     ServerBrowser.obj
 0003:000023f8       ??_R0?AVCServerList@@@8    1002c3f8     ServerBrowser.obj
 0003:00002414       ??_R0?AVCServerBrowser@@@8 1002c414     ServerBrowser.obj
 0003:00002434       ??_R0?AVCServerListEntry@@@8 1002c434     ServerList.obj
 0003:00002458       ?g_GenOsmPatches@@3PAUPtrPatchList@@A 1002c458     ScriptHooks.obj
 0003:00002568       ?g_ConvictOsmPatches@@3PAUPtrPatchList@@A 1002c568     ScriptHooks.obj
 0003:00002634       ?m_Rect@MapOverlay@@1URect@@A 1002c634     DarkOverlay.obj
 0003:0000263c       ?m_Rect@BookOverlay@@1URect@@A 1002c63c     DarkOverlay.obj
 0003:00002644       ?m_Rect@SimOverlay@@1URect@@A 1002c644     DarkOverlay.obj
 0003:0000264c       ?m_Rect@ObjectivesOverlay@@1URect@@A 1002c64c     DarkOverlay.obj
 0003:00002654       ?m_Rect@PlayersOverlay@@1URect@@A 1002c654     DarkOverlay.obj
 0003:0000265c       ??_R0?AVDarkOverlayManager@@@8 1002c65c     DarkOverlay.obj
 0003:00002680       ??_R0?AUIDarkOverlay@@@8   1002c680     DarkOverlay.obj
 0003:0000269c       ??_R0?AVDarkOverlay@@@8    1002c69c     DarkOverlay.obj
 0003:000026b8       ??_R0?AVPlayersOverlay@@@8 1002c6b8     DarkOverlay.obj
 0003:000026d8       ??_R0?AVMapOverlay@@@8     1002c6d8     DarkOverlay.obj
 0003:000026f4       ??_R0?AVBookOverlay@@@8    1002c6f4     DarkOverlay.obj
 0003:00002710       ??_R0?AVSimOverlay@@@8     1002c710     DarkOverlay.obj
 0003:0000272c       ??_R0?AVObjectivesOverlay@@@8 1002c72c     DarkOverlay.obj
 0003:0000274c       ??_R0?AVStagingOverlay@@@8 1002c74c     DarkOverlay.obj
 0003:0000276c       ??_R0?AVDialogElement@@@8  1002c76c     DialogElement.obj
 0003:00002788       ??_R0?AVElement_Text@@@8   1002c788     DialogElement.obj
 0003:000027a4       ??_R0?AVElement_Image@@@8  1002c7a4     DialogElement.obj
 0003:000027c0       ??_R0?AVElement_Button@@@8 1002c7c0     DialogElement.obj
 0003:000027e0       ?m_nullString@NString@@1PBDB 1002c7e0     Engine:NString.obj
 0003:000027e4       ?kMissingString@@3PBDB     1002c7e4     Engine:IniFile.obj
 0003:000027e8       ?g_DeltaFrame@@3VDelta@Timing@@A 1002c7e8     Engine:Timing.obj
 0003:00002800       ?g_CRCTable@@3PAKA         1002c800     Engine:Crc32.obj
 0003:00002cc0       ??_R0?AVtype_info@@@8      1002ccc0     MSVCRT:ti_inst.obj
 0003:00002ce0       ___native_dllmain_reason   1002cce0     MSVCRT:natstart.obj
 0003:00002ce4       ___native_vcclrit_reason   1002cce4     MSVCRT:natstart.obj
 0003:00002ce8       ___security_cookie         1002cce8     MSVCRT:gs_cookie.obj
 0003:00002cec       ___security_cookie_complement 1002ccec     MSVCRT:gs_cookie.obj
 0003:00002cf0       ?PlayerManeuverFactory@@3VcPlayerManeuverFactory@@A 1002ccf0     Motions.obj
 0003:00002cf4       ?GroundActionManeuverFactory@@3VcGroundActionManeuverFactory@@A 1002ccf4     Motions.obj
 0003:00002d00       ?g_pDarkNet@@3PAUIDarkNet@@A 1002cd00     DarkPeer.obj
 0003:00002d04       ?g_Net@@3HA                1002cd04     DarkPeer.obj
 0003:00002d08       ?g_bNeedSnapshot@@3_NA     1002cd08     DarkPeer.obj
 0003:00002d09       ?m_bLoadedNetCommands@CDarkPeer@@1_NA 1002cd09     DarkPeer.obj
 0003:00002d0a       ?m_bLoadedBinds@CDarkPeer@@1_NA 1002cd0a     DarkPeer.obj
 0003:00002d0c       ?csReceive@@3VCCriticalSection@@A 1002cd0c     DarkPeer.obj
 0003:00002d28       ?NewReceiveQueue@@3V?$SimpleQueue@UNetMessage@@@@A 1002cd28     DarkPeer.obj
 0003:00002d38       ?g_ConnectAttempt@@3VConnectAttempt@@A 1002cd38     DarkPeer.obj
 0003:00003580       ?Players@@3VPlayerDB@@A    1002d580     PlayerDB.obj
 0003:00003640       ?UI@@3PAVInterfaceManager@@A 1002d640     DarkWinGui.obj
 0003:00003648       ?g_chatBox@@3U_LGadTextBox@@A 1002d648     Chat.obj
 0003:00004748       ?g_chatBoxSubroot@@3UTextboxState@@A 1002e748     Chat.obj
 0003:00004988       ?g_chatBuffer@@3PADA       1002e988     Chat.obj
 0003:00004a8c       ?g_giveObj@@3HA            1002ea8c     ClientPacketHandler.obj
 0003:00004a90       ?lastReactionType@@3HA     1002ea90     ClientPacketHandler.obj
 0003:00004a94       ?LoadingSaveGame@@3VcLoadingSaveGameFns@@A 1002ea94     ClientSynch.obj
 0003:00004a98       ?g_bEchoDebug@@3_NA        1002ea98     Config.obj
 0003:00004a9c       ?Cfg@@3VConfigManager@@A   1002ea9c     Config.obj
 0003:00004ac0       ?g_bNetStats@@3_NA         1002eac0     Console.obj
 0003:00004ac1       ?g_bVisStats@@3_NA         1002eac1     Console.obj
 0003:00004ac2       ?g_bMiscStats@@3_NA        1002eac2     Console.obj
 0003:00004ac4       ?g_TextFont@@3PAUgrs_font@@A 1002eac4     DarkUIUtils.obj
 0003:00004ac8       ?g_TextFontRes@@3PAUIRes@@A 1002eac8     DarkUIUtils.obj
 0003:00004acc       ?g_SmallFont@@3PAUgrs_font@@A 1002eacc     DarkUIUtils.obj
 0003:00004ad0       ?g_SmallFontRes@@3PAUIRes@@A 1002ead0     DarkUIUtils.obj
 0003:00004ad4       ?Debug@@3VCDebugManager@@A 1002ead4     Debug.obj
 0003:00004af4       ?g_pDPWrapper@@3PAVCDPWrapper@@A 1002eaf4     DP4Wrapper.obj
 0003:00004af8       ?g_bDisableAIPrediction@@3_NA 1002eaf8     Ghost.obj
 0003:00004b05       ?ChNil@cAnsiStr@@2DA       1002eb05     LG.obj
 0003:00004b0c       ?g_LoopMsgNames@@3PAPADA   1002eb0c     Main.obj
 0003:00004b10       ?LoopGetMessageName@@3P6GPBDH@ZA 1002eb10     Main.obj
 0003:00004b14       ?g_hInstDLL@@3PAUHINSTANCE__@@A 1002eb14     Main.obj
 0003:00004b18       ?Log@@3VLogger@@A          1002eb18     Main.obj
 0003:00004b24       ?g_CoreThread@@3VCCriticalSection@@A 1002eb24     Main.obj
 0003:00004b44       _g_pMultiUI                1002eb44     MultiUI.obj
 0003:00004b48       ?g_pMultiNameProp@@3PAUIStringProperty@@A 1002eb48     NetProperties.obj
 0003:00004b4c       ?g_pSaveMgr@@3PAVSaveManager@@A 1002eb4c     SaveManager.obj
 0003:00004b60       ?g_pBrowser@@3PAVCServerBrowser@@A 1002eb60     ServerBrowser.obj
 0003:00004b64       ?ScriptReceiveMessage@@3P6GXPAUIRootScript@@PAUsScrMsg@@PAVcMultiParm@@W4eScrTraceAction@@@ZA 1002eb64     ScriptHooks.obj
 0003:00004b68       ?g_pStrHash@@3PAVStringHashTable@@A 1002eb68     StringHashTable.obj
 0003:00004b6c       ?g_pOverlayMgr@@3PAVDarkOverlayManager@@A 1002eb6c     DarkOverlay.obj
 0003:00004b70       ?AppLogCallback@@3P6AXPBD@ZA 1002eb70     Engine:Logger.obj
 0003:00004b78       ?m_DefaultBuffer@CMarshalBuffer@@1PAEA 1002eb78     Engine:MarshalBuffer.obj
 0003:00004f78       ?g_dFrequency@Timing@@3NA  1002ef78     Engine:Timing.obj
 0003:00004f80       ?g_Frequency@Timing@@3_JA  1002ef80     Engine:Timing.obj
 0003:00004f98       ?__type_info_root_node@@3U__type_info_node@@A 1002ef98     MSVCRT:tncleanup.obj
 0003:000052c4       __adjust_fdiv              1002f2c4     <common>
 0003:000052c8       ___native_startup_state    1002f2c8     <common>
 0003:000052cc       ___native_startup_lock     1002f2cc     <common>
 0003:000052d0       ___sse2_available          1002f2d0     <common>
 0003:000052d4       ___dyn_tls_init_callback   1002f2d4     <common>
 0003:000052d8       ___onexitend               1002f2d8     <common>
 0003:000052dc       ___onexitbegin             1002f2dc     <common>

 entry point at        0001:0001e0f6

 Static symbols

 0001:0000120d       __catch$?Join@HookNet@@YGHPAUINet@@PBD11@Z$0 1000220d f   Net.obj
 0001:00002584       __catch$?InitGlobalLink@CDarkPeer@@IAE_NXZ$0 10003584 f   DarkPeer.obj
 0001:0000430b       __catch$?InitClient@CDarkPeer@@IAEXXZ$0 1000530b f   DarkPeer.obj
 0001:000046bf       __catch$?InitServer@CDarkPeer@@IAEXXZ$0 100056bf f   DarkPeer.obj
 0001:0000aa8c       __catch$?HandleSpeech@PacketHandler@@IAEXXZ$0 1000ba8c f   ClientPacketHandler.obj
 0001:0000ac84       __catch$?HandleGenericReaction@PacketHandler@@IAEXXZ$0 1000bc84 f   ClientPacketHandler.obj
 0001:0000b255       __catch$?HandleScriptMsg@PacketHandler@@IAEXXZ$0 1000c255 f   ClientPacketHandler.obj
 0001:0000dbbb       __catch$?Open@CDPWrapper@@UAGJPAUDPSESSIONDESC2@@K@Z$0 1000ebbb f   DP4Wrapper.obj
 0001:0000e13a       __catch$?CollisionResolverHook@@YGXPBUtSpringInfo@@K@Z$0 1000f13a f   ErrorHanding.obj
 0001:0000e1e8       __catch$?LoopSampleCallbackHook@@YAXKH@Z$0 1000f1e8 f   ErrorHanding.obj
 0001:0000e289       __catch$?PropSndEnterCBHook@@YIHPAVcPropSndInstHigh@@HPBVcRoom@@PBVcRoomPortal@@ABUmxs_vector@@M@Z$0 1000f289 f   ErrorHanding.obj
 0001:0000e33c       __catch$?SpeechEndCallbackHook@@YAXHHH@Z$0 1000f33c f   ErrorHanding.obj
 0001:00014b98       __catch$??0CServerBrowser@@QAE@XZ$0 10015b98 f   ServerBrowser.obj
 0001:00015cc8       __catch$?HookCollisionStickReceiveMessage@@YGXPAVCollisionStickScript@@PAUsScrMsg@@PAVcMultiParm@@W4eScrTraceAction@@@Z$0 10016cc8 f   ScriptHooks.obj
 0001:0001bb2e       $L61244                    1001cb2e f i Engine:EventManager.obj
 0001:0001bb3a       $L61246                    1001cb3a f i Engine:EventManager.obj
 0001:0001d2c0       ?GetExceptionDescription@@YAPBDK@Z 1001e2c0 f   Engine:ExceptionHandler.obj
 0001:0001d2f0       ?hprintf@@YAXPAXPADZZ      1001e2f0 f   Engine:ExceptionHandler.obj
 0001:0001d340       ?ShowModuleInfo@@YAXPAXPAUHINSTANCE__@@@Z 1001e340 f   Engine:ExceptionHandler.obj
 0001:0001d420       ?RecordModuleList@@YAXPAX@Z 1001e420 f   Engine:ExceptionHandler.obj
 0001:0001d4c0       ?RecordSystemInformation@@YAXPAX@Z 1001e4c0 f   Engine:ExceptionHandler.obj
 0001:0001dd6b       _pre_c_init                1001ed6b f   MSVCRT:crtdll.obj
 0001:0001dfe0       ___DllMainCRTStartup       1001efe0 f   MSVCRT:crtdll.obj
 0001:0001e268       _has_osfxsr_set            1001f268 f   MSVCRT:cpu_disp.obj
 0001:0001e6b0       __unwindfunclet$?Join@HookNet@@YGHPAUINet@@PBD11@Z$2 1001f6b0 f   Net.obj
 0001:0001e6bb       __ehhandler$?Join@HookNet@@YGHPAUINet@@PBD11@Z 1001f6bb f   Net.obj
 0001:0001e6d0       __ehhandler$?InitGlobalLink@CDarkPeer@@IAE_NXZ 1001f6d0 f   DarkPeer.obj
 0001:0001e6e0       __unwindfunclet$??0logic_error@std@@QAE@ABV01@@Z$0 1001f6e0 f   DarkPeer.obj
 0001:0001e6e9       __ehhandler$??0logic_error@std@@QAE@ABV01@@Z 1001f6e9 f   DarkPeer.obj
 0001:0001e700       __unwindfunclet$??1CDarkPeer@@UAE@XZ$0 1001f700 f   DarkPeer.obj
 0001:0001e708       __unwindfunclet$??1CDarkPeer@@UAE@XZ$1 1001f708 f   DarkPeer.obj
 0001:0001e713       __unwindfunclet$??1CDarkPeer@@UAE@XZ$2 1001f713 f   DarkPeer.obj
 0001:0001e71e       __unwindfunclet$??1CDarkPeer@@UAE@XZ$3 1001f71e f   DarkPeer.obj
 0001:0001e729       __ehhandler$??1CDarkPeer@@UAE@XZ 1001f729 f   DarkPeer.obj
 0001:0001e740       __unwindfunclet$?InitClient@CDarkPeer@@IAEXXZ$2 1001f740 f   DarkPeer.obj
 0001:0001e74b       __ehhandler$?InitClient@CDarkPeer@@IAEXXZ 1001f74b f   DarkPeer.obj
 0001:0001e760       __unwindfunclet$?InitServer@CDarkPeer@@IAEXXZ$2 1001f760 f   DarkPeer.obj
 0001:0001e76b       __ehhandler$?InitServer@CDarkPeer@@IAEXXZ 1001f76b f   DarkPeer.obj
 0001:0001e780       __unwindfunclet$??0CDarkPeer@@QAE@W4NetState@@@Z$0 1001f780 f   DarkPeer.obj
 0001:0001e788       __unwindfunclet$??0CDarkPeer@@QAE@W4NetState@@@Z$1 1001f788 f   DarkPeer.obj
 0001:0001e793       __unwindfunclet$??0CDarkPeer@@QAE@W4NetState@@@Z$2 1001f793 f   DarkPeer.obj
 0001:0001e79e       __unwindfunclet$??0CDarkPeer@@QAE@W4NetState@@@Z$3 1001f79e f   DarkPeer.obj
 0001:0001e7a9       __ehhandler$??0CDarkPeer@@QAE@W4NetState@@@Z 1001f7a9 f   DarkPeer.obj
 0001:0001e7c0       __unwindfunclet$??__Eg_ConnectAttempt@@YAXXZ$0 1001f7c0 f   DarkPeer.obj
 0001:0001e7c0       __unwindfunclet$??__Fg_ConnectAttempt@@YAXXZ$0 1001f7c0 f   DarkPeer.obj
 0001:0001e7cb       __ehhandler$??__Eg_ConnectAttempt@@YAXXZ 1001f7cb f   DarkPeer.obj
 0001:0001e7cb       __ehhandler$??__Fg_ConnectAttempt@@YAXXZ 1001f7cb f   DarkPeer.obj
 0001:0001e7e0       __unwindfunclet$??0CDarkSessionManager@@QAE@PAUIDirectPlay8Peer@@@Z$0 1001f7e0 f   DarkSessionManager.obj
 0001:0001e7eb       __unwindfunclet$??0CDarkSessionManager@@QAE@PAUIDirectPlay8Peer@@@Z$1 1001f7eb f   DarkSessionManager.obj
 0001:0001e7f6       __ehhandler$??0CDarkSessionManager@@QAE@PAUIDirectPlay8Peer@@@Z 1001f7f6 f   DarkSessionManager.obj
 0001:0001e800       __unwindfunclet$??1CDarkSessionManager@@UAE@XZ$0 1001f800 f   DarkSessionManager.obj
 0001:0001e80b       __ehhandler$??1CDarkSessionManager@@UAE@XZ 1001f80b f   DarkSessionManager.obj
 0001:0001e820       __unwindfunclet$??0PlayerDB@@QAE@XZ$0 1001f820 f   PlayerDB.obj
 0001:0001e833       __ehhandler$??0PlayerDB@@QAE@XZ 1001f833 f   PlayerDB.obj
 0001:0001e840       __unwindfunclet$?DisplayPage@CConnectDialog@@QAEXXZ$0 1001f840 f   ConnectDialog.obj
 0001:0001e849       __ehhandler$?DisplayPage@CConnectDialog@@QAEXXZ 1001f849 f   ConnectDialog.obj
 0001:0001e860       __unwindfunclet$?AddLine@HistoryManager@@QAEXPBD@Z$0 1001f860 f   ConsoleGUI.obj
 0001:0001e86b       __ehhandler$?AddLine@HistoryManager@@QAEXPBD@Z 1001f86b f   ConsoleGUI.obj
 0001:0001e880       __unwindfunclet$??1HistoryManager@@QAE@XZ$0 1001f880 f   ConsoleGUI.obj
 0001:0001e88b       __ehhandler$??1HistoryManager@@QAE@XZ 1001f88b f   ConsoleGUI.obj
 0001:0001e8a0       __unwindfunclet$??0CConsoleBase@@QAE@PAUHINSTANCE__@@HHHP6GHPAUHWND__@@IIJ@Z@Z$0 1001f8a0 f   ConsoleGUI.obj
 0001:0001e8ab       __unwindfunclet$??0CConsoleBase@@QAE@PAUHINSTANCE__@@HHHP6GHPAUHWND__@@IIJ@Z@Z$1 1001f8ab f   ConsoleGUI.obj
 0001:0001e8b6       __ehhandler$??0CConsoleBase@@QAE@PAUHINSTANCE__@@HHHP6GHPAUHWND__@@IIJ@Z@Z 1001f8b6 f   ConsoleGUI.obj
 0001:0001e8c0       __unwindfunclet$?DialogProc@CThiefConsole@@QAGHPAUHWND__@@IIJ@Z$0 1001f8c0 f   DarkWinGui.obj
 0001:0001e8cb       __unwindfunclet$?DialogProc@CThiefConsole@@QAGHPAUHWND__@@IIJ@Z$1 1001f8cb f   DarkWinGui.obj
 0001:0001e8d4       __ehhandler$?DialogProc@CThiefConsole@@QAGHPAUHWND__@@IIJ@Z 1001f8d4 f   DarkWinGui.obj
 0001:0001e8e0       __unwindfunclet$?CreateChildWindow@InterfaceManager@@UAEXH@Z$0 1001f8e0 f   DarkWinGui.obj
 0001:0001e8eb       __unwindfunclet$?CreateChildWindow@InterfaceManager@@UAEXH@Z$1 1001f8eb f   DarkWinGui.obj
 0001:0001e8f6       __unwindfunclet$?CreateChildWindow@InterfaceManager@@UAEXH@Z$2 1001f8f6 f   DarkWinGui.obj
 0001:0001e901       __unwindfunclet$?CreateChildWindow@InterfaceManager@@UAEXH@Z$4 1001f901 f   DarkWinGui.obj
 0001:0001e90c       __ehhandler$?CreateChildWindow@InterfaceManager@@UAEXH@Z 1001f90c f   DarkWinGui.obj
 0001:0001e920       __unwindfunclet$?GetMissionFlags@CHostDialog@@QAEKH@Z$0 1001f920 f   HostDialog.obj
 0001:0001e928       __unwindfunclet$?GetMissionFlags@CHostDialog@@QAEKH@Z$1 1001f928 f   HostDialog.obj
 0001:0001e930       __ehhandler$?GetMissionFlags@CHostDialog@@QAEKH@Z 1001f930 f   HostDialog.obj
 0001:0001e940       __unwindfunclet$?DebugDrawNetStats@CClient@@QAEXXZ$0 1001f940 f   Client.obj
 0001:0001e948       __ehhandler$?DebugDrawNetStats@CClient@@QAEXXZ 1001f948 f   Client.obj
 0001:0001e960       __unwindfunclet$?DebugDrawMiscStats@CClient@@QAEXXZ$0 1001f960 f   Client.obj
 0001:0001e968       __ehhandler$?DebugDrawMiscStats@CClient@@QAEXXZ 1001f968 f   Client.obj
 0001:0001e980       __unwindfunclet$?OnWinMission@@YAXXZ$0 1001f980 f   ClientPacketHandler.obj
 0001:0001e980       __unwindfunclet$?DarkUIUtilsInit@@YAXXZ$0 1001f980 f   ClientPacketHandler.obj
 0001:0001e980       __unwindfunclet$?LoadPCX@@YAPAUIRes@@PBD0_N@Z$0 1001f980 f   ClientPacketHandler.obj
 0001:0001e980       __unwindfunclet$?HandleMissionStart@PacketHandler@@IAEXXZ$0 1001f980 f   ClientPacketHandler.obj
 0001:0001e980       __unwindfunclet$?DarkStatIntSet@@YAXPADH@Z$0 1001f980 f   ClientPacketHandler.obj
 0001:0001e988       __ehhandler$?LoadPCX@@YAPAUIRes@@PBD0_N@Z 1001f988 f   ClientPacketHandler.obj
 0001:0001e988       __ehhandler$?HandleMissionStart@PacketHandler@@IAEXXZ 1001f988 f   ClientPacketHandler.obj
 0001:0001e988       __ehhandler$?DarkStatIntSet@@YAXPADH@Z 1001f988 f   ClientPacketHandler.obj
 0001:0001e988       __ehhandler$?OnWinMission@@YAXXZ 1001f988 f   ClientPacketHandler.obj
 0001:0001e988       __ehhandler$?DarkUIUtilsInit@@YAXXZ 1001f988 f   ClientPacketHandler.obj
 0001:0001e9a0       __ehhandler$?HandleSpeech@PacketHandler@@IAEXXZ 1001f9a0 f   ClientPacketHandler.obj
 0001:0001e9b0       __ehhandler$?HandleGenericReaction@PacketHandler@@IAEXXZ 1001f9b0 f   ClientPacketHandler.obj
 0001:0001e9c0       __unwindfunclet$?HandleTransferAI@PacketHandler@@IAEXXZ$0 1001f9c0 f   ClientPacketHandler.obj
 0001:0001e9c8       __ehhandler$?HandleTransferAI@PacketHandler@@IAEXXZ 1001f9c8 f   ClientPacketHandler.obj
 0001:0001e9e0       __unwindfunclet$?HandleCreatePlayer@PacketHandler@@IAEXXZ$0 1001f9e0 f   ClientPacketHandler.obj
 0001:0001e9eb       __ehhandler$?HandleCreatePlayer@PacketHandler@@IAEXXZ 1001f9eb f   ClientPacketHandler.obj
 0001:0001ea00       __ehhandler$?HandleScriptMsg@PacketHandler@@IAEXXZ 1001fa00 f   ClientPacketHandler.obj
 0001:0001ea10       __unwindfunclet$?CmdQuestGet@@YAXPBD@Z$0 1001fa10 f   ClientSynch.obj
 0001:0001ea10       __unwindfunclet$?HandleCreatePlayerMsg@CDarkPeer@@IAEXPAU_DPNMSG_CREATE_PLAYER@@@Z$0 1001fa10 f   ClientSynch.obj
 0001:0001ea10       __unwindfunclet$?OnLoopMsg@HookLoading@@YIXPAVcLoading@@HHPAUtLoopMessageData__@@@Z$0 1001fa10 f   ClientSynch.obj
 0001:0001ea18       __ehhandler$?OnLoopMsg@HookLoading@@YIXPAVcLoading@@HHPAUtLoopMessageData__@@@Z 1001fa18 f   ClientSynch.obj
 0001:0001ea18       __ehhandler$?CmdQuestGet@@YAXPBD@Z 1001fa18 f   ClientSynch.obj
 0001:0001ea18       __ehhandler$?HandleCreatePlayerMsg@CDarkPeer@@IAEXPAU_DPNMSG_CREATE_PLAYER@@@Z 1001fa18 f   ClientSynch.obj
 0001:0001ea30       __unwindfunclet$?CmdTeleport@@YAXPAD@Z$0 1001fa30 f   Console.obj
 0001:0001ea3c       __unwindfunclet$?CmdTeleport@@YAXPAD@Z$2 1001fa3c f   Console.obj
 0001:0001ea48       __unwindfunclet$?CmdTeleport@@YAXPAD@Z$4 1001fa48 f   Console.obj
 0001:0001ea54       __unwindfunclet$?CmdTeleport@@YAXPAD@Z$6 1001fa54 f   Console.obj
 0001:0001ea60       __unwindfunclet$?CmdTeleport@@YAXPAD@Z$8 1001fa60 f   Console.obj
 0001:0001ea6c       __unwindfunclet$?CmdTeleport@@YAXPAD@Z$10 1001fa6c f   Console.obj
 0001:0001ea78       __unwindfunclet$?CmdTeleport@@YAXPAD@Z$12 1001fa78 f   Console.obj
 0001:0001ea84       __ehhandler$?CmdTeleport@@YAXPAD@Z 1001fa84 f   Console.obj
 0001:0001ea90       __unwindfunclet$?Open@CDPWrapper@@UAGJPAUDPSESSIONDESC2@@K@Z$2 1001fa90 f   DP4Wrapper.obj
 0001:0001ea9b       __ehhandler$?Open@CDPWrapper@@UAGJPAUDPSESSIONDESC2@@K@Z 1001fa9b f   DP4Wrapper.obj
 0001:0001eab0       __ehhandler$?CollisionResolverHook@@YGXPBUtSpringInfo@@K@Z 1001fab0 f   ErrorHanding.obj
 0001:0001eac0       __ehhandler$?LoopSampleCallbackHook@@YAXKH@Z 1001fac0 f   ErrorHanding.obj
 0001:0001ead0       __ehhandler$?PropSndEnterCBHook@@YIHPAVcPropSndInstHigh@@HPBVcRoom@@PBVcRoomPortal@@ABUmxs_vector@@M@Z 1001fad0 f   ErrorHanding.obj
 0001:0001eae0       __ehhandler$?SpeechEndCallbackHook@@YAXHHH@Z 1001fae0 f   ErrorHanding.obj
 0001:0001eaf0       __unwindfunclet$?_Incsize@?$list@PAVMessage@@V?$allocator@PAVMessage@@@std@@@std@@IAEXI@Z$0 1001faf0 f   Gamesys.obj
 0001:0001eaf0       __unwindfunclet$?_Incsize@?$list@PAVHistoryItem@@V?$allocator@PAVHistoryItem@@@std@@@std@@IAEXI@Z$0 1001faf0 f   Gamesys.obj
 0001:0001eaf0       __unwindfunclet$?_Incsize@?$list@PAVCServerListEntry@@V?$allocator@PAVCServerListEntry@@@std@@@std@@IAEXI@Z$0 1001faf0 f   Gamesys.obj
 0001:0001eaf0       __unwindfunclet$?_Xlen@?$vector@PAVDialogElement@@V?$allocator@PAVDialogElement@@@std@@@std@@KAXXZ$0 1001faf0 f   Gamesys.obj
 0001:0001eaf0       __unwindfunclet$?erase@?$_Tree@V?$_Tmap_traits@HHU?$less@H@std@@V?$allocator@U?$pair@$$CBHH@std@@@2@$0A@@std@@@std@@QAE?AViterator@12@Vconst_iterator@12@@Z$0 1001faf0 f   Gamesys.obj
 0001:0001eaf0       __unwindfunclet$?erase@?$_Tree@V?$_Tmap_traits@KPAUDP4Data@@U?$less@K@std@@V?$allocator@U?$pair@$$CBKPAUDP4Data@@@std@@@3@$0A@@std@@@std@@QAE?AViterator@12@Vconst_iterator@12@@Z$0 1001faf0 f   Gamesys.obj
 0001:0001eaf0       __unwindfunclet$?_Insert@?$_Tree@V?$_Tmap_traits@HHU?$less@H@std@@V?$allocator@U?$pair@$$CBHH@std@@@2@$0A@@std@@@std@@IAE?AViterator@12@_NPAU_Node@?$_Tree_nod@V?$_Tmap_traits@HHU?$less@H@std@@V?$allocator@U?$pair@$$CBHH@std@@@2@$0A@@std@@@2@ABU?$pair@$$CBHH@2@@Z$0 1001faf0 f   Gamesys.obj
 0001:0001eaf0       __unwindfunclet$?_Insert@?$_Tree@V?$_Tmap_traits@KPAUDP4Data@@U?$less@K@std@@V?$allocator@U?$pair@$$CBKPAUDP4Data@@@std@@@3@$0A@@std@@@std@@IAE?AViterator@12@_NPAU_Node@?$_Tree_nod@V?$_Tmap_traits@KPAUDP4Data@@U?$less@K@std@@V?$allocator@U?$pair@$$CBKPAUDP4Data@@@std@@@3@$0A@@std@@@2@ABU?$pair@$$CBKPAUDP4Data@@@2@@Z$0 1001faf0 f   Gamesys.obj
 0001:0001eaf9       __unwindfunclet$?_Incsize@?$list@PAVHistoryItem@@V?$allocator@PAVHistoryItem@@@std@@@std@@IAEXI@Z$2 1001faf9 f   Gamesys.obj
 0001:0001eaf9       __unwindfunclet$?erase@?$_Tree@V?$_Tmap_traits@KPAUDP4Data@@U?$less@K@std@@V?$allocator@U?$pair@$$CBKPAUDP4Data@@@std@@@3@$0A@@std@@@std@@QAE?AViterator@12@Vconst_iterator@12@@Z$2 1001faf9 f   Gamesys.obj
 0001:0001eaf9       __unwindfunclet$?erase@?$_Tree@V?$_Tmap_traits@HHU?$less@H@std@@V?$allocator@U?$pair@$$CBHH@std@@@2@$0A@@std@@@std@@QAE?AViterator@12@Vconst_iterator@12@@Z$2 1001faf9 f   Gamesys.obj
 0001:0001eaf9       __unwindfunclet$?_Xlen@?$vector@PAVDialogElement@@V?$allocator@PAVDialogElement@@@std@@@std@@KAXXZ$2 1001faf9 f   Gamesys.obj
 0001:0001eaf9       __unwindfunclet$?_Incsize@?$list@PAVMessage@@V?$allocator@PAVMessage@@@std@@@std@@IAEXI@Z$2 1001faf9 f   Gamesys.obj
 0001:0001eaf9       __unwindfunclet$?_Insert@?$_Tree@V?$_Tmap_traits@HHU?$less@H@std@@V?$allocator@U?$pair@$$CBHH@std@@@2@$0A@@std@@@std@@IAE?AViterator@12@_NPAU_Node@?$_Tree_nod@V?$_Tmap_traits@HHU?$less@H@std@@V?$allocator@U?$pair@$$CBHH@std@@@2@$0A@@std@@@2@ABU?$pair@$$CBHH@2@@Z$2 1001faf9 f   Gamesys.obj
 0001:0001eaf9       __unwindfunclet$?_Incsize@?$list@PAVCServerListEntry@@V?$allocator@PAVCServerListEntry@@@std@@@std@@IAEXI@Z$2 1001faf9 f   Gamesys.obj
 0001:0001eaf9       __unwindfunclet$?_Insert@?$_Tree@V?$_Tmap_traits@KPAUDP4Data@@U?$less@K@std@@V?$allocator@U?$pair@$$CBKPAUDP4Data@@@std@@@3@$0A@@std@@@std@@IAE?AViterator@12@_NPAU_Node@?$_Tree_nod@V?$_Tmap_traits@KPAUDP4Data@@U?$less@K@std@@V?$allocator@U?$pair@$$CBKPAUDP4Data@@@std@@@3@$0A@@std@@@2@ABU?$pair@$$CBKPAUDP4Data@@@2@@Z$2 1001faf9 f   Gamesys.obj
 0001:0001eb02       __ehhandler$?_Insert@?$_Tree@V?$_Tmap_traits@HHU?$less@H@std@@V?$allocator@U?$pair@$$CBHH@std@@@2@$0A@@std@@@std@@IAE?AViterator@12@_NPAU_Node@?$_Tree_nod@V?$_Tmap_traits@HHU?$less@H@std@@V?$allocator@U?$pair@$$CBHH@std@@@2@$0A@@std@@@2@ABU?$pair@$$CBHH@2@@Z 1001fb02 f   Gamesys.obj
 0001:0001eb02       __ehhandler$?_Xlen@?$vector@PAVDialogElement@@V?$allocator@PAVDialogElement@@@std@@@std@@KAXXZ 1001fb02 f   Gamesys.obj
 0001:0001eb02       __ehhandler$?_Incsize@?$list@PAVMessage@@V?$allocator@PAVMessage@@@std@@@std@@IAEXI@Z 1001fb02 f   Gamesys.obj
 0001:0001eb02       __ehhandler$?erase@?$_Tree@V?$_Tmap_traits@HHU?$less@H@std@@V?$allocator@U?$pair@$$CBHH@std@@@2@$0A@@std@@@std@@QAE?AViterator@12@Vconst_iterator@12@@Z 1001fb02 f   Gamesys.obj
 0001:0001eb02       __ehhandler$?erase@?$_Tree@V?$_Tmap_traits@KPAUDP4Data@@U?$less@K@std@@V?$allocator@U?$pair@$$CBKPAUDP4Data@@@std@@@3@$0A@@std@@@std@@QAE?AViterator@12@Vconst_iterator@12@@Z 1001fb02 f   Gamesys.obj
 0001:0001eb02       __ehhandler$?_Insert@?$_Tree@V?$_Tmap_traits@KPAUDP4Data@@U?$less@K@std@@V?$allocator@U?$pair@$$CBKPAUDP4Data@@@std@@@3@$0A@@std@@@std@@IAE?AViterator@12@_NPAU_Node@?$_Tree_nod@V?$_Tmap_traits@KPAUDP4Data@@U?$less@K@std@@V?$allocator@U?$pair@$$CBKPAUDP4Data@@@std@@@3@$0A@@std@@@2@ABU?$pair@$$CBKPAUDP4Data@@@2@@Z 1001fb02 f   Gamesys.obj
 0001:0001eb02       __ehhandler$?_Incsize@?$list@PAVHistoryItem@@V?$allocator@PAVHistoryItem@@@std@@@std@@IAEXI@Z 1001fb02 f   Gamesys.obj
 0001:0001eb02       __ehhandler$?_Incsize@?$list@PAVCServerListEntry@@V?$allocator@PAVCServerListEntry@@@std@@@std@@IAEXI@Z 1001fb02 f   Gamesys.obj
 0001:0001eb10       __unwindfunclet$??1?$_Tree@V?$_Tmap_traits@KPAUDP4Data@@U?$less@K@std@@V?$allocator@U?$pair@$$CBKPAUDP4Data@@@std@@@3@$0A@@std@@@std@@QAE@XZ$0 1001fb10 f   Gamesys.obj
 0001:0001eb10       __unwindfunclet$??1?$_Tree@V?$_Tmap_traits@HHU?$less@H@std@@V?$allocator@U?$pair@$$CBHH@std@@@2@$0A@@std@@@std@@QAE@XZ$0 1001fb10 f   Gamesys.obj
 0001:0001eb18       __ehhandler$??1?$_Tree@V?$_Tmap_traits@KPAUDP4Data@@U?$less@K@std@@V?$allocator@U?$pair@$$CBKPAUDP4Data@@@std@@@3@$0A@@std@@@std@@QAE@XZ 1001fb18 f   Gamesys.obj
 0001:0001eb18       __ehhandler$??1?$_Tree@V?$_Tmap_traits@HHU?$less@H@std@@V?$allocator@U?$pair@$$CBHH@std@@@2@$0A@@std@@@std@@QAE@XZ 1001fb18 f   Gamesys.obj
 0001:0001eb30       __unwindfunclet$?CreateProjectilePickups@CGamesysManager@@QAEXXZ$0 1001fb30 f   Gamesys.obj
 0001:0001eb3b       __ehhandler$?CreateProjectilePickups@CGamesysManager@@QAEXXZ 1001fb3b f   Gamesys.obj
 0001:0001eb50       __unwindfunclet$??1MessageMgr@@UAE@XZ$0 1001fb50 f   MessageManager.obj
 0001:0001eb5b       __unwindfunclet$??1MessageMgr@@UAE@XZ$1 1001fb5b f   MessageManager.obj
 0001:0001eb66       __ehhandler$??1MessageMgr@@UAE@XZ 1001fb66 f   MessageManager.obj
 0001:0001eb70       __unwindfunclet$?Update@MessageMgr@@QAEXXZ$0 1001fb70 f   MessageManager.obj
 0001:0001eb7b       __ehhandler$?Update@MessageMgr@@QAEXXZ 1001fb7b f   MessageManager.obj
 0001:0001eb90       __unwindfunclet$??0?$_Tree@V?$_Tmap_traits@KPAUDP4Data@@U?$less@K@std@@V?$allocator@U?$pair@$$CBKPAUDP4Data@@@std@@@3@$0A@@std@@@std@@QAE@ABU?$less@K@1@ABV?$allocator@U?$pair@$$CBKPAUDP4Data@@@std@@@1@@Z$0 1001fb90 f   MessageManager.obj
 0001:0001eb90       __unwindfunclet$??0?$list@PAVHistoryItem@@V?$allocator@PAVHistoryItem@@@std@@@std@@QAE@XZ$0 1001fb90 f   MessageManager.obj
 0001:0001eb90       __unwindfunclet$??0?$list@PAVCServerListEntry@@V?$allocator@PAVCServerListEntry@@@std@@@std@@QAE@XZ$0 1001fb90 f   MessageManager.obj
 0001:0001eb90       __unwindfunclet$??0?$_Tree@V?$_Tmap_traits@HHU?$less@H@std@@V?$allocator@U?$pair@$$CBHH@std@@@2@$0A@@std@@@std@@QAE@ABU?$less@H@1@ABV?$allocator@U?$pair@$$CBHH@std@@@1@@Z$0 1001fb90 f   MessageManager.obj
 0001:0001eb90       __unwindfunclet$??0?$list@PAVMessage@@V?$allocator@PAVMessage@@@std@@@std@@QAE@XZ$0 1001fb90 f   MessageManager.obj
 0001:0001eb98       __ehhandler$??0?$_Tree@V?$_Tmap_traits@HHU?$less@H@std@@V?$allocator@U?$pair@$$CBHH@std@@@2@$0A@@std@@@std@@QAE@ABU?$less@H@1@ABV?$allocator@U?$pair@$$CBHH@std@@@1@@Z 1001fb98 f   MessageManager.obj
 0001:0001eb98       __ehhandler$??0?$list@PAVCServerListEntry@@V?$allocator@PAVCServerListEntry@@@std@@@std@@QAE@XZ 1001fb98 f   MessageManager.obj
 0001:0001eb98       __ehhandler$??0?$_Tree@V?$_Tmap_traits@KPAUDP4Data@@U?$less@K@std@@V?$allocator@U?$pair@$$CBKPAUDP4Data@@@std@@@3@$0A@@std@@@std@@QAE@ABU?$less@K@1@ABV?$allocator@U?$pair@$$CBKPAUDP4Data@@@std@@@1@@Z 1001fb98 f   MessageManager.obj
 0001:0001eb98       __ehhandler$??0?$list@PAVMessage@@V?$allocator@PAVMessage@@@std@@@std@@QAE@XZ 1001fb98 f   MessageManager.obj
 0001:0001eb98       __ehhandler$??0?$list@PAVHistoryItem@@V?$allocator@PAVHistoryItem@@@std@@@std@@QAE@XZ 1001fb98 f   MessageManager.obj
 0001:0001ebb0       __unwindfunclet$??0MessageMgr@@QAE@XZ$0 1001fbb0 f   MessageManager.obj
 0001:0001ebbb       __ehhandler$??0MessageMgr@@QAE@XZ 1001fbbb f   MessageManager.obj
 0001:0001ebd0       __unwindfunclet$?TimeString@@YA?AVNString@@H@Z$0 1001fbd0 f   Tools.obj
 0001:0001ebe9       __ehhandler$?TimeString@@YA?AVNString@@H@Z 1001fbe9 f   Tools.obj
 0001:0001ec00       __unwindfunclet$?GetMissionName@@YA?AVcAnsiStr@@H@Z$0 1001fc00 f   Tools.obj
 0001:0001ec08       __ehhandler$?GetMissionName@@YA?AVcAnsiStr@@H@Z 1001fc08 f   Tools.obj
 0001:0001ec20       __unwindfunclet$?HandlePingResponse@CServerBrowser@@UAEXPAX@Z$0 1001fc20 f   ServerBrowser.obj
 0001:0001ec2b       __ehhandler$?HandlePingResponse@CServerBrowser@@UAEXPAX@Z 1001fc2b f   ServerBrowser.obj
 0001:0001ec40       __unwindfunclet$??1CServerBrowser@@UAE@XZ$0 1001fc40 f   ServerBrowser.obj
 0001:0001ec4b       __unwindfunclet$??1CServerBrowser@@UAE@XZ$1 1001fc4b f   ServerBrowser.obj
 0001:0001ec56       __ehhandler$??1CServerBrowser@@UAE@XZ 1001fc56 f   ServerBrowser.obj
 0001:0001ec60       __unwindfunclet$??0CServerBrowser@@QAE@XZ$2 1001fc60 f   ServerBrowser.obj
 0001:0001ec6b       __unwindfunclet$??0CServerBrowser@@QAE@XZ$3 1001fc6b f   ServerBrowser.obj
 0001:0001ec76       __ehhandler$??0CServerBrowser@@QAE@XZ 1001fc76 f   ServerBrowser.obj
 0001:0001ec80       __ehhandler$?HookCollisionStickReceiveMessage@@YGXPAVCollisionStickScript@@PAUsScrMsg@@PAVcMultiParm@@W4eScrTraceAction@@@Z 1001fc80 f   ScriptHooks.obj
 0001:0001ec90       __unwindfunclet$?UpdatePlayers@PlayersOverlay@@QAEXXZ$0 1001fc90 f   DarkOverlay.obj
 0001:0001ec9b       __ehhandler$?UpdatePlayers@PlayersOverlay@@QAEXXZ 1001fc9b f   DarkOverlay.obj
 0001:0001ecb0       __unwindfunclet$?LoadBook@BookOverlay@@QAEXPBD0@Z$0 1001fcb0 f   DarkOverlay.obj
 0001:0001ecb8       __ehhandler$?LoadBook@BookOverlay@@QAEXPBD0@Z 1001fcb8 f   DarkOverlay.obj
 0001:0001ecd0       __unwindfunclet$?Draw@SimOverlay@@UAEXXZ$0 1001fcd0 f   DarkOverlay.obj
 0001:0001ecd8       __ehhandler$?Draw@SimOverlay@@UAEXXZ 1001fcd8 f   DarkOverlay.obj
 0001:0001ecf0       __unwindfunclet$?Init@ObjectivesOverlay@@UAE_NXZ$0 1001fcf0 f   DarkOverlay.obj
 0001:0001ecf8       __ehhandler$?Init@ObjectivesOverlay@@UAE_NXZ 1001fcf8 f   DarkOverlay.obj
 0001:0001ed10       __unwindfunclet$?SetApplicationDesc@CDarkSessionManager@@QAEXPBU_DPN_APPLICATION_DESC@@@Z$0 1001fd10 f   DarkOverlay.obj
 0001:0001ed10       __unwindfunclet$?SetSessionInfo@CDarkSessionManager@@QAEXPBU_DPN_APPLICATION_DESC@@@Z$0 1001fd10 f   DarkOverlay.obj
 0001:0001ed10       __unwindfunclet$?DrawGoalStatus@ObjectivesOverlay@@IAEXHPAUgrs_font@@H@Z$0 1001fd10 f   DarkOverlay.obj
 0001:0001ed10       __unwindfunclet$?HandleCrcRequest@PacketHandler@@IAEXXZ$0 1001fd10 f   DarkOverlay.obj
 0001:0001ed10       __unwindfunclet$?HandleCrcResponse@PacketHandler@@IAEXXZ$0 1001fd10 f   DarkOverlay.obj
 0001:0001ed10       __unwindfunclet$?DebugDrawVisibility@CClient@@QAEXXZ$0 1001fd10 f   DarkOverlay.obj
 0001:0001ed10       __unwindfunclet$?OnEnumerationResponse@CDarkPeer@@IAEXPAU_DPNMSG_ENUM_HOSTS_RESPONSE@@@Z$0 1001fd10 f   DarkOverlay.obj
 0001:0001ed10       __unwindfunclet$?UpdateServerCount@CServerBrowser@@QAEXXZ$0 1001fd10 f   DarkOverlay.obj
 0001:0001ed18       __ehhandler$?HandleCrcRequest@PacketHandler@@IAEXXZ 1001fd18 f   DarkOverlay.obj
 0001:0001ed18       __ehhandler$?DebugDrawVisibility@CClient@@QAEXXZ 1001fd18 f   DarkOverlay.obj
 0001:0001ed18       __ehhandler$?OnEnumerationResponse@CDarkPeer@@IAEXPAU_DPNMSG_ENUM_HOSTS_RESPONSE@@@Z 1001fd18 f   DarkOverlay.obj
 0001:0001ed18       __ehhandler$?SetSessionInfo@CDarkSessionManager@@QAEXPBU_DPN_APPLICATION_DESC@@@Z 1001fd18 f   DarkOverlay.obj
 0001:0001ed18       __ehhandler$?HandleCrcResponse@PacketHandler@@IAEXXZ 1001fd18 f   DarkOverlay.obj
 0001:0001ed18       __ehhandler$?DrawGoalStatus@ObjectivesOverlay@@IAEXHPAUgrs_font@@H@Z 1001fd18 f   DarkOverlay.obj
 0001:0001ed18       __ehhandler$?UpdateServerCount@CServerBrowser@@QAEXXZ 1001fd18 f   DarkOverlay.obj
 0001:0001ed18       __ehhandler$?SetApplicationDesc@CDarkSessionManager@@QAEXPBU_DPN_APPLICATION_DESC@@@Z 1001fd18 f   DarkOverlay.obj
 0001:0001ed30       __unwindfunclet$?Draw@ObjectivesOverlay@@UAEXXZ$0 1001fd30 f   DarkOverlay.obj
 0001:0001ed3b       __unwindfunclet$?Draw@ObjectivesOverlay@@UAEXXZ$1 1001fd3b f   DarkOverlay.obj
 0001:0001ed46       __ehhandler$?Draw@ObjectivesOverlay@@UAEXXZ 1001fd46 f   DarkOverlay.obj
 0001:0001ed50       __unwindfunclet$?UpdateSettings@StagingOverlay@@IAEXXZ$0 1001fd50 f   DarkOverlay.obj
 0001:0001ed58       __unwindfunclet$?UpdateSettings@StagingOverlay@@IAEXXZ$1 1001fd58 f   DarkOverlay.obj
 0001:0001ed60       __ehhandler$?UpdateSettings@StagingOverlay@@IAEXXZ 1001fd60 f   DarkOverlay.obj
 0001:0001ed70       __unwindfunclet$??0DarkOverlay@@QAE@PBD@Z$1 1001fd70 f   DarkOverlay.obj
 0001:0001ed78       __unwindfunclet$??0DarkOverlay@@QAE@PBD@Z$0 1001fd78 f   DarkOverlay.obj
 0001:0001ed83       __ehhandler$??0DarkOverlay@@QAE@PBD@Z 1001fd83 f   DarkOverlay.obj
 0001:0001ed90       __unwindfunclet$??0MapOverlay@@QAE@PBD@Z$0 1001fd90 f   DarkOverlay.obj
 0001:0001ed98       __unwindfunclet$??0MapOverlay@@QAE@PBD@Z$1 1001fd98 f   DarkOverlay.obj
 0001:0001eda3       __ehhandler$??0MapOverlay@@QAE@PBD@Z 1001fda3 f   DarkOverlay.obj
 0001:0001edb0       __unwindfunclet$??0ObjectivesOverlay@@QAE@PBD@Z$0 1001fdb0 f   DarkOverlay.obj
 0001:0001edb8       __unwindfunclet$??0ObjectivesOverlay@@QAE@PBD@Z$1 1001fdb8 f   DarkOverlay.obj
 0001:0001edc3       __ehhandler$??0ObjectivesOverlay@@QAE@PBD@Z 1001fdc3 f   DarkOverlay.obj
 0001:0001edd0       __unwindfunclet$??1BookOverlay@@UAE@XZ$0 1001fdd0 f   DarkOverlay.obj
 0001:0001edd0       __unwindfunclet$??1SimOverlay@@UAE@XZ$0 1001fdd0 f   DarkOverlay.obj
 0001:0001edd0       __unwindfunclet$??1ObjectivesOverlay@@UAE@XZ$0 1001fdd0 f   DarkOverlay.obj
 0001:0001edd0       __unwindfunclet$??1MapOverlay@@UAE@XZ$0 1001fdd0 f   DarkOverlay.obj
 0001:0001edd0       __unwindfunclet$??0SimOverlay@@QAE@PBD@Z$0 1001fdd0 f   DarkOverlay.obj
 0001:0001edd8       __ehhandler$??0SimOverlay@@QAE@PBD@Z 1001fdd8 f   DarkOverlay.obj
 0001:0001edd8       __ehhandler$??1BookOverlay@@UAE@XZ 1001fdd8 f   DarkOverlay.obj
 0001:0001edd8       __ehhandler$??1MapOverlay@@UAE@XZ 1001fdd8 f   DarkOverlay.obj
 0001:0001edd8       __ehhandler$??1SimOverlay@@UAE@XZ 1001fdd8 f   DarkOverlay.obj
 0001:0001edd8       __ehhandler$??1ObjectivesOverlay@@UAE@XZ 1001fdd8 f   DarkOverlay.obj
 0001:0001edf0       __unwindfunclet$??0DarkOverlayManager@@QAE@XZ$0 1001fdf0 f   DarkOverlay.obj
 0001:0001edfb       __unwindfunclet$??0DarkOverlayManager@@QAE@XZ$1 1001fdfb f   DarkOverlay.obj
 0001:0001ee06       __unwindfunclet$??0DarkOverlayManager@@QAE@XZ$2 1001fe06 f   DarkOverlay.obj
 0001:0001ee11       __unwindfunclet$??0DarkOverlayManager@@QAE@XZ$3 1001fe11 f   DarkOverlay.obj
 0001:0001ee1c       __unwindfunclet$??0DarkOverlayManager@@QAE@XZ$4 1001fe1c f   DarkOverlay.obj
 0001:0001ee27       __unwindfunclet$??0DarkOverlayManager@@QAE@XZ$5 1001fe27 f   DarkOverlay.obj
 0001:0001ee32       __ehhandler$??0DarkOverlayManager@@QAE@XZ 1001fe32 f   DarkOverlay.obj
 0001:0001ee40       __unwindfunclet$?StringHashInit@@YAXXZ$0 1001fe40 f   DarkOverlay.obj
 0001:0001ee40       __unwindfunclet$?OverlayInit@@YAXXZ$0 1001fe40 f   DarkOverlay.obj
 0001:0001ee40       __unwindfunclet$?AddButton@DarkOverlay@@QAEPAVElement_Button@@PBDMMKKPAUgrs_font@@P6AXPAVDialogElement@@UPoint@@@Z@Z$0 1001fe40 f   DarkOverlay.obj
 0001:0001ee40       __unwindfunclet$?AddServer@CServerList@@QAEPAVCServerListEntry@@PBD00GGEE@Z$0 1001fe40 f   DarkOverlay.obj
 0001:0001ee40       __unwindfunclet$?SaveManagerInit@@YAXXZ$0 1001fe40 f   DarkOverlay.obj
 0001:0001ee40       __unwindfunclet$?AddText@DarkOverlay@@QAEPAVElement_Text@@PBDMMKKPAUgrs_font@@@Z$0 1001fe40 f   DarkOverlay.obj
 0001:0001ee40       __unwindfunclet$?AddImage@DarkOverlay@@QAEPAVElement_Image@@PBD0MMKP6AXPAVDialogElement@@UPoint@@@Z@Z$0 1001fe40 f   DarkOverlay.obj
 0001:0001ee40       __unwindfunclet$?AddLine@MessageMgr@@QAEX_NPBD@Z$0 1001fe40 f   DarkOverlay.obj
 0001:0001ee40       __unwindfunclet$?Get@MessageMgr@@SAPAV1@XZ$0 1001fe40 f   DarkOverlay.obj
 0001:0001ee4b       __ehhandler$?Get@MessageMgr@@SAPAV1@XZ 1001fe4b f   DarkOverlay.obj
 0001:0001ee4b       __ehhandler$?AddLine@MessageMgr@@QAEX_NPBD@Z 1001fe4b f   DarkOverlay.obj
 0001:0001ee4b       __ehhandler$?AddImage@DarkOverlay@@QAEPAVElement_Image@@PBD0MMKP6AXPAVDialogElement@@UPoint@@@Z@Z 1001fe4b f   DarkOverlay.obj
 0001:0001ee4b       __ehhandler$?SaveManagerInit@@YAXXZ 1001fe4b f   DarkOverlay.obj
 0001:0001ee4b       __ehhandler$?AddText@DarkOverlay@@QAEPAVElement_Text@@PBDMMKKPAUgrs_font@@@Z 1001fe4b f   DarkOverlay.obj
 0001:0001ee4b       __ehhandler$?AddServer@CServerList@@QAEPAVCServerListEntry@@PBD00GGEE@Z 1001fe4b f   DarkOverlay.obj
 0001:0001ee4b       __ehhandler$?OverlayInit@@YAXXZ 1001fe4b f   DarkOverlay.obj
 0001:0001ee4b       __ehhandler$?AddButton@DarkOverlay@@QAEPAVElement_Button@@PBDMMKKPAUgrs_font@@P6AXPAVDialogElement@@UPoint@@@Z@Z 1001fe4b f   DarkOverlay.obj
 0001:0001ee4b       __ehhandler$?StringHashInit@@YAXXZ 1001fe4b f   DarkOverlay.obj
 0001:0001ee60       __unwindfunclet$?Init@StagingOverlay@@UAE_NXZ$0 1001fe60 f   DarkOverlay.obj
 0001:0001ee60       __unwindfunclet$?Init@PlayersOverlay@@UAE_NXZ$0 1001fe60 f   DarkOverlay.obj
 0001:0001ee68       __unwindfunclet$?Init@StagingOverlay@@UAE_NXZ$1 1001fe68 f   DarkOverlay.obj
 0001:0001ee68       __unwindfunclet$?Init@PlayersOverlay@@UAE_NXZ$1 1001fe68 f   DarkOverlay.obj
 0001:0001ee70       __unwindfunclet$?Init@StagingOverlay@@UAE_NXZ$2 1001fe70 f   DarkOverlay.obj
 0001:0001ee70       __unwindfunclet$?Init@PlayersOverlay@@UAE_NXZ$2 1001fe70 f   DarkOverlay.obj
 0001:0001ee78       __unwindfunclet$?Init@StagingOverlay@@UAE_NXZ$3 1001fe78 f   DarkOverlay.obj
 0001:0001ee78       __unwindfunclet$?Init@PlayersOverlay@@UAE_NXZ$3 1001fe78 f   DarkOverlay.obj
 0001:0001ee80       __unwindfunclet$?Init@StagingOverlay@@UAE_NXZ$4 1001fe80 f   DarkOverlay.obj
 0001:0001ee80       __unwindfunclet$?Init@PlayersOverlay@@UAE_NXZ$4 1001fe80 f   DarkOverlay.obj
 0001:0001ee88       __ehhandler$?Init@StagingOverlay@@UAE_NXZ 1001fe88 f   DarkOverlay.obj
 0001:0001ee88       __ehhandler$?Init@PlayersOverlay@@UAE_NXZ 1001fe88 f   DarkOverlay.obj
 0001:0001eea0       __unwindfunclet$??1Element_Text@@UAE@XZ$0 1001fea0 f   DialogElement.obj
 0001:0001eea8       __ehhandler$??1Element_Text@@UAE@XZ 1001fea8 f   DialogElement.obj
 0001:0001eec0       __unwindfunclet$??1Element_Image@@UAE@XZ$0 1001fec0 f   DialogElement.obj
 0001:0001eec8       __unwindfunclet$??1Element_Image@@UAE@XZ$1 1001fec8 f   DialogElement.obj
 0001:0001eed3       __ehhandler$??1Element_Image@@UAE@XZ 1001fed3 f   DialogElement.obj
 0001:0001eee0       __unwindfunclet$??0Element_Image@@QAE@PAUIDarkOverlay@@PBD1MMKP6AXPAVDialogElement@@UPoint@@@Z@Z$0 1001fee0 f   DialogElement.obj
 0001:0001eee8       __unwindfunclet$??0Element_Image@@QAE@PAUIDarkOverlay@@PBD1MMKP6AXPAVDialogElement@@UPoint@@@Z@Z$1 1001fee8 f   DialogElement.obj
 0001:0001eef3       __unwindfunclet$??0Element_Image@@QAE@PAUIDarkOverlay@@PBD1MMKP6AXPAVDialogElement@@UPoint@@@Z@Z$2 1001fef3 f   DialogElement.obj
 0001:0001eefe       __ehhandler$??0Element_Image@@QAE@PAUIDarkOverlay@@PBD1MMKP6AXPAVDialogElement@@UPoint@@@Z@Z 1001fefe f   DialogElement.obj
 0001:0001ef10       __unwindfunclet$??0Element_Text@@QAE@PAUIDarkOverlay@@PBDMMKKPAUgrs_font@@@Z$0 1001ff10 f   DialogElement.obj
 0001:0001ef18       __unwindfunclet$??0Element_Text@@QAE@PAUIDarkOverlay@@PBDMMKKPAUgrs_font@@@Z$1 1001ff18 f   DialogElement.obj
 0001:0001ef23       __unwindfunclet$??0Element_Text@@QAE@PAUIDarkOverlay@@PBDMMKKPAUgrs_font@@@Z$2 1001ff23 f   DialogElement.obj
 0001:0001ef2b       __ehhandler$??0Element_Text@@QAE@PAUIDarkOverlay@@PBDMMKKPAUgrs_font@@@Z 1001ff2b f   DialogElement.obj
 0001:0001ef40       $L61341                    1001ff40 f   Engine:ConfigManager.obj
 0001:0001ef40       $L61362                    1001ff40 f   Engine:ConfigManager.obj
 0001:0001ef40       $L61379                    1001ff40 f   Engine:ConfigManager.obj
 0001:0001ef40       $L61406                    1001ff40 f   Engine:ConfigManager.obj
 0001:0001ef40       $L62308                    1001ff40 f   Engine:ConfigManager.obj
 0001:0001ef4b       __ehhandler$?CreateFloatVar@ConfigManager@@IAEPAVConfigVar@@PBD@Z 1001ff4b f   Engine:ConfigManager.obj
 0001:0001ef4b       __ehhandler$?Initialize@EventManager@@SAXXZ 1001ff4b f   Engine:ConfigManager.obj
 0001:0001ef4b       __ehhandler$?CreateStringVar@ConfigManager@@IAEPAVConfigVar@@PBD@Z 1001ff4b f   Engine:ConfigManager.obj
 0001:0001ef4b       __ehhandler$?CreateIntVar@ConfigManager@@IAEPAVConfigVar@@PBD@Z 1001ff4b f   Engine:ConfigManager.obj
 0001:0001ef4b       __ehhandler$?SetIniFile@ConfigManager@@QAEXPBD@Z 1001ff4b f   Engine:ConfigManager.obj
 0001:0001ef60       $L59919                    1001ff60 f   Engine:Utilities.obj
 0001:0001ef69       $L59920                    1001ff69 f   Engine:Utilities.obj
 0001:0001ef72       $L59921                    1001ff72 f   Engine:Utilities.obj
 0001:0001ef8c       __ehhandler$?GetParam@@YA?AV?$basic_string@DU?$char_traits@D@std@@V?$allocator@D@2@@std@@V12@DI@Z 1001ff8c f   Engine:Utilities.obj
 0001:0001efa0       $L60765                    1001ffa0 f   Engine:EventManager.obj
 0001:0001efa0       $L61812                    1001ffa0 f   Engine:EventManager.obj
 0001:0001efa9       $L60769                    1001ffa9 f   Engine:EventManager.obj
 0001:0001efa9       $L61832                    1001ffa9 f   Engine:EventManager.obj
 0001:0001efb2       __ehhandler$?_Xlen@?$vector@VEventListener@@V?$allocator@VEventListener@@@std@@@std@@IBEXXZ 1001ffb2 f   Engine:EventManager.obj
 0001:0001efb2       __ehhandler$?_Incsize@?$list@PAVConfigVar@@V?$allocator@PAVConfigVar@@@std@@@std@@IAEXI@Z 1001ffb2 f   Engine:EventManager.obj
 0001:0001efc0       __ehhandler$?_Insert_n@?$vector@VEventListener@@V?$allocator@VEventListener@@@std@@@std@@IAEXViterator@12@IABVEventListener@@@Z 1001ffc0 f   Engine:EventManager.obj
 0001:0001efd0       $L59582                    1001ffd0 f   Engine:EngError.obj
 0001:0001efdc       __ehhandler$?ErrorMessageBox@@YAXPBD@Z 1001ffdc f   Engine:EngError.obj
 0001:0001eff0       ??__EcsReceive@@YAXXZ      1001fff0 f   DarkPeer.obj
 0001:0001f020       ??__ENewReceiveQueue@@YAXXZ 10020020 f   DarkPeer.obj
 0001:0001f030       ??__Eg_ConnectAttempt@@YAXXZ 10020030 f   DarkPeer.obj
 0001:0001f080       ??__EPlayers@@YAXXZ        10020080 f   PlayerDB.obj
 0001:0001f0a0       ??__ECfg@@YAXXZ            100200a0 f   Config.obj
 0001:0001f0c0       ??__EGamesys@@YAXXZ        100200c0 f   Gamesys.obj
 0001:0001f0f0       ??__ELog@@YAXXZ            100200f0 f   Main.obj
 0001:0001f110       ??__Eg_CoreThread@@YAXXZ   10020110 f   Main.obj
 0001:0001f140       ??__ENetworkedReactions@@YAXXZ 10020140 f   NetReactions.obj
 0001:0001f170       ??__FcsReceive@@YAXXZ      10020170 f   DarkPeer.obj
 0001:0001f180       ??__Fg_ConnectAttempt@@YAXXZ 10020180 f   DarkPeer.obj
 0001:0001f1d0       ??__FNewReceiveQueue@@YAXXZ 100201d0 f   DarkPeer.obj
 0001:0001f1e0       ??__FPlayers@@YAXXZ        100201e0 f   PlayerDB.obj
 0001:0001f200       ??__FCfg@@YAXXZ            10020200 f   Config.obj
 0001:0001f210       ??__FGamesys@@YAXXZ        10020210 f   Gamesys.obj
 0001:0001f220       ??__FLog@@YAXXZ            10020220 f   Main.obj
 0001:0001f230       ??__Fg_CoreThread@@YAXXZ   10020230 f   Main.obj
